Archive member included because of file (symbol)

.\externals\libs\libstm32f4xx_peripherals.a(stm32f4xx_dma.o)
                              obj\.\src\Init_DMA.o (DMA_DeInit)
.\externals\libs\libstm32f4xx_peripherals.a(stm32f4xx_exti.o)
                              obj\.\src\Encoder_1.o (EXTI_Init)
.\externals\libs\libstm32f4xx_peripherals.a(stm32f4xx_fsmc.o)
                              obj\.\src\TFT_Display.o (FSMC_NORSRAMInit)
.\externals\libs\libstm32f4xx_peripherals.a(stm32f4xx_gpio.o)
                              obj\.\src\ChangeOver.o (GPIO_Init)
.\externals\libs\libstm32f4xx_peripherals.a(stm32f4xx_i2c.o)
                              obj\.\src\Init_I2C.o (I2C_DeInit)
.\externals\libs\libstm32f4xx_peripherals.a(stm32f4xx_rcc.o)
                              .\externals\libs\libstm32f4xx_peripherals.a(stm32f4xx_i2c.o) (RCC_GetClocksFreq)
.\externals\libs\libstm32f4xx_peripherals.a(stm32f4xx_spi.o)
                              obj\.\src\touch_pad.o (SPI_I2S_DeInit)
.\externals\libs\libstm32f4xx_peripherals.a(stm32f4xx_syscfg.o)
                              obj\.\src\Encoder_1.o (SYSCFG_EXTILineConfig)
.\externals\libs\libstm32f4xx_peripherals.a(stm32f4xx_tim.o)
                              obj\.\src\TFT_Display.o (TIM_TimeBaseInit)
.\externals\libs\libstm32f4xx_peripherals.a(stm32f4xx_usart.o)
                              obj\.\src\uart.o (USART_Init)
.\externals\libs\libstm32f4xx_math.a(arm_cmplx_mag_squared_q15.o)
                              obj\.\src\DSP_Processing.o (arm_cmplx_mag_squared_q15)
.\externals\libs\libstm32f4xx_math.a(arm_shift_q15.o)
                              obj\.\src\DSP_Processing.o (arm_shift_q15)
.\externals\libs\libstm32f4xx_math.a(arm_fir_decimate_q15.o)
                              obj\.\src\PSK_Det.o (arm_fir_decimate_q15)
.\externals\libs\libstm32f4xx_math.a(arm_fir_q15.o)
                              obj\.\src\DSP_Processing.o (arm_fir_q15)
.\externals\libs\libstm32f4xx_math.a(arm_cfft_radix4_q15.o)
                              obj\.\src\DSP_Processing.o (arm_cfft_radix4_q15)
.\externals\libs\libstm32f4xx_math.a(arm_cfft_radix4_init_q15.o)
                              obj\.\src\DSP_Processing.o (arm_cfft_radix4_init_q15)
.\externals\libs\libstm32f4xx_math.a(arm_common_tables.o)
                              .\externals\libs\libstm32f4xx_math.a(arm_cfft_radix4_init_q15.o) (armBitRevTable)
c:/program files/gnu tools arm embedded/4.6 2012q2/bin/../lib/gcc/arm-none-eabi/4.6.2/../../../../arm-none-eabi/lib/armv7e-m/fpu\libm.a(lib_a-w_atan2.o)
                              obj\.\src\PSK_Det.o (atan2)
c:/program files/gnu tools arm embedded/4.6 2012q2/bin/../lib/gcc/arm-none-eabi/4.6.2/../../../../arm-none-eabi/lib/armv7e-m/fpu\libm.a(lib_a-w_fmod.o)
                              obj\.\src\PSK_Det.o (fmod)
c:/program files/gnu tools arm embedded/4.6 2012q2/bin/../lib/gcc/arm-none-eabi/4.6.2/../../../../arm-none-eabi/lib/armv7e-m/fpu\libm.a(lib_a-w_log.o)
                              obj\.\src\main.o (log)
c:/program files/gnu tools arm embedded/4.6 2012q2/bin/../lib/gcc/arm-none-eabi/4.6.2/../../../../arm-none-eabi/lib/armv7e-m/fpu\libm.a(lib_a-w_sqrt.o)
                              obj\.\src\PSK_Det.o (sqrt)
c:/program files/gnu tools arm embedded/4.6 2012q2/bin/../lib/gcc/arm-none-eabi/4.6.2/../../../../arm-none-eabi/lib/armv7e-m/fpu\libm.a(lib_a-e_atan2.o)
                              c:/program files/gnu tools arm embedded/4.6 2012q2/bin/../lib/gcc/arm-none-eabi/4.6.2/../../../../arm-none-eabi/lib/armv7e-m/fpu\libm.a(lib_a-w_atan2.o) (__ieee754_atan2)
c:/program files/gnu tools arm embedded/4.6 2012q2/bin/../lib/gcc/arm-none-eabi/4.6.2/../../../../arm-none-eabi/lib/armv7e-m/fpu\libm.a(lib_a-e_fmod.o)
                              c:/program files/gnu tools arm embedded/4.6 2012q2/bin/../lib/gcc/arm-none-eabi/4.6.2/../../../../arm-none-eabi/lib/armv7e-m/fpu\libm.a(lib_a-w_fmod.o) (__ieee754_fmod)
c:/program files/gnu tools arm embedded/4.6 2012q2/bin/../lib/gcc/arm-none-eabi/4.6.2/../../../../arm-none-eabi/lib/armv7e-m/fpu\libm.a(lib_a-e_log.o)
                              c:/program files/gnu tools arm embedded/4.6 2012q2/bin/../lib/gcc/arm-none-eabi/4.6.2/../../../../arm-none-eabi/lib/armv7e-m/fpu\libm.a(lib_a-w_log.o) (__ieee754_log)
c:/program files/gnu tools arm embedded/4.6 2012q2/bin/../lib/gcc/arm-none-eabi/4.6.2/../../../../arm-none-eabi/lib/armv7e-m/fpu\libm.a(lib_a-e_sqrt.o)
                              c:/program files/gnu tools arm embedded/4.6 2012q2/bin/../lib/gcc/arm-none-eabi/4.6.2/../../../../arm-none-eabi/lib/armv7e-m/fpu\libm.a(lib_a-w_sqrt.o) (__ieee754_sqrt)
c:/program files/gnu tools arm embedded/4.6 2012q2/bin/../lib/gcc/arm-none-eabi/4.6.2/../../../../arm-none-eabi/lib/armv7e-m/fpu\libm.a(lib_a-s_atan.o)
                              c:/program files/gnu tools arm embedded/4.6 2012q2/bin/../lib/gcc/arm-none-eabi/4.6.2/../../../../arm-none-eabi/lib/armv7e-m/fpu\libm.a(lib_a-e_atan2.o) (atan)
c:/program files/gnu tools arm embedded/4.6 2012q2/bin/../lib/gcc/arm-none-eabi/4.6.2/../../../../arm-none-eabi/lib/armv7e-m/fpu\libm.a(lib_a-s_fabs.o)
                              c:/program files/gnu tools arm embedded/4.6 2012q2/bin/../lib/gcc/arm-none-eabi/4.6.2/../../../../arm-none-eabi/lib/armv7e-m/fpu\libm.a(lib_a-e_atan2.o) (fabs)
c:/program files/gnu tools arm embedded/4.6 2012q2/bin/../lib/gcc/arm-none-eabi/4.6.2/../../../../arm-none-eabi/lib/armv7e-m/fpu\libm.a(lib_a-s_fpclassify.o)
                              c:/program files/gnu tools arm embedded/4.6 2012q2/bin/../lib/gcc/arm-none-eabi/4.6.2/../../../../arm-none-eabi/lib/armv7e-m/fpu\libm.a(lib_a-w_fmod.o) (__fpclassifyd)
c:/program files/gnu tools arm embedded/4.6 2012q2/bin/../lib/gcc/arm-none-eabi/4.6.2/../../../../arm-none-eabi/lib/armv7e-m/fpu\libm.a(lib_a-s_lib_ver.o)
                              c:/program files/gnu tools arm embedded/4.6 2012q2/bin/../lib/gcc/arm-none-eabi/4.6.2/../../../../arm-none-eabi/lib/armv7e-m/fpu\libm.a(lib_a-w_fmod.o) (__fdlib_version)
c:/program files/gnu tools arm embedded/4.6 2012q2/bin/../lib/gcc/arm-none-eabi/4.6.2/../../../../arm-none-eabi/lib/armv7e-m/fpu\libm.a(lib_a-s_matherr.o)
                              c:/program files/gnu tools arm embedded/4.6 2012q2/bin/../lib/gcc/arm-none-eabi/4.6.2/../../../../arm-none-eabi/lib/armv7e-m/fpu\libm.a(lib_a-w_fmod.o) (matherr)
c:/program files/gnu tools arm embedded/4.6 2012q2/bin/../lib/gcc/arm-none-eabi/4.6.2/../../../../arm-none-eabi/lib/armv7e-m/fpu\libm.a(lib_a-s_nan.o)
                              c:/program files/gnu tools arm embedded/4.6 2012q2/bin/../lib/gcc/arm-none-eabi/4.6.2/../../../../arm-none-eabi/lib/armv7e-m/fpu\libm.a(lib_a-w_log.o) (nan)
c:/program files/gnu tools arm embedded/4.6 2012q2/bin/../lib/gcc/arm-none-eabi/4.6.2/armv7e-m/fpu\libgcc.a(_arm_addsubdf3.o)
                              obj\.\src\PSK_Det.o (__aeabi_dsub)
c:/program files/gnu tools arm embedded/4.6 2012q2/bin/../lib/gcc/arm-none-eabi/4.6.2/armv7e-m/fpu\libgcc.a(_arm_muldivdf3.o)
                              obj\.\src\DMA_IRQ_Handler.o (__aeabi_dmul)
c:/program files/gnu tools arm embedded/4.6 2012q2/bin/../lib/gcc/arm-none-eabi/4.6.2/armv7e-m/fpu\libgcc.a(_arm_cmpdf2.o)
                              obj\.\src\Encoder_1.o (__aeabi_dcmpeq)
c:/program files/gnu tools arm embedded/4.6 2012q2/bin/../lib/gcc/arm-none-eabi/4.6.2/armv7e-m/fpu\libgcc.a(_arm_fixdfsi.o)
                              obj\.\src\DMA_IRQ_Handler.o (__aeabi_d2iz)
c:/program files/gnu tools arm embedded/4.6 2012q2/bin/../lib/gcc/arm-none-eabi/4.6.2/armv7e-m/fpu\libgcc.a(_arm_fixunsdfsi.o)
                              obj\.\src\Encoder_1.o (__aeabi_d2uiz)
c:/program files/gnu tools arm embedded/4.6 2012q2/bin/../lib/gcc/arm-none-eabi/4.6.2/armv7e-m/fpu\libgcc.a(_arm_truncdfsf2.o)
                              obj\.\src\TFT_Display.o (__aeabi_d2f)
c:/program files/gnu tools arm embedded/4.6 2012q2/bin/../lib/gcc/arm-none-eabi/4.6.2/../../../../arm-none-eabi/lib/armv7e-m/fpu\libc.a(lib_a-errno.o)
                              c:/program files/gnu tools arm embedded/4.6 2012q2/bin/../lib/gcc/arm-none-eabi/4.6.2/../../../../arm-none-eabi/lib/armv7e-m/fpu\libm.a(lib_a-w_fmod.o) (__errno)
c:/program files/gnu tools arm embedded/4.6 2012q2/bin/../lib/gcc/arm-none-eabi/4.6.2/../../../../arm-none-eabi/lib/armv7e-m/fpu\libc.a(lib_a-impure.o)
                              c:/program files/gnu tools arm embedded/4.6 2012q2/bin/../lib/gcc/arm-none-eabi/4.6.2/../../../../arm-none-eabi/lib/armv7e-m/fpu\libc.a(lib_a-errno.o) (_impure_ptr)
c:/program files/gnu tools arm embedded/4.6 2012q2/bin/../lib/gcc/arm-none-eabi/4.6.2/../../../../arm-none-eabi/lib/armv7e-m/fpu\libc.a(lib_a-memcpy.o)
                              obj\.\src\AsciiLib.o (memcpy)
c:/program files/gnu tools arm embedded/4.6 2012q2/bin/../lib/gcc/arm-none-eabi/4.6.2/../../../../arm-none-eabi/lib/armv7e-m/fpu\libc.a(lib_a-memset.o)
                              obj\.\src\touch_pad.o (memset)

Allocating common symbols
Common symbol       size              file

m_PSKPeriodUpdate   0x8               obj\.\src\PSK_Det.o
RFREQ_FRAC          0x4               obj\.\src\Encoder_1.o
Freq_Max            0x4               obj\.\src\Encoder_1.o
Filter_delay_I4     0x82              obj\.\src\DMA_IRQ_Handler.o
si570_read          0x6               obj\.\src\Encoder_1.o
m_FreqSignal        0x10              obj\.\src\DMA_IRQ_Handler.o
rgain               0x4               obj\.\src\ChangeOver.o
HID_Report          0x48              obj\.\externals\SM32F4-Discovery\USB\src\usbh_hid_core.o
HSEStartUpStatus    0x1               obj\.\src\usb_bsp.o
old_SS2_position    0x2               obj\.\src\main.o
Freq_Disp           0x4               obj\.\src\eeprom.o
Filter_delay_Q3     0x82              obj\.\src\DMA_IRQ_Handler.o
TIM_TimeBaseStructure
                    0xc               obj\.\src\TFT_Display.o
kybd_string         0x28              obj\.\src\Keyboard_Input.o
FFT_Test            0x400             obj\.\src\DSP_Processing.o
DataMax             0x20              obj\.\src\ChangeOver.o
Y_Point             0x2               obj\.\src\main.o
m_z2                0x10              obj\.\src\DMA_IRQ_Handler.o
FIR_I_Out           0x400             obj\.\src\DMA_IRQ_Handler.o
m_z1                0x10              obj\.\src\DMA_IRQ_Handler.o
Sample_Frequency    0x4               obj\.\src\DMA_IRQ_Handler.o
EEProm_Value1       0x4               obj\.\src\eeprom.o
m_IQPhzIndex        0x4               obj\.\src\DMA_IRQ_Handler.o
LCD_buffer          0x28              obj\.\src\DMA_IRQ_Handler.o
ADC_Buffer          0x400             obj\.\src\DMA_IRQ_Handler.o
phase_adjust        0x4               obj\.\src\ChangeOver.o
FIR_State_I         0x4fe             obj\.\src\DSP_Processing.o
m_PSKmode           0x4               obj\.\src\DMA_IRQ_Handler.o
m_ClkErrCounter     0x4               obj\.\src\DMA_IRQ_Handler.o
m_BitPhaseInc       0x8               obj\.\src\DMA_IRQ_Handler.o
FFT_Magnitude       0x200             obj\.\src\DMA_IRQ_Handler.o
m_VcoPhz            0x8               obj\.\src\DMA_IRQ_Handler.o
m_BitSignal         0x10              obj\.\src\DMA_IRQ_Handler.o
screen              0x4               obj\.\src\touch_pad.o
Filter_delay_I3     0x82              obj\.\src\DMA_IRQ_Handler.o
m_IMDValid          0x4               obj\.\src\DMA_IRQ_Handler.o
NCO_Frequency       0x8               obj\.\src\DMA_IRQ_Handler.o
m_SquelchSpeed      0x4               obj\.\src\DMA_IRQ_Handler.o
USB_Out             0x400             obj\.\src\DMA_IRQ_Handler.o
FIR_I_In            0x400             obj\.\src\DMA_IRQ_Handler.o
xfunc_out           0x4               obj\.\src\xprintf.o
N1                  0x4               obj\.\src\Encoder_1.o
USBH_CfgDesc        0x200             obj\.\externals\SM32F4-Discovery\USB\src\usbh_stdreq.o
m_AFCCaptureOn      0x4               obj\.\src\DMA_IRQ_Handler.o
char_count          0x4               obj\.\src\PSK_Det.o
PSK_Gain            0x4               obj\.\src\DMA_IRQ_Handler.o
Tx_Flag             0x2               obj\.\src\ChangeOver.o
FXTAL               0x8               obj\.\src\Encoder_1.o
m_SyncAve           0xa8              obj\.\src\DMA_IRQ_Handler.o
m_SQThresh          0x4               obj\.\src\DMA_IRQ_Handler.o
RFREQ               0x8               obj\.\src\Encoder_1.o
IQ_Unit             0x20              obj\.\src\ChangeOver.o
USB_OTG_Core_dev    0x5ac             obj\.\src\main.o
FFT_Scale           0x400             obj\.\src\DSP_Processing.o
FFT_Output          0x80              obj\.\src\main.o
DIR2                0x1               obj\.\src\Encoder_2.o
ENC_Sens2           0x2               obj\.\src\Encoder_2.o
FFT_status          0x1               obj\.\src\DSP_Processing.o
IQ                  0x10              obj\.\src\DMA_IRQ_Handler.o
S1                  0x4               obj\.\src\ChangeOver.o
CW_Gain             0x4               obj\.\src\ChangeOver.o
m_VaricodeDecTbl    0x800             obj\.\src\DMA_IRQ_Handler.o
DMA_RX_Memory       0x4               obj\.\src\DMA_IRQ_Handler.o
LSB_Out             0x400             obj\.\src\DMA_IRQ_Handler.o
T_lgain             0x4               obj\.\src\ChangeOver.o
m_SymbolRate        0x8               obj\.\src\ChangeOver.o
FOUT                0x4               obj\.\src\Encoder_1.o
m_OffCount          0x4               obj\.\src\DMA_IRQ_Handler.o
PSK_Tx              0x4               obj\.\src\DMA_IRQ_Handler.o
m_LastPkPos         0x4               obj\.\src\DMA_IRQ_Handler.o
x_NCOphzinc         0x8               obj\.\src\ChangeOver.o
m_PkPos             0x4               obj\.\src\DMA_IRQ_Handler.o
m_NCOphzinc         0x8               obj\.\src\DMA_IRQ_Handler.o
m_2PI               0x8               obj\.\src\ChangeOver.o
m_AFClimit          0x8               obj\.\src\DMA_IRQ_Handler.o
m_FastAFCMode       0x4               obj\.\src\DMA_IRQ_Handler.o
F0                  0x8               obj\.\src\Encoder_1.o
DSP_Flag            0x2               obj\.\src\ChangeOver.o
old_SS1_position    0x2               obj\.\src\main.o
Samp                0x10              obj\.\src\DMA_IRQ_Handler.o
HS_DIV              0x4               obj\.\src\Encoder_1.o
EEProm_Value        0x4               obj\.\src\Encoder_1.o
m_SampleFreq        0x8               obj\.\src\DMA_IRQ_Handler.o
i                   0x2               obj\.\src\DMA_IRQ_Handler.o
FIR_Q_In            0x400             obj\.\src\DMA_IRQ_Handler.o
m_AddEndingZero     0x4               obj\.\src\ChangeOver.o
IQ_Disp             0x2               obj\.\src\ChangeOver.o
m_RMSConstant       0x4               obj\.\src\ChangeOver.o
m_SampCnt           0x4               obj\.\src\DMA_IRQ_Handler.o
HID_Machine         0x54              obj\.\externals\SM32F4-Discovery\USB\src\usbh_hid_core.o
m_LastBitZero       0x4               obj\.\src\DMA_IRQ_Handler.o
m_SQLevel           0x4               obj\.\src\DMA_IRQ_Handler.o
R_lgain             0x4               obj\.\src\ChangeOver.o
m_IQPhaseArray      0x50              obj\.\src\DMA_IRQ_Handler.o
Filter_delay_I2     0x4c              obj\.\src\DMA_IRQ_Handler.o
DMA_TX_Memory       0x4               obj\.\src\DMA_IRQ_Handler.o
m_BitAcc            0x4               obj\.\src\DMA_IRQ_Handler.o
Tx1BufferDMA        0x800             obj\.\src\DMA_IRQ_Handler.o
DataMin             0x20              obj\.\src\ChangeOver.o
Rx1BufferDMA        0x800             obj\.\src\DMA_IRQ_Handler.o
R_xgain             0x4               obj\.\src\ChangeOver.o
m_I1                0x8               obj\.\src\DMA_IRQ_Handler.o
Filter_delay_Q4     0x82              obj\.\src\DMA_IRQ_Handler.o
X_Point             0x2               obj\.\src\main.o
SI570_Chk           0x1               obj\.\src\Encoder_1.o
TIM_OCInitStructure
                    0x14              obj\.\src\TFT_Display.o
m_QFreqError        0x8               obj\.\src\DMA_IRQ_Handler.o
Tx0BufferDMA        0x800             obj\.\src\DMA_IRQ_Handler.o
FFT_Display         0x100             obj\.\src\main.o
m_I0                0x8               obj\.\src\DMA_IRQ_Handler.o
PB_State            0x1               obj\.\src\User_Button.o
RFREQ_INT           0x4               obj\.\src\Encoder_1.o
m_OnCount           0x4               obj\.\src\DMA_IRQ_Handler.o
ENC_Sens1           0x2               obj\.\src\Encoder_1.o
FIR_Q_Out           0x400             obj\.\src\DMA_IRQ_Handler.o
newsamp             0x10              obj\.\src\DMA_IRQ_Handler.o
m_AGCave            0x8               obj\.\src\DMA_IRQ_Handler.o
key                 0x4               obj\.\src\DMA_IRQ_Handler.o
m_Pcnt              0x4               obj\.\src\DMA_IRQ_Handler.o
m_AFCmode           0x4               obj\.\src\DMA_IRQ_Handler.o
FIR_State_Q         0x4fe             obj\.\src\DSP_Processing.o
EEProm_Value2       0x2               obj\.\src\ChangeOver.o
count               0x4               obj\.\src\PSK_Det.o
read_SS2            0x2               obj\.\src\ChangeOver.o
S2                  0x4               obj\.\src\ChangeOver.o
Filter_delay_Q2     0x4c              obj\.\src\DMA_IRQ_Handler.o
m_FperrAve          0x8               obj\.\src\DMA_IRQ_Handler.o
Key_Down            0x1               obj\.\src\ChangeOver.o
m_Ncnt              0x4               obj\.\src\DMA_IRQ_Handler.o
m_FferrAve          0x8               obj\.\src\DMA_IRQ_Handler.o
m_SQOpen            0x4               obj\.\src\DMA_IRQ_Handler.o
HID_Desc            0xa               obj\.\externals\SM32F4-Discovery\USB\src\usbh_hid_core.o
read_SS1            0x2               obj\.\src\eeprom.o
Old_RFREQ           0x8               obj\.\src\Encoder_1.o
Freq_Min            0x4               obj\.\src\Encoder_1.o
S_CFFT              0x10              obj\.\src\DSP_Processing.o
m_Q0                0x8               obj\.\src\DMA_IRQ_Handler.o
m_NLPk              0x8               obj\.\src\DMA_IRQ_Handler.o
m_DevAve            0x8               obj\.\src\DMA_IRQ_Handler.o
Tab_State_Machine   0x64              obj\.\externals\SM32F4-Discovery\USB\src\usbh_core.o
m_AFCTimer          0x4               obj\.\src\DMA_IRQ_Handler.o
Freq_Set            0x40              obj\.\src\eeprom.o
T_xgain             0x4               obj\.\src\ChangeOver.o
Filter_delay_Q1     0x4c              obj\.\src\DMA_IRQ_Handler.o
m_NewPkPos          0x4               obj\.\src\DMA_IRQ_Handler.o
m_AFCmin            0x8               obj\.\src\DMA_IRQ_Handler.o
F_Mult              0x1               obj\.\src\eeprom.o
NVIC_InitStructure  0x4               obj\.\src\stm32f4_discovery.o
m_BitPos            0x4               obj\.\src\DMA_IRQ_Handler.o
IQData              0x20              obj\.\src\ChangeOver.o
m_SampleClkAdj      0x4               obj\.\src\DMA_IRQ_Handler.o
USB_Host            0x84              obj\.\src\main.o
m_BitPhasePos       0x8               obj\.\src\DMA_IRQ_Handler.o
EXTI_InitStructure  0x8               obj\.\src\Encoder_1.o
m_AFCmax            0x8               obj\.\src\DMA_IRQ_Handler.o
TouchFlag           0x2               obj\.\src\main.o
Filter_delay_I1     0x4c              obj\.\src\DMA_IRQ_Handler.o
XmitBuffer          0x28              obj\.\src\PSKMod.o
m_ClkErrTimer       0x4               obj\.\src\DMA_IRQ_Handler.o
m_Q1                0x8               obj\.\src\DMA_IRQ_Handler.o
m_SyncArray         0x50              obj\.\src\DMA_IRQ_Handler.o
Rx0BufferDMA        0x800             obj\.\src\DMA_IRQ_Handler.o
sample              0x10              obj\.\src\DMA_IRQ_Handler.o
DIR1                0x1               obj\.\src\Encoder_1.o
HID_Setup           0x8               obj\.\externals\SM32F4-Discovery\USB\src\usbh_hid_core.o
m_TxShiftReg        0x2               obj\.\src\ChangeOver.o
m_ClkError          0x4               obj\.\src\DMA_IRQ_Handler.o
FFT_Input           0x400             obj\.\src\DMA_IRQ_Handler.o
m_FreqError         0x8               obj\.\src\DMA_IRQ_Handler.o
Flag                0x4               obj\.\src\DMA_IRQ_Handler.o

Memory Configuration

Name             Origin             Length             Attributes
FLASH            0x08000000         0x00100000         xr
RAMCCM           0x10000000         0x00010000         xrw
RAM              0x20000000         0x00020000         xrw
*default*        0x00000000         0xffffffff

Linker script and memory map

LOAD obj\.\startup\startup_stm32f4xx.o
LOAD obj\.\src\AsciiLib.o
LOAD obj\.\src\ChangeOver.o
LOAD obj\.\src\Codec_Gains.o
LOAD obj\.\src\CW_Mod.o
LOAD obj\.\src\DMA_IRQ_Handler.o
LOAD obj\.\src\DMA_Test_Pins.o
LOAD obj\.\src\DSP_Processing.o
LOAD obj\.\src\eeprom.o
LOAD obj\.\src\Encoder_1.o
LOAD obj\.\src\Encoder_2.o
LOAD obj\.\src\FIR_Coefficients.o
LOAD obj\.\src\Init_Codec.o
LOAD obj\.\src\Init_DMA.o
LOAD obj\.\src\Init_I2C.o
LOAD obj\.\src\Init_I2S.o
LOAD obj\.\src\Keyboard_Input.o
LOAD obj\.\src\main.o
LOAD obj\.\src\ModeSelect.o
LOAD obj\.\src\PSK_Det.o
LOAD obj\.\src\PSKMod.o
LOAD obj\.\src\Si570.o
LOAD obj\.\src\Sine_table.o
LOAD obj\.\src\stm32f4_discovery.o
LOAD obj\.\src\stm32f4xx_it.o
LOAD obj\.\src\system_stm32f4xx.o
LOAD obj\.\src\TFT_Display.o
LOAD obj\.\src\touch_pad.o
LOAD obj\.\src\uart.o
LOAD obj\.\src\usb_bsp.o
LOAD obj\.\src\usbh_usr.o
LOAD obj\.\src\User_Button.o
LOAD obj\.\src\xprintf.o
LOAD obj\.\externals\SM32F4-Discovery\USB\src\misc.o
LOAD obj\.\externals\SM32F4-Discovery\USB\src\usb_core.o
LOAD obj\.\externals\SM32F4-Discovery\USB\src\usb_hcd.o
LOAD obj\.\externals\SM32F4-Discovery\USB\src\usb_hcd_int.o
LOAD obj\.\externals\SM32F4-Discovery\USB\src\usbh_core.o
LOAD obj\.\externals\SM32F4-Discovery\USB\src\usbh_hcs.o
LOAD obj\.\externals\SM32F4-Discovery\USB\src\usbh_hid_core.o
LOAD obj\.\externals\SM32F4-Discovery\USB\src\usbh_hid_keybd.o
LOAD obj\.\externals\SM32F4-Discovery\USB\src\usbh_ioreq.o
LOAD obj\.\externals\SM32F4-Discovery\USB\src\usbh_stdreq.o
LOAD .\externals\libs\libstm32f4xx_peripherals.a
LOAD .\externals\libs\libstm32f4xx_math.a
LOAD c:/program files/gnu tools arm embedded/4.6 2012q2/bin/../lib/gcc/arm-none-eabi/4.6.2/../../../../arm-none-eabi/lib/armv7e-m/fpu\libm.a
START GROUP
LOAD c:/program files/gnu tools arm embedded/4.6 2012q2/bin/../lib/gcc/arm-none-eabi/4.6.2/armv7e-m/fpu\libgcc.a
LOAD c:/program files/gnu tools arm embedded/4.6 2012q2/bin/../lib/gcc/arm-none-eabi/4.6.2/../../../../arm-none-eabi/lib/armv7e-m/fpu\libc.a
END GROUP
                0x20020000                top_of_stack = (ORIGIN (RAM) + 0x20000)
                0x00000000                Heap_Size = 0x0
                0x00000400                Stack_Size = 0x400

.Vector_Table   0x08000000      0x188
                0x08000000                . = ALIGN (0x4)
 *(.Vector_Table)
 .Vector_Table  0x08000000      0x188 obj\.\startup\startup_stm32f4xx.o
                0x08000000                Vector_Table
                0x08000188                . = ALIGN (0x4)

.text           0x08000188    0x19c58
                0x08000188                . = ALIGN (0x4)
 *(.text)
 .text          0x08000188       0x14 obj\.\startup\startup_stm32f4xx.o
 .text          0x0800019c       0x64 obj\.\src\AsciiLib.o
                0x0800019c                GetASCIICode1
                0x080001b0                GetASCIICode2
                0x080001c4                GetASCIICode3
                0x080001d8                GetASCIICode4
                0x080001ec                GetASCIICode5
 .text          0x08000200      0x1ac obj\.\src\ChangeOver.o
                0x08000200                Receive_Sequence
                0x08000250                Xmit_SSB_Sequence
                0x080002a8                Xmit_CW_Sequence
                0x08000300                Xmit_PSK_Sequence
                0x08000350                Init_PTT_IO
 .text          0x080003ac      0x24c obj\.\src\Codec_Gains.o
                0x080003ac                Set_HP_Gain
                0x080003e6                Set_LO_Gain
                0x08000420                Set_PGA_Gain
                0x08000468                Set_DAC_DVC
                0x080004be                Set_ADC_DVC
                0x08000512                Turn_On_Bias
                0x08000538                Turn_Off_Bias
                0x0800055e                Disconnect_PGA
                0x08000594                Mute_HP
                0x08000598                Mute_LO
                0x0800059c                Connect_IQ_Inputs
                0x080005d2                Connect_Microphone_Input
 .text          0x080005f8       0x38 obj\.\src\CW_Mod.o
                0x080005f8                Init_CW_GPIO
 .text          0x08000630      0xb18 obj\.\src\DMA_IRQ_Handler.o
                0x08000630                Rcvr_DSP
                0x08000814                Xmit_SSB
                0x080009dc                Xmit_CW
                0x08000cdc                Xmit_PSK
                0x08001078                DMA1_Stream0_IRQHandler
 .text          0x08001148       0x34 obj\.\src\DMA_Test_Pins.o
                0x08001148                TEST_GPIO_Init
 .text          0x0800117c       0xd0 obj\.\src\DSP_Processing.o
                0x0800117c                Process_FIR_I
                0x08001198                Process_FIR_Q
                0x080011b4                Sideband_Demod
                0x080011f4                Process_FFT
 .text          0x0800124c      0x124 obj\.\src\eeprom.o
                0x0800124c                Write_Int_EEProm
                0x08001268                Read_Int_EEProm
                0x08001286                Write_Long_EEProm
                0x080012b8                Read_Long_EEProm
                0x080012f0                Store_SI570_Data
                0x08001310                Read_SI570_Data
                0x08001330                Store_IQ_Data
                0x08001350                Read_IQ_Data
 .text          0x08001370      0xa18 obj\.\src\Encoder_1.o
                0x08001370                Encoder1_GPIO_Config
                0x0800140c                Set_Initial_SI570_Data
                0x08001490                check_SS1
                0x080014ac                Increase_Step
                0x080014f0                Decrease_Step
                0x08001538                redrawFrequencyOnScreen
                0x08001550                process_SS1
                0x080018c8                process_encoder1
                0x08001c9c                init_encoder1
 .text          0x08001d88      0x990 obj\.\src\Encoder_2.o
                0x08001d88                Encoder2_GPIO_Config
                0x08001e08                Set_Initial_IQ_Data
                0x08001e38                Set_Minimums
                0x08001e70                Set_Maximums
                0x08001ea8                Set_IQ_Units
                0x08001ed8                check_SS2
                0x08001ef4                process_encoder2
                0x08002470                process_SS2
                0x080025d4                init_encoder2
                0x080026d8                Store_Defaults
 .text          0x08002718        0x0 obj\.\src\FIR_Coefficients.o
 .text          0x08002718      0x334 obj\.\src\Init_Codec.o
                0x08002718                Codec_GPIO_Init
                0x08002748                Codec_Reset
                0x08002770                Codec_Init
 .text          0x08002a4c      0x148 obj\.\src\Init_DMA.o
                0x08002a4c                Audio_DMA_Init
                0x08002b84                Audio_DMA_Start
 .text          0x08002b94      0x7c8 obj\.\src\Init_I2C.o
                0x08002b94                I2C_GPIO_Init
                0x08002be0                I2C_Cntrl_Init
                0x08002c40                I2C_WriteRegister
                0x08002d60                I2C_WriteRegister_N
                0x08002e8c                I2C_ReadSlave
                0x08003034                I2C_ReadEEProm
                0x08003208                Delay
                0x08003224                I2C_WriteEEProm
 .text          0x0800335c       0xd4 obj\.\src\Init_I2S.o
                0x0800335c                I2S_GPIO_Init
                0x080033cc                Codec_AudioInterface_Init
 .text          0x08003430       0xb8 obj\.\src\Keyboard_Input.o
                0x08003430                kybd_addCharacter
                0x08003478                String2Buffer
                0x0800348c                kybd_dispFunctionKey
 .text          0x080034e8      0x1c0 obj\.\src\main.o
                0x080034e8                main_delay
                0x08003504                displaySplashScreen
                0x0800353c                initializeHardware
 .text          0x080036a8       0xac obj\.\src\ModeSelect.o
                0x080036a8                Init_Mode
                0x0800370c                Set_Mode_Display
 *fill*         0x08003754        0x4 00
 .text          0x08003758     0x1630 obj\.\src\PSK_Det.o
                0x08003758                SetSampleClkAdj
                0x080037f8                CPSKInitDet
                0x080038a0                SetRXFrequency
                0x08003978                SetAFCLimit
                0x08003a4c                ResetDetector
                0x08003ab4                InitPSK
                0x08003c3c                ResetModem
                0x08003c7c                CalcFFreqError
                0x08003eb4                CalcFreqError
                0x08004114                CalcAGC
                0x08004250                SymbSync
                0x08004480                CalcQuality
                0x08004860                DecodeSymb
                0x08004aac                ProcPSKDet
 .text          0x08004d88      0x1c0 obj\.\src\PSKMod.o
                0x08004d88                InitPSKModulator
                0x08004ddc                GetTxChar
                0x08004e28                GetNextBPSKSymbol
                0x08004e78                Update_PSK
                0x08004ef0                PSK_addCharToTx
                0x08004f1c                PSK_isQueueFull
                0x08004f30                PSK_isQueueEmpty
 .text          0x08004f48      0x4f8 obj\.\src\Si570.o
                0x08004f48                Recall_F0
                0x08004f76                Set_HS_DIV_N1
                0x0800507c                Pack_Si570_registers
                0x08005160                Unpack_Si570_registers
                0x0800520c                Check_SI570
                0x08005220                Read_Si570_registers
                0x0800523c                Compute_FXTAL
                0x080052a4                Large_RFREQ_Change
                0x08005318                Write_Si570_registers
                0x0800537c                Output_Frequency
                0x08005404                Si570_StartUp
 .text          0x08005440        0x0 obj\.\src\Sine_table.o
 .text          0x08005440      0x130 obj\.\src\stm32f4_discovery.o
                0x08005440                STM_EVAL_LEDInit
                0x08005484                STM_EVAL_LEDOn
                0x080054a0                STM_EVAL_LEDOff
                0x080054bc                STM_EVAL_LEDToggle
                0x080054dc                STM_EVAL_PBInit
                0x08005558                STM_EVAL_PBGetState
 .text          0x08005570       0x48 obj\.\src\stm32f4xx_it.o
                0x08005570                NMI_Handler
                0x08005572                HardFault_Handler
                0x08005574                MemManage_Handler
                0x08005576                BusFault_Handler
                0x08005578                UsageFault_Handler
                0x0800557a                SVC_Handler
                0x0800557c                DebugMon_Handler
                0x0800557e                PendSV_Handler
                0x08005580                SysTick_Handler
                0x08005582                EXTI1_IRQHandler
                0x080055a8                TIM2_IRQHandler
                0x080055ac                OTG_FS_IRQHandler
 .text          0x080055b8      0x198 obj\.\src\system_stm32f4xx.o
                0x080055b8                SystemInit
                0x080056dc                SystemCoreClockUpdate
 .text          0x08005750     0x11e0 obj\.\src\TFT_Display.o
                0x08005750                LCD_WriteRAM_Prepare
                0x0800575a                LCD_WriteRAM
                0x08005764                LCD_WriteReg
                0x08005772                LCD_DisplayOn
                0x08005786                LCD_DisplayOff
                0x08005798                LCD_SetColors
                0x080057c4                LCD_GetColors
                0x080057e0                LCD_SetTextColor
                0x080057f8                LCD_SetBackColor
                0x08005810                LCD_CharSize
                0x08005828                LCD_SetCursor
                0x08005840                PutPixel
                0x08005874                Pixel
                0x0800589e                LCD_PutChar
                0x08005ab4                LCD_StringLine
                0x08005b0c                LCD_DrawFFT
                0x08005bc4                LCD_DrawLine
                0x08005c34                LCD_DrawRect
                0x08005ca0                LCD_DrawSquare
                0x08005d0a                LCD_DrawCircle
                0x08005dd4                LCD_DrawFullRect
                0x08005e18                LCD_DrawFullSquare
                0x08005e54                LCD_DrawUniLine
                0x08005fa2                LCD_DrawFullCircle
                0x08006036                LCD_CtrlLinesConfig
                0x08006190                LCD_FSMCConfig
                0x080061fa                LCD_PolyLine
                0x08006226                LCD_ClosedPolyLine
                0x08006246                LCD_PolyLineRelative
                0x0800624a                LCD_ClosedPolyLineRelative
                0x0800624e                LCD_FillPolyLine
                0x08006424                LCD_BackLight
                0x08006460                TIM_Config
                0x08006534                LCD_SetDisplayWindow
                0x0800658c                TFT_Delay
                0x080065a8                LCD_Clear
                0x080065d4                LCD_Reset
                0x080065fc                LCD_Init
                0x080067e8                Plot_String
                0x08006808                Plot_Integer
                0x08006888                writeNumberToBuffer
                0x080068b2                numCharChangingByDial
                0x080068cc                Plot_Freq
 .text          0x08006930      0x748 obj\.\src\touch_pad.o
                0x080069dc                touch_init
                0x08006ae0                touch_interrupt_init
                0x08006b2c                Read_X
                0x08006b64                Read_Y
                0x08006b9c                TP_GetAdXY
                0x08006bb8                Read_Ads7846
                0x08006cfc                Draw_Touch_Point
                0x08006d78                GetTouchPoint
                0x08006ff8                EXTI9_5_IRQHandler
                0x08007070                TouchPanel_Calibrate
 .text          0x08007078      0x110 obj\.\src\uart.o
                0x08007078                uart_putc
                0x08007094                uart_init
                0x08007160                uart_deinit
                0x08007170                USART2_IRQHandler
 .text          0x08007188      0x214 obj\.\src\usb_bsp.o
                0x08007214                BSP_Init
                0x0800721c                USB_OTG_BSP_Init
                0x080072e0                USB_OTG_BSP_EnableInterrupt
                0x08007306                USB_OTG_BSP_DriveVBUS
                0x0800731c                USB_OTG_BSP_uDelay
                0x08007320                USB_OTG_BSP_mDelay
                0x08007324                USB_OTG_BSP_ConfigVBUS
                0x08007364                USB_OTG_BSP_TimerIRQ
 .text          0x0800739c       0x98 obj\.\src\usbh_usr.o
                0x0800739c                USB_debugEvent
                0x080073ac                USBH_USR_DeInit
                0x080073b2                USBH_USR_OverCurrentDetected
                0x080073b8                USBH_USR_UserInput
                0x080073c6                USBH_USR_DeviceNotSupported
                0x080073ca                USBH_USR_EnumerationDone
                0x080073ce                USBH_USR_SerialNum_String
                0x080073d2                USBH_USR_Product_String
                0x080073d6                USBH_USR_Manufacturer_String
                0x080073da                USBH_USR_Configuration_DescAvailable
                0x080073de                USBH_USR_DeviceAddressAssigned
                0x080073e2                USBH_USR_Device_DescAvailable
                0x080073e6                USBH_USR_DeviceSpeedDetected
                0x080073ea                USBH_USR_ResetDevice
                0x080073ee                USBH_USR_DeviceDisconnected
                0x080073f2                USBH_USR_UnrecoveredError
                0x080073f6                USBH_USR_DeviceAttached
                0x080073fa                USBH_USR_Init
                0x080073fe                USR_KEYBRD_Init
                0x08007404                USR_KEYBRD_ProcessData
 .text          0x08007434       0xb8 obj\.\src\User_Button.o
                0x08007434                User_Button_Config
                0x08007470                BT_Flag_Config
                0x080074a8                Check_BT_Flag
                0x080074c4                EXTI0_IRQHandler
 .text          0x080074ec      0x300 obj\.\src\xprintf.o
                0x080074ec                xputc
                0x0800751c                xputs
                0x080076d8                xfputs
                0x080076f8                xprintf
                0x08007710                xsprintf
                0x0800773c                xfprintf
                0x08007764                put_dump
 .text          0x080077ec       0xc0 obj\.\externals\SM32F4-Discovery\USB\src\misc.o
                0x080077ec                NVIC_PriorityGroupConfig
                0x08007800                NVIC_Init
                0x08007868                NVIC_SetVectorTable
                0x0800787c                NVIC_SystemLPConfig
                0x08007894                SysTick_CLKSourceConfig
 .text          0x080078ac      0x6ec obj\.\externals\SM32F4-Discovery\USB\src\usb_core.o
                0x080078f8                USB_OTG_WritePacket
                0x08007920                USB_OTG_ReadPacket
                0x08007944                USB_OTG_SelectCore
                0x08007a04                USB_OTG_CoreInit
                0x08007a90                USB_OTG_EnableGlobalInt
                0x08007a9e                USB_OTG_DisableGlobalInt
                0x08007aac                USB_OTG_FlushTxFifo
                0x08007ae8                USB_OTG_FlushRxFifo
                0x08007b1c                USB_OTG_SetCurrentMode
                0x08007b46                USB_OTG_GetMode
                0x08007b50                USB_OTG_IsDeviceMode
                0x08007b60                USB_OTG_IsHostMode
                0x08007b6a                USB_OTG_ReadCoreItr
                0x08007b74                USB_OTG_ReadOtgItr
                0x08007b7a                USB_OTG_IsEvenFrame
                0x08007b8a                USB_OTG_EnableHostInt
                0x08007bcc                USB_OTG_InitFSLSPClkSel
                0x08007bd8                USB_OTG_ReadHPRT0
                0x08007bf0                USB_OTG_DriveVbus
                0x08007c3c                USB_OTG_ReadHostAllChannels_intr
                0x08007c42                USB_OTG_ResetPort
                0x08007c6e                USB_OTG_CoreInitHost
                0x08007d04                USB_OTG_HC_Init
                0x08007dec                USB_OTG_HC_StartXfer
                0x08007ef4                USB_OTG_HC_Halt
                0x08007f2e                USB_OTG_HC_DoPing
                0x08007f56                USB_OTG_StopHost
 .text          0x08007f98       0xb6 obj\.\externals\SM32F4-Discovery\USB\src\usb_hcd.o
                0x08007f98                HCD_Init
                0x08007ff2                HCD_GetCurrentSpeed
                0x08007ffe                HCD_ResetPort
                0x08008008                HCD_IsDeviceConnected
                0x0800800e                HCD_GetCurrentFrame
                0x08008016                HCD_GetURB_State
                0x0800801e                HCD_GetXferCnt
                0x08008026                HCD_GetHCState
                0x0800802e                HCD_HC_Init
                0x08008036                HCD_SubmitRequest
 *fill*         0x0800804e        0x2 00
 .text          0x08008050     0x1534 obj\.\externals\SM32F4-Discovery\USB\src\usb_hcd_int.o
                0x08009440                USBH_OTG_ISR_Handler
 .text          0x08009584      0x5f8 obj\.\externals\SM32F4-Discovery\USB\src\usbh_core.o
                0x08009584                USBH_Connected
                0x0800958e                USBH_Disconnected
                0x08009598                USBH_SOF
                0x0800959c                USBH_DeInit
                0x080095ce                USBH_Init
                0x08009610                USBH_ErrorHandle
                0x0800963c                USBH_HandleControl
                0x080097f0                USBH_Process
 .text          0x08009b7c       0xf8 obj\.\externals\SM32F4-Discovery\USB\src\usbh_hcs.o
                0x08009b7c                USBH_Open_Channel
                0x08009bd2                USBH_Modify_Channel
                0x08009c0c                USBH_Alloc_Channel
                0x08009c3e                USBH_Free_Channel
                0x08009c56                USBH_DeAllocate_AllChannel
 .text          0x08009c74      0x318 obj\.\externals\SM32F4-Discovery\USB\src\usbh_hid_core.o
                0x08009f64                USBH_Set_Report
 .text          0x08009f8c       0xec obj\.\externals\SM32F4-Discovery\USB\src\usbh_hid_keybd.o
 .text          0x0800a078      0x22e obj\.\externals\SM32F4-Discovery\USB\src\usbh_ioreq.o
                0x0800a078                USBH_CtlReq
                0x0800a0c4                USBH_CtlSendSetup
                0x0800a0f2                USBH_CtlSendData
                0x0800a12e                USBH_CtlReceiveData
                0x0800a15a                USBH_BulkSendData
                0x0800a190                USBH_BulkReceiveData
                0x0800a1c6                USBH_InterruptReceiveData
                0x0800a208                USBH_InterruptSendData
                0x0800a24a                USBH_IsocReceiveData
                0x0800a278                USBH_IsocSendData
 *fill*         0x0800a2a6        0x2 00
 .text          0x0800a2a8      0x398 obj\.\externals\SM32F4-Discovery\USB\src\usbh_stdreq.o
                0x0800a2a8                USBH_GetDescriptor
                0x0800a2dc                USBH_Get_StringDesc
                0x0800a32c                USBH_Get_DevDesc
                0x0800a3d8                USBH_Get_CfgDesc
                0x0800a5b0                USBH_SetAddress
                0x0800a5ca                USBH_SetCfg
                0x0800a5e4                USBH_SetInterface
                0x0800a600                USBH_ClrFeature
                0x0800a632                USBH_GetNextDesc
 .text          0x0800a640      0x330 .\externals\libs\libstm32f4xx_peripherals.a(stm32f4xx_dma.o)
                0x0800a640                DMA_DeInit
                0x0800a758                DMA_Init
                0x0800a7ac                DMA_StructInit
                0x0800a7ce                DMA_Cmd
                0x0800a7e0                DMA_PeriphIncOffsetSizeConfig
                0x0800a7f2                DMA_FlowControllerConfig
                0x0800a804                DMA_SetCurrDataCounter
                0x0800a808                DMA_GetCurrDataCounter
                0x0800a80e                DMA_DoubleBufferModeConfig
                0x0800a822                DMA_DoubleBufferModeCmd
                0x0800a834                DMA_MemoryTargetConfig
                0x0800a83e                DMA_GetCurrentMemoryTarget
                0x0800a846                DMA_GetCmdStatus
                0x0800a84e                DMA_GetFIFOStatus
                0x0800a856                DMA_GetFlagStatus
                0x0800a88c                DMA_ClearFlag
                0x0800a8bc                DMA_ITConfig
                0x0800a8ea                DMA_GetITStatus
                0x0800a940                DMA_ClearITPendingBit
 .text          0x0800a970       0xf8 .\externals\libs\libstm32f4xx_peripherals.a(stm32f4xx_exti.o)
                0x0800a970                EXTI_DeInit
                0x0800a98c                EXTI_Init
                0x0800aa04                EXTI_StructInit
                0x0800aa12                EXTI_GenerateSWInterrupt
                0x0800aa20                EXTI_GetFlagStatus
                0x0800aa34                EXTI_ClearFlag
                0x0800aa40                EXTI_GetITStatus
                0x0800aa5c                EXTI_ClearITPendingBit
 .text          0x0800aa68      0x464 .\externals\libs\libstm32f4xx_peripherals.a(stm32f4xx_fsmc.o)
                0x0800aa68                FSMC_NORSRAMDeInit
                0x0800aa96                FSMC_NORSRAMInit
                0x0800ab48                FSMC_NORSRAMStructInit
                0x0800ab96                FSMC_NORSRAMCmd
                0x0800abb8                FSMC_NANDDeInit
                0x0800abe0                FSMC_NANDInit
                0x0800ac48                FSMC_NANDStructInit
                0x0800ac72                FSMC_NANDCmd
                0x0800aca4                FSMC_NANDECCCmd
                0x0800acd8                FSMC_GetECC
                0x0800acf0                FSMC_PCCARDDeInit
                0x0800ad0c                FSMC_PCCARDInit
                0x0800ad74                FSMC_PCCARDStructInit
                0x0800ad9e                FSMC_PCCARDCmd
                0x0800adbc                FSMC_ITConfig
                0x0800ae08                FSMC_GetFlagStatus
                0x0800ae34                FSMC_ClearFlag
                0x0800ae64                FSMC_GetITStatus
                0x0800ae98                FSMC_ClearITPendingBit
 .text          0x0800aecc      0x204 .\externals\libs\libstm32f4xx_peripherals.a(stm32f4xx_gpio.o)
                0x0800aecc                GPIO_DeInit
                0x0800afa4                GPIO_Init
                0x0800b02c                GPIO_StructInit
                0x0800b03e                GPIO_PinLockConfig
                0x0800b062                GPIO_ReadInputDataBit
                0x0800b06e                GPIO_ReadInputData
                0x0800b074                GPIO_ReadOutputDataBit
                0x0800b080                GPIO_ReadOutputData
                0x0800b086                GPIO_SetBits
                0x0800b08a                GPIO_ResetBits
                0x0800b08e                GPIO_WriteBit
                0x0800b098                GPIO_Write
                0x0800b09c                GPIO_ToggleBits
                0x0800b0a4                GPIO_PinAFConfig
 .text          0x0800b0d0      0x3d4 .\externals\libs\libstm32f4xx_peripherals.a(stm32f4xx_i2c.o)
                0x0800b0d0                I2C_DeInit
                0x0800b12c                I2C_Init
                0x0800b1f8                I2C_StructInit
                0x0800b214                I2C_Cmd
                0x0800b22c                I2C_GenerateSTART
                0x0800b244                I2C_GenerateSTOP
                0x0800b25c                I2C_Send7bitAddress
                0x0800b26c                I2C_AcknowledgeConfig
                0x0800b284                I2C_OwnAddress2Config
                0x0800b296                I2C_DualAddressCmd
                0x0800b2ae                I2C_GeneralCallCmd
                0x0800b2c6                I2C_SoftwareResetCmd
                0x0800b2de                I2C_StretchClockCmd
                0x0800b2f6                I2C_FastModeDutyCycleConfig
                0x0800b312                I2C_NACKPositionConfig
                0x0800b32e                I2C_SMBusAlertConfig
                0x0800b34a                I2C_ARPCmd
                0x0800b362                I2C_SendData
                0x0800b366                I2C_ReceiveData
                0x0800b36c                I2C_TransmitPEC
                0x0800b384                I2C_PECPositionConfig
                0x0800b3a0                I2C_CalculatePEC
                0x0800b3b8                I2C_GetPEC
                0x0800b3c0                I2C_DMACmd
                0x0800b3d8                I2C_DMALastTransferCmd
                0x0800b3f0                I2C_ReadRegister
                0x0800b408                I2C_ITConfig
                0x0800b41a                I2C_CheckEvent
                0x0800b434                I2C_GetLastEvent
                0x0800b444                I2C_GetFlagStatus
                0x0800b478                I2C_ClearFlag
                0x0800b480                I2C_GetITStatus
                0x0800b49c                I2C_ClearITPendingBit
 .text          0x0800b4a4      0x454 .\externals\libs\libstm32f4xx_peripherals.a(stm32f4xx_rcc.o)
                0x0800b4a4                RCC_DeInit
                0x0800b4d8                RCC_HSEConfig
                0x0800b4e8                RCC_AdjustHSICalibrationValue
                0x0800b4fc                RCC_HSICmd
                0x0800b508                RCC_LSEConfig
                0x0800b528                RCC_LSICmd
                0x0800b534                RCC_PLLConfig
                0x0800b554                RCC_PLLCmd
                0x0800b560                RCC_PLLI2SConfig
                0x0800b574                RCC_PLLI2SCmd
                0x0800b580                RCC_ClockSecuritySystemCmd
                0x0800b58c                RCC_MCO1Config
                0x0800b5a0                RCC_MCO2Config
                0x0800b5b4                RCC_SYSCLKConfig
                0x0800b5c8                RCC_GetSYSCLKSource
                0x0800b5d8                RCC_HCLKConfig
                0x0800b5ec                RCC_PCLK1Config
                0x0800b600                RCC_PCLK2Config
                0x0800b614                RCC_GetClocksFreq
                0x0800b6a0                RCC_RTCCLKConfig
                0x0800b6d0                RCC_RTCCLKCmd
                0x0800b6dc                RCC_BackupResetCmd
                0x0800b6e8                RCC_I2SCLKConfig
                0x0800b6f4                RCC_AHB1PeriphClockCmd
                0x0800b70c                RCC_AHB2PeriphClockCmd
                0x0800b724                RCC_AHB3PeriphClockCmd
                0x0800b73c                RCC_APB1PeriphClockCmd
                0x0800b754                RCC_APB2PeriphClockCmd
                0x0800b76c                RCC_AHB1PeriphResetCmd
                0x0800b784                RCC_AHB2PeriphResetCmd
                0x0800b79c                RCC_AHB3PeriphResetCmd
                0x0800b7b4                RCC_APB1PeriphResetCmd
                0x0800b7cc                RCC_APB2PeriphResetCmd
                0x0800b7e4                RCC_AHB1PeriphClockLPModeCmd
                0x0800b7fc                RCC_AHB2PeriphClockLPModeCmd
                0x0800b814                RCC_AHB3PeriphClockLPModeCmd
                0x0800b82c                RCC_APB1PeriphClockLPModeCmd
                0x0800b844                RCC_APB2PeriphClockLPModeCmd
                0x0800b85c                RCC_ITConfig
                0x0800b874                RCC_GetFlagStatus
                0x0800b89c                RCC_WaitForHSEStartUp
                0x0800b8c8                RCC_ClearFlag
                0x0800b8d8                RCC_GetITStatus
                0x0800b8ec                RCC_ClearITPendingBit
 .text          0x0800b8f8      0x354 .\externals\libs\libstm32f4xx_peripherals.a(stm32f4xx_spi.o)
                0x0800b8f8                SPI_I2S_DeInit
                0x0800b95c                SPI_Init
                0x0800b99a                I2S_Init
                0x0800ba68                SPI_StructInit
                0x0800ba80                I2S_StructInit
                0x0800ba92                SPI_Cmd
                0x0800baaa                I2S_Cmd
                0x0800bac2                SPI_DataSizeConfig
                0x0800bad8                SPI_BiDirectionalLineConfig
                0x0800baf4                SPI_NSSInternalSoftwareConfig
                0x0800bb12                SPI_SSOutputCmd
                0x0800bb2a                SPI_TIModeCmd
                0x0800bb42                I2S_FullDuplexConfig
                0x0800bb8c                SPI_I2S_ReceiveData
                0x0800bb92                SPI_I2S_SendData
                0x0800bb96                SPI_CalculateCRC
                0x0800bbae                SPI_TransmitCRC
                0x0800bbba                SPI_GetCRC
                0x0800bbca                SPI_GetCRCPolynomial
                0x0800bbd0                SPI_I2S_DMACmd
                0x0800bbe2                SPI_I2S_ITConfig
                0x0800bc00                SPI_I2S_GetFlagStatus
                0x0800bc0c                SPI_I2S_ClearFlag
                0x0800bc14                SPI_I2S_GetITStatus
                0x0800bc3a                SPI_I2S_ClearITPendingBit
 .text          0x0800bc4c       0x80 .\externals\libs\libstm32f4xx_peripherals.a(stm32f4xx_syscfg.o)
                0x0800bc4c                SYSCFG_DeInit
                0x0800bc66                SYSCFG_MemoryRemapConfig
                0x0800bc70                SYSCFG_EXTILineConfig
                0x0800bca4                SYSCFG_ETH_MediaInterfaceConfig
                0x0800bcb0                SYSCFG_CompensationCellCmd
                0x0800bcbc                SYSCFG_GetCompensationCellStatus
 .text          0x0800bccc      0xb0c .\externals\libs\libstm32f4xx_peripherals.a(stm32f4xx_tim.o)
                0x0800bd38                TIM_DeInit
                0x0800be8c                TIM_TimeBaseInit
                0x0800bf08                TIM_TimeBaseStructInit
                0x0800bf1a                TIM_PrescalerConfig
                0x0800bf20                TIM_CounterModeConfig
                0x0800bf30                TIM_SetCounter
                0x0800bf34                TIM_SetAutoreload
                0x0800bf38                TIM_GetCounter
                0x0800bf3c                TIM_GetPrescaler
                0x0800bf42                TIM_UpdateDisableConfig
                0x0800bf5a                TIM_UpdateRequestConfig
                0x0800bf72                TIM_ARRPreloadConfig
                0x0800bf8a                TIM_SelectOnePulseMode
                0x0800bfa0                TIM_SetClockDivision
                0x0800bfb6                TIM_Cmd
                0x0800bfce                TIM_OC1Init
                0x0800c040                TIM_OC2Init
                0x0800c0c8                TIM_OC3Init
                0x0800c14c                TIM_OC4Init
                0x0800c1b4                TIM_OCStructInit
                0x0800c1c8                TIM_SelectOCxM
                0x0800c20e                TIM_SetCompare1
                0x0800c212                TIM_SetCompare2
                0x0800c216                TIM_SetCompare3
                0x0800c21a                TIM_SetCompare4
                0x0800c21e                TIM_ForcedOC1Config
                0x0800c22e                TIM_ForcedOC2Config
                0x0800c242                TIM_ForcedOC3Config
                0x0800c252                TIM_ForcedOC4Config
                0x0800c266                TIM_OC1PreloadConfig
                0x0800c276                TIM_OC2PreloadConfig
                0x0800c28a                TIM_OC3PreloadConfig
                0x0800c29a                TIM_OC4PreloadConfig
                0x0800c2ae                TIM_OC1FastConfig
                0x0800c2be                TIM_OC2FastConfig
                0x0800c2d2                TIM_OC3FastConfig
                0x0800c2e2                TIM_OC4FastConfig
                0x0800c2f6                TIM_ClearOC1Ref
                0x0800c306                TIM_ClearOC2Ref
                0x0800c316                TIM_ClearOC3Ref
                0x0800c326                TIM_ClearOC4Ref
                0x0800c336                TIM_OC1PolarityConfig
                0x0800c346                TIM_OC1NPolarityConfig
                0x0800c356                TIM_OC2PolarityConfig
                0x0800c36a                TIM_OC2NPolarityConfig
                0x0800c37e                TIM_OC3PolarityConfig
                0x0800c392                TIM_OC3NPolarityConfig
                0x0800c3a6                TIM_OC4PolarityConfig
                0x0800c3ba                TIM_CCxCmd
                0x0800c3d8                TIM_CCxNCmd
                0x0800c3f6                TIM_ICStructInit
                0x0800c406                TIM_GetCapture1
                0x0800c40a                TIM_GetCapture2
                0x0800c40e                TIM_GetCapture3
                0x0800c412                TIM_GetCapture4
                0x0800c416                TIM_SetIC1Prescaler
                0x0800c42c                TIM_SetIC2Prescaler
                0x0800c446                TIM_PWMIConfig
                0x0800c4b0                TIM_SetIC3Prescaler
                0x0800c4c6                TIM_SetIC4Prescaler
                0x0800c4e0                TIM_ICInit
                0x0800c596                TIM_BDTRConfig
                0x0800c5b8                TIM_BDTRStructInit
                0x0800c5ca                TIM_CtrlPWMOutputs
                0x0800c5e6                TIM_SelectCOM
                0x0800c5fe                TIM_CCPreloadControl
                0x0800c616                TIM_ITConfig
                0x0800c628                TIM_GenerateEvent
                0x0800c62c                TIM_GetFlagStatus
                0x0800c638                TIM_ClearFlag
                0x0800c640                TIM_GetITStatus
                0x0800c656                TIM_ClearITPendingBit
                0x0800c65e                TIM_DMAConfig
                0x0800c666                TIM_DMACmd
                0x0800c678                TIM_SelectCCDMA
                0x0800c690                TIM_InternalClockConfig
                0x0800c69e                TIM_ITRxExternalClockConfig
                0x0800c6b8                TIM_TIxExternalClockConfig
                0x0800c6ea                TIM_SelectInputTrigger
                0x0800c6fa                TIM_SelectOutputTrigger
                0x0800c710                TIM_SelectSlaveMode
                0x0800c726                TIM_SelectMasterSlaveMode
                0x0800c73c                TIM_ETRConfig
                0x0800c750                TIM_ETRClockMode2Config
                0x0800c764                TIM_ETRClockMode1Config
                0x0800c77e                TIM_EncoderInterfaceConfig
                0x0800c7ba                TIM_SelectHallSensor
                0x0800c7d2                TIM_RemapConfig
 .text          0x0800c7d8      0x3b8 .\externals\libs\libstm32f4xx_peripherals.a(stm32f4xx_usart.o)
                0x0800c7d8                USART_DeInit
                0x0800c880                USART_Init
                0x0800c938                USART_StructInit
                0x0800c94e                USART_ClockInit
                0x0800c96e                USART_ClockStructInit
                0x0800c97a                USART_Cmd
                0x0800c992                USART_SetPrescaler
                0x0800c9a4                USART_OverSampling8Cmd
                0x0800c9bc                USART_OneBitMethodCmd
                0x0800c9d4                USART_SendData
                0x0800c9dc                USART_ReceiveData
                0x0800c9e4                USART_SetAddress
                0x0800c9fa                USART_ReceiverWakeUpCmd
                0x0800ca12                USART_WakeUpConfig
                0x0800ca28                USART_LINBreakDetectLengthConfig
                0x0800ca3e                USART_LINCmd
                0x0800ca56                USART_SendBreak
                0x0800ca62                USART_HalfDuplexCmd
                0x0800ca7a                USART_SetGuardTime
                0x0800ca8c                USART_SmartCardCmd
                0x0800caa4                USART_SmartCardNACKCmd
                0x0800cabc                USART_IrDAConfig
                0x0800cad2                USART_IrDACmd
                0x0800caea                USART_DMACmd
                0x0800cafc                USART_ITConfig
                0x0800cb2e                USART_GetFlagStatus
                0x0800cb3a                USART_ClearFlag
                0x0800cb42                USART_GetITStatus
                0x0800cb80                USART_ClearITPendingBit
 .text          0x0800cb90       0xdc .\externals\libs\libstm32f4xx_math.a(arm_cmplx_mag_squared_q15.o)
                0x0800cb90                arm_cmplx_mag_squared_q15
 .text          0x0800cc6c      0x100 .\externals\libs\libstm32f4xx_math.a(arm_shift_q15.o)
                0x0800cc6c                arm_shift_q15
 .text          0x0800cd6c      0x164 .\externals\libs\libstm32f4xx_math.a(arm_fir_decimate_q15.o)
                0x0800cd6c                arm_fir_decimate_q15
 .text          0x0800ced0      0x376 .\externals\libs\libstm32f4xx_math.a(arm_fir_q15.o)
                0x0800ced0                arm_fir_q15
 .text          0x0800d246      0x7be .\externals\libs\libstm32f4xx_math.a(arm_cfft_radix4_q15.o)
                0x0800d246                arm_radix4_butterfly_q15
                0x0800d5da                arm_radix4_butterfly_inverse_q15
                0x0800d96e                arm_bitreversal_q15
                0x0800d9d0                arm_cfft_radix4_q15
 .text          0x0800da04       0x6c .\externals\libs\libstm32f4xx_math.a(arm_cfft_radix4_init_q15.o)
                0x0800da04                arm_cfft_radix4_init_q15
 .text          0x0800da70        0x0 .\externals\libs\libstm32f4xx_math.a(arm_common_tables.o)
 .text          0x0800da70        0x0 c:/program files/gnu tools arm embedded/4.6 2012q2/bin/../lib/gcc/arm-none-eabi/4.6.2/../../../../arm-none-eabi/lib/armv7e-m/fpu\libm.a(lib_a-w_atan2.o)
 .text          0x0800da70        0x0 c:/program files/gnu tools arm embedded/4.6 2012q2/bin/../lib/gcc/arm-none-eabi/4.6.2/../../../../arm-none-eabi/lib/armv7e-m/fpu\libm.a(lib_a-w_fmod.o)
 .text          0x0800da70        0x0 c:/program files/gnu tools arm embedded/4.6 2012q2/bin/../lib/gcc/arm-none-eabi/4.6.2/../../../../arm-none-eabi/lib/armv7e-m/fpu\libm.a(lib_a-w_log.o)
 .text          0x0800da70        0x0 c:/program files/gnu tools arm embedded/4.6 2012q2/bin/../lib/gcc/arm-none-eabi/4.6.2/../../../../arm-none-eabi/lib/armv7e-m/fpu\libm.a(lib_a-w_sqrt.o)
 .text          0x0800da70        0x0 c:/program files/gnu tools arm embedded/4.6 2012q2/bin/../lib/gcc/arm-none-eabi/4.6.2/../../../../arm-none-eabi/lib/armv7e-m/fpu\libm.a(lib_a-e_atan2.o)
 .text          0x0800da70        0x0 c:/program files/gnu tools arm embedded/4.6 2012q2/bin/../lib/gcc/arm-none-eabi/4.6.2/../../../../arm-none-eabi/lib/armv7e-m/fpu\libm.a(lib_a-e_fmod.o)
 .text          0x0800da70        0x0 c:/program files/gnu tools arm embedded/4.6 2012q2/bin/../lib/gcc/arm-none-eabi/4.6.2/../../../../arm-none-eabi/lib/armv7e-m/fpu\libm.a(lib_a-e_log.o)
 .text          0x0800da70        0x0 c:/program files/gnu tools arm embedded/4.6 2012q2/bin/../lib/gcc/arm-none-eabi/4.6.2/../../../../arm-none-eabi/lib/armv7e-m/fpu\libm.a(lib_a-e_sqrt.o)
 .text          0x0800da70        0x0 c:/program files/gnu tools arm embedded/4.6 2012q2/bin/../lib/gcc/arm-none-eabi/4.6.2/../../../../arm-none-eabi/lib/armv7e-m/fpu\libm.a(lib_a-s_atan.o)
 .text          0x0800da70        0x0 c:/program files/gnu tools arm embedded/4.6 2012q2/bin/../lib/gcc/arm-none-eabi/4.6.2/../../../../arm-none-eabi/lib/armv7e-m/fpu\libm.a(lib_a-s_fabs.o)
 .text          0x0800da70        0x0 c:/program files/gnu tools arm embedded/4.6 2012q2/bin/../lib/gcc/arm-none-eabi/4.6.2/../../../../arm-none-eabi/lib/armv7e-m/fpu\libm.a(lib_a-s_fpclassify.o)
 .text          0x0800da70        0x0 c:/program files/gnu tools arm embedded/4.6 2012q2/bin/../lib/gcc/arm-none-eabi/4.6.2/../../../../arm-none-eabi/lib/armv7e-m/fpu\libm.a(lib_a-s_lib_ver.o)
 .text          0x0800da70        0x0 c:/program files/gnu tools arm embedded/4.6 2012q2/bin/../lib/gcc/arm-none-eabi/4.6.2/../../../../arm-none-eabi/lib/armv7e-m/fpu\libm.a(lib_a-s_matherr.o)
 .text          0x0800da70        0x0 c:/program files/gnu tools arm embedded/4.6 2012q2/bin/../lib/gcc/arm-none-eabi/4.6.2/../../../../arm-none-eabi/lib/armv7e-m/fpu\libm.a(lib_a-s_nan.o)
 .text          0x0800da70      0x370 c:/program files/gnu tools arm embedded/4.6 2012q2/bin/../lib/gcc/arm-none-eabi/4.6.2/armv7e-m/fpu\libgcc.a(_arm_addsubdf3.o)
                0x0800da70                __aeabi_drsub
                0x0800da78                __aeabi_dsub
                0x0800da78                __subdf3
                0x0800da7c                __aeabi_dadd
                0x0800da7c                __adddf3
                0x0800dcf4                __floatunsidf
                0x0800dcf4                __aeabi_ui2d
                0x0800dd14                __floatsidf
                0x0800dd14                __aeabi_i2d
                0x0800dd38                __aeabi_f2d
                0x0800dd38                __extendsfdf2
                0x0800dd74                __floatundidf
                0x0800dd74                __aeabi_ul2d
                0x0800dd84                __floatdidf
                0x0800dd84                __aeabi_l2d
 .text          0x0800dde0      0x424 c:/program files/gnu tools arm embedded/4.6 2012q2/bin/../lib/gcc/arm-none-eabi/4.6.2/armv7e-m/fpu\libgcc.a(_arm_muldivdf3.o)
                0x0800dde0                __aeabi_dmul
                0x0800dde0                __muldf3
                0x0800e034                __divdf3
                0x0800e034                __aeabi_ddiv
 .text          0x0800e204      0x110 c:/program files/gnu tools arm embedded/4.6 2012q2/bin/../lib/gcc/arm-none-eabi/4.6.2/armv7e-m/fpu\libgcc.a(_arm_cmpdf2.o)
                0x0800e204                __gtdf2
                0x0800e204                __gedf2
                0x0800e20c                __ltdf2
                0x0800e20c                __ledf2
                0x0800e214                __nedf2
                0x0800e214                __eqdf2
                0x0800e214                __cmpdf2
                0x0800e290                __aeabi_cdrcmple
                0x0800e2a0                __aeabi_cdcmpeq
                0x0800e2a0                __aeabi_cdcmple
                0x0800e2b0                __aeabi_dcmpeq
                0x0800e2c4                __aeabi_dcmplt
                0x0800e2d8                __aeabi_dcmple
                0x0800e2ec                __aeabi_dcmpge
                0x0800e300                __aeabi_dcmpgt
 .text          0x0800e314       0x50 c:/program files/gnu tools arm embedded/4.6 2012q2/bin/../lib/gcc/arm-none-eabi/4.6.2/armv7e-m/fpu\libgcc.a(_arm_fixdfsi.o)
                0x0800e314                __aeabi_d2iz
                0x0800e314                __fixdfsi
 .text          0x0800e364       0x40 c:/program files/gnu tools arm embedded/4.6 2012q2/bin/../lib/gcc/arm-none-eabi/4.6.2/armv7e-m/fpu\libgcc.a(_arm_fixunsdfsi.o)
                0x0800e364                __aeabi_d2uiz
                0x0800e364                __fixunsdfsi
 .text          0x0800e3a4       0xa0 c:/program files/gnu tools arm embedded/4.6 2012q2/bin/../lib/gcc/arm-none-eabi/4.6.2/armv7e-m/fpu\libgcc.a(_arm_truncdfsf2.o)
                0x0800e3a4                __truncdfsf2
                0x0800e3a4                __aeabi_d2f
 .text          0x0800e444        0x0 c:/program files/gnu tools arm embedded/4.6 2012q2/bin/../lib/gcc/arm-none-eabi/4.6.2/../../../../arm-none-eabi/lib/armv7e-m/fpu\libc.a(lib_a-errno.o)
 .text          0x0800e444        0x0 c:/program files/gnu tools arm embedded/4.6 2012q2/bin/../lib/gcc/arm-none-eabi/4.6.2/../../../../arm-none-eabi/lib/armv7e-m/fpu\libc.a(lib_a-impure.o)
 .text          0x0800e444        0x0 c:/program files/gnu tools arm embedded/4.6 2012q2/bin/../lib/gcc/arm-none-eabi/4.6.2/../../../../arm-none-eabi/lib/armv7e-m/fpu\libc.a(lib_a-memcpy.o)
 .text          0x0800e444        0x0 c:/program files/gnu tools arm embedded/4.6 2012q2/bin/../lib/gcc/arm-none-eabi/4.6.2/../../../../arm-none-eabi/lib/armv7e-m/fpu\libc.a(lib_a-memset.o)
 *(.text*)
 .text.Reset_Vector
                0x0800e444       0x44 obj\.\startup\startup_stm32f4xx.o
                0x0800e444                Reset_Vector
 .text.Default_Handler
                0x0800e488        0x2 obj\.\startup\startup_stm32f4xx.o
                0x0800e488                RTC_Alarm_IRQHandler
                0x0800e488                HASH_RNG_IRQHandler
                0x0800e488                EXTI2_IRQHandler
                0x0800e488                TIM8_CC_IRQHandler
                0x0800e488                TIM1_CC_IRQHandler
                0x0800e488                DMA2_Stream5_IRQHandler
                0x0800e488                DMA1_Stream5_IRQHandler
                0x0800e488                PVD_IRQHandler
                0x0800e488                SDIO_IRQHandler
                0x0800e488                TAMP_STAMP_IRQHandler
                0x0800e488                CAN2_RX1_IRQHandler
                0x0800e488                EXTI3_IRQHandler
                0x0800e488                TIM8_TRG_COM_TIM14_IRQHandler
                0x0800e488                TIM1_UP_TIM10_IRQHandler
                0x0800e488                TIM8_UP_TIM13_IRQHandler
                0x0800e488                I2C3_ER_IRQHandler
                0x0800e488                I2C2_EV_IRQHandler
                0x0800e488                DMA1_Stream2_IRQHandler
                0x0800e488                CAN1_RX0_IRQHandler
                0x0800e488                FPU_IRQHandler
                0x0800e488                OTG_HS_WKUP_IRQHandler
                0x0800e488                CAN2_SCE_IRQHandler
                0x0800e488                DMA2_Stream2_IRQHandler
                0x0800e488                SPI1_IRQHandler
                0x0800e488                TIM6_DAC_IRQHandler
                0x0800e488                TIM1_BRK_TIM9_IRQHandler
                0x0800e488                DCMI_IRQHandler
                0x0800e488                CAN2_RX0_IRQHandler
                0x0800e488                DMA2_Stream3_IRQHandler
                0x0800e488                USART6_IRQHandler
                0x0800e488                USART3_IRQHandler
                0x0800e488                CRYP_IRQHandler
                0x0800e488                CAN1_RX1_IRQHandler
                0x0800e488                UART5_IRQHandler
                0x0800e488                DMA2_Stream0_IRQHandler
                0x0800e488                TIM4_IRQHandler
                0x0800e488                I2C1_EV_IRQHandler
                0x0800e488                DMA1_Stream6_IRQHandler
                0x0800e488                DMA1_Stream1_IRQHandler
                0x0800e488                UART4_IRQHandler
                0x0800e488                TIM3_IRQHandler
                0x0800e488                RCC_IRQHandler
                0x0800e488                TIM8_BRK_TIM12_IRQHandler
                0x0800e488                EXTI15_10_IRQHandler
                0x0800e488                ADC_IRQHandler
                0x0800e488                DMA1_Stream7_IRQHandler
                0x0800e488                TIM7_IRQHandler
                0x0800e488                CAN2_TX_IRQHandler
                0x0800e488                TIM5_IRQHandler
                0x0800e488                DMA2_Stream7_IRQHandler
                0x0800e488                I2C3_EV_IRQHandler
                0x0800e488                RTC_WKUP_IRQHandler
                0x0800e488                ETH_WKUP_IRQHandler
                0x0800e488                SPI2_IRQHandler
                0x0800e488                OTG_HS_EP1_IN_IRQHandler
                0x0800e488                CAN1_TX_IRQHandler
                0x0800e488                EXTI4_IRQHandler
                0x0800e488                FSMC_IRQHandler
                0x0800e488                ETH_IRQHandler
                0x0800e488                OTG_HS_EP1_OUT_IRQHandler
                0x0800e488                WWDG_IRQHandler
                0x0800e488                OTG_FS_WKUP_IRQHandler
                0x0800e488                TIM1_TRG_COM_TIM11_IRQHandler
                0x0800e488                OTG_HS_IRQHandler
                0x0800e488                I2C2_ER_IRQHandler
                0x0800e488                DMA2_Stream1_IRQHandler
                0x0800e488                CAN1_SCE_IRQHandler
                0x0800e488                FLASH_IRQHandler
                0x0800e488                DMA2_Stream4_IRQHandler
                0x0800e488                USART1_IRQHandler
                0x0800e488                SPI3_IRQHandler
                0x0800e488                DMA1_Stream4_IRQHandler
                0x0800e488                I2C1_ER_IRQHandler
                0x0800e488                DMA2_Stream6_IRQHandler
                0x0800e488                DMA1_Stream3_IRQHandler
 *fill*         0x0800e48a        0x2 00
 .text.startup  0x0800e48c      0x110 obj\.\src\main.o
                0x0800e48c                main
 .text.atan2    0x0800e59c        0x4 c:/program files/gnu tools arm embedded/4.6 2012q2/bin/../lib/gcc/arm-none-eabi/4.6.2/../../../../arm-none-eabi/lib/armv7e-m/fpu\libm.a(lib_a-w_atan2.o)
                0x0800e59c                atan2
 .text.fmod     0x0800e5a0       0xd0 c:/program files/gnu tools arm embedded/4.6 2012q2/bin/../lib/gcc/arm-none-eabi/4.6.2/../../../../arm-none-eabi/lib/armv7e-m/fpu\libm.a(lib_a-w_fmod.o)
                0x0800e5a0                fmod
 .text.log      0x0800e670      0x10c c:/program files/gnu tools arm embedded/4.6 2012q2/bin/../lib/gcc/arm-none-eabi/4.6.2/../../../../arm-none-eabi/lib/armv7e-m/fpu\libm.a(lib_a-w_log.o)
                0x0800e670                log
 .text.sqrt     0x0800e77c       0xbc c:/program files/gnu tools arm embedded/4.6 2012q2/bin/../lib/gcc/arm-none-eabi/4.6.2/../../../../arm-none-eabi/lib/armv7e-m/fpu\libm.a(lib_a-w_sqrt.o)
                0x0800e77c                sqrt
 .text.__ieee754_atan2
                0x0800e838      0x200 c:/program files/gnu tools arm embedded/4.6 2012q2/bin/../lib/gcc/arm-none-eabi/4.6.2/../../../../arm-none-eabi/lib/armv7e-m/fpu\libm.a(lib_a-e_atan2.o)
                0x0800e838                __ieee754_atan2
 .text.__ieee754_fmod
                0x0800ea38      0x2b8 c:/program files/gnu tools arm embedded/4.6 2012q2/bin/../lib/gcc/arm-none-eabi/4.6.2/../../../../arm-none-eabi/lib/armv7e-m/fpu\libm.a(lib_a-e_fmod.o)
                0x0800ea38                __ieee754_fmod
 .text.__ieee754_log
                0x0800ecf0      0x428 c:/program files/gnu tools arm embedded/4.6 2012q2/bin/../lib/gcc/arm-none-eabi/4.6.2/../../../../arm-none-eabi/lib/armv7e-m/fpu\libm.a(lib_a-e_log.o)
                0x0800ecf0                __ieee754_log
 .text.__ieee754_sqrt
                0x0800f118      0x1c4 c:/program files/gnu tools arm embedded/4.6 2012q2/bin/../lib/gcc/arm-none-eabi/4.6.2/../../../../arm-none-eabi/lib/armv7e-m/fpu\libm.a(lib_a-e_sqrt.o)
                0x0800f118                __ieee754_sqrt
 *fill*         0x0800f2dc        0x4 00
 .text.atan     0x0800f2e0      0x388 c:/program files/gnu tools arm embedded/4.6 2012q2/bin/../lib/gcc/arm-none-eabi/4.6.2/../../../../arm-none-eabi/lib/armv7e-m/fpu\libm.a(lib_a-s_atan.o)
                0x0800f2e0                atan
 .text.fabs     0x0800f668       0x14 c:/program files/gnu tools arm embedded/4.6 2012q2/bin/../lib/gcc/arm-none-eabi/4.6.2/../../../../arm-none-eabi/lib/armv7e-m/fpu\libm.a(lib_a-s_fabs.o)
                0x0800f668                fabs
 .text.__fpclassifyd
                0x0800f67c       0x70 c:/program files/gnu tools arm embedded/4.6 2012q2/bin/../lib/gcc/arm-none-eabi/4.6.2/../../../../arm-none-eabi/lib/armv7e-m/fpu\libm.a(lib_a-s_fpclassify.o)
                0x0800f67c                __fpclassifyd
 .text.matherr  0x0800f6ec        0x4 c:/program files/gnu tools arm embedded/4.6 2012q2/bin/../lib/gcc/arm-none-eabi/4.6.2/../../../../arm-none-eabi/lib/armv7e-m/fpu\libm.a(lib_a-s_matherr.o)
                0x0800f6ec                matherr
 .text.nan      0x0800f6f0       0x10 c:/program files/gnu tools arm embedded/4.6 2012q2/bin/../lib/gcc/arm-none-eabi/4.6.2/../../../../arm-none-eabi/lib/armv7e-m/fpu\libm.a(lib_a-s_nan.o)
                0x0800f6f0                nan
 .text.__errno  0x0800f700        0xc c:/program files/gnu tools arm embedded/4.6 2012q2/bin/../lib/gcc/arm-none-eabi/4.6.2/../../../../arm-none-eabi/lib/armv7e-m/fpu\libc.a(lib_a-errno.o)
                0x0800f700                __errno
 .text.memcpy   0x0800f70c       0x84 c:/program files/gnu tools arm embedded/4.6 2012q2/bin/../lib/gcc/arm-none-eabi/4.6.2/../../../../arm-none-eabi/lib/armv7e-m/fpu\libc.a(lib_a-memcpy.o)
                0x0800f70c                memcpy
 .text.memset   0x0800f790       0x90 c:/program files/gnu tools arm embedded/4.6 2012q2/bin/../lib/gcc/arm-none-eabi/4.6.2/../../../../arm-none-eabi/lib/armv7e-m/fpu\libc.a(lib_a-memset.o)
                0x0800f790                memset
 *(.rodata)
 .rodata        0x0800f820     0x2814 obj\.\src\AsciiLib.o
                0x0800ff8c                ASCII12x12
                0x08010e64                ASCII16x24
 .rodata        0x08012034        0xc obj\.\src\DMA_IRQ_Handler.o
                0x08012034                B
                0x08012038                A
                0x0801203c                Amp0
 .rodata        0x08012040       0x10 obj\.\src\Encoder_1.o
 .rodata        0x08012050       0x10 obj\.\src\Encoder_2.o
 .rodata        0x08012060        0x4 obj\.\src\main.o
                0x08012060                CODEC_FREQUENCY
 .rodata        0x08012064      0x440 obj\.\src\PSK_Det.o
                0x08012064                VARICODE_TABLE
                0x08012464                HALF_TBL
 .rodata        0x080124a4     0x207c obj\.\src\PSKMod.o
                0x080124a4                PSKShapeTbl
                0x080144a8                PSKPhaseLookupTable
 .rodata        0x08014520        0x8 obj\.\src\Si570.o
                0x08014520                HS_DIV_VALUE_char
                0x08014526                N1_VALUE_char
 .rodata        0x08014528     0x4000 obj\.\src\Sine_table.o
                0x08014528                Sine_table
 .rodata        0x08018528       0x28 obj\.\src\stm32f4_discovery.o
                0x08018528                GPIO_CLK
                0x08018538                GPIO_PIN
                0x08018540                BUTTON_IRQn
                0x08018541                BUTTON_PIN_SOURCE
                0x08018542                BUTTON_PORT_SOURCE
                0x08018544                BUTTON_EXTI_LINE
                0x08018548                BUTTON_CLK
                0x0801854c                BUTTON_PIN
 .rodata        0x08018550       0x18 obj\.\src\uart.o
                0x08018550                COM_RX_AF
                0x08018552                COM_TX_AF
                0x08018554                COM_RX_PIN_SOURCE
                0x08018556                COM_TX_PIN_SOURCE
                0x08018558                COM_RX_PIN
                0x0801855a                COM_TX_PIN
                0x0801855c                COM_RX_PORT_CLK
                0x08018560                COM_TX_PORT_CLK
                0x08018564                COM_USART_CLK
 .rodata        0x08018568      0x1ec obj\.\externals\SM32F4-Discovery\USB\src\usbh_hid_keybd.o
 .rodata        0x08018754     0x1000 .\externals\libs\libstm32f4xx_math.a(arm_cfft_radix4_init_q15.o)
 .rodata        0x08019754      0x380 .\externals\libs\libstm32f4xx_math.a(arm_common_tables.o)
                0x08019754                armRecipTableQ31
                0x08019854                armRecipTableQ15
                0x080198d4                armBitRevTable
 *(.rodata*)
 .rodata.str1.1
                0x08019ad4       0xbb obj\.\src\Encoder_1.o
 .rodata.str1.1
                0x08019b8f       0xc2 obj\.\src\Encoder_2.o
 .rodata.str1.1
                0x08019c51       0xa6 obj\.\src\Keyboard_Input.o
 .rodata.str1.1
                0x08019cf7       0x24 obj\.\src\main.o
 .rodata.str1.1
                0x08019d1b       0x11 obj\.\src\ModeSelect.o
                                 0x21 (size before relaxing)
 .rodata.str1.1
                0x08019d2c        0xb obj\.\src\TFT_Display.o
 .rodata.str1.1
                0x08019d37       0x1d obj\.\src\touch_pad.o
                                 0x24 (size before relaxing)
 .rodata.str1.1
                0x08019d54       0x1a obj\.\src\xprintf.o
 .rodata.str1.1
                0x08019d6e        0x4 obj\.\externals\SM32F4-Discovery\USB\src\usbh_core.o
 *fill*         0x08019d72        0x2 00
 .rodata.str1.4
                0x08019d74        0x5 c:/program files/gnu tools arm embedded/4.6 2012q2/bin/../lib/gcc/arm-none-eabi/4.6.2/../../../../arm-none-eabi/lib/armv7e-m/fpu\libm.a(lib_a-w_fmod.o)
                                  0x8 (size before relaxing)
 *fill*         0x08019d79        0x3 00
 .rodata.str1.4
                0x08019d7c        0x4 c:/program files/gnu tools arm embedded/4.6 2012q2/bin/../lib/gcc/arm-none-eabi/4.6.2/../../../../arm-none-eabi/lib/armv7e-m/fpu\libm.a(lib_a-w_log.o)
                                  0x8 (size before relaxing)
 .rodata.str1.4
                0x08019d80        0x5 c:/program files/gnu tools arm embedded/4.6 2012q2/bin/../lib/gcc/arm-none-eabi/4.6.2/../../../../arm-none-eabi/lib/armv7e-m/fpu\libm.a(lib_a-w_sqrt.o)
                                  0x8 (size before relaxing)
 *fill*         0x08019d85        0x3 00
 .rodata.Zero   0x08019d88       0x10 c:/program files/gnu tools arm embedded/4.6 2012q2/bin/../lib/gcc/arm-none-eabi/4.6.2/../../../../arm-none-eabi/lib/armv7e-m/fpu\libm.a(lib_a-e_fmod.o)
 .rodata.atanlo
                0x08019d98       0x20 c:/program files/gnu tools arm embedded/4.6 2012q2/bin/../lib/gcc/arm-none-eabi/4.6.2/../../../../arm-none-eabi/lib/armv7e-m/fpu\libm.a(lib_a-s_atan.o)
 .rodata.atanhi
                0x08019db8       0x20 c:/program files/gnu tools arm embedded/4.6 2012q2/bin/../lib/gcc/arm-none-eabi/4.6.2/../../../../arm-none-eabi/lib/armv7e-m/fpu\libm.a(lib_a-s_atan.o)
 .rodata.str1.4
                0x08019dd8        0x4 c:/program files/gnu tools arm embedded/4.6 2012q2/bin/../lib/gcc/arm-none-eabi/4.6.2/../../../../arm-none-eabi/lib/armv7e-m/fpu\libc.a(lib_a-impure.o)
 .rodata._global_impure_ptr
                0x08019ddc        0x4 c:/program files/gnu tools arm embedded/4.6 2012q2/bin/../lib/gcc/arm-none-eabi/4.6.2/../../../../arm-none-eabi/lib/armv7e-m/fpu\libc.a(lib_a-impure.o)
                0x08019ddc                _global_impure_ptr
 *(.glue_7)
 .glue_7        0x00000000        0x0 linker stubs
 *(.glue_7t)
 .glue_7t       0x00000000        0x0 linker stubs
 *(.eh_frame)
 *(.init)
 *(.fini)
                0x08019de0                . = ALIGN (0x4)
                0x08019de0                _end_of_code = .

.vfp11_veneer   0x08019de0        0x0
 .vfp11_veneer  0x00000000        0x0 linker stubs

.v4_bx          0x08019de0        0x0
 .v4_bx         0x00000000        0x0 linker stubs

.ARM.extab
 *(.ARM.extab* .gnu.linkonce.armextab.*)

.ARM            0x08019de0        0x0
                0x08019de0                __exidx_start = .
 *(.ARM.exidx*)
                0x08019de0                __exidx_end = .

.preinit_array  0x08019de0        0x0
                0x08019de0                PROVIDE (__preinit_array_start, .)
 *(.preinit_array*)
                0x08019de0                PROVIDE (__preinit_array_end, .)

.init_array     0x08019de0        0x0
                0x08019de0                PROVIDE (__init_array_start, .)
 *(SORT(.init_array.*))
 *(.init_array*)
                0x08019de0                PROVIDE (__init_array_end, .)

.fini_array     0x08019de0        0x0
                0x08019de0                PROVIDE (__fini_array_start, .)
 *(.fini_array*)
 *(SORT(.fini_array.*))
                0x08019de0                PROVIDE (__fini_array_end, .)
                0x08019de0                _sidata = .

.data           0x20000000      0x8bc load address 0x08019de0
                0x20000000                . = ALIGN (0x4)
                0x20000000                _sdata = .
 *(.data)
 .data          0x20000000        0x0 obj\.\startup\startup_stm32f4xx.o
 .data          0x20000000        0x0 obj\.\src\AsciiLib.o
 .data          0x20000000        0x0 obj\.\src\ChangeOver.o
 .data          0x20000000        0x0 obj\.\src\Codec_Gains.o
 .data          0x20000000        0x0 obj\.\src\CW_Mod.o
 .data          0x20000000        0x0 obj\.\src\DMA_IRQ_Handler.o
 .data          0x20000000        0x0 obj\.\src\DMA_Test_Pins.o
 .data          0x20000000       0x7c obj\.\src\DSP_Processing.o
                0x20000000                S_FIR_I
                0x2000000c                S_FIR_Q
                0x20000018                FFT_Size
                0x2000001c                Filter_Q4
                0x20000028                Filter_Q3
                0x20000034                Filter_Q2
                0x20000040                Filter_Q1
                0x2000004c                Filter_I4
                0x20000058                Filter_I3
                0x20000064                Filter_I2
                0x20000070                Filter_I1
 .data          0x2000007c        0x0 obj\.\src\eeprom.o
 .data          0x2000007c        0x4 obj\.\src\Encoder_1.o
                0x2000007c                F_Unit
 .data          0x20000080        0x0 obj\.\src\Encoder_2.o
 .data          0x20000080      0x34a obj\.\src\FIR_Coefficients.o
                0x20000080                FIRFreqCoef
                0x20000102                FIRBitCoef
                0x20000184                Dec4LPCoef
                0x200001ca                coeff_fir_Q
                0x200002ca                coeff_fir_I
 .data          0x200003ca        0x0 obj\.\src\Init_Codec.o
 .data          0x200003ca        0x0 obj\.\src\Init_DMA.o
 *fill*         0x200003ca        0x2 00
 .data          0x200003cc        0x4 obj\.\src\Init_I2C.o
                0x200003cc                Timeout
 .data          0x200003d0        0x0 obj\.\src\Init_I2S.o
 .data          0x200003d0        0x0 obj\.\src\Keyboard_Input.o
 .data          0x200003d0        0x0 obj\.\src\main.o
 .data          0x200003d0        0x0 obj\.\src\ModeSelect.o
 .data          0x200003d0        0x0 obj\.\src\PSK_Det.o
 .data          0x200003d0        0x0 obj\.\src\PSKMod.o
 .data          0x200003d0        0x0 obj\.\src\Si570.o
 .data          0x200003d0        0x0 obj\.\src\Sine_table.o
 .data          0x200003d0       0x14 obj\.\src\stm32f4_discovery.o
                0x200003d0                GPIO_PORT
                0x200003e0                BUTTON_PORT
 .data          0x200003e4        0x0 obj\.\src\stm32f4xx_it.o
 .data          0x200003e4       0x14 obj\.\src\system_stm32f4xx.o
                0x200003e4                SystemCoreClock
                0x200003e8                AHBPrescTable
 .data          0x200003f8        0x4 obj\.\src\TFT_Display.o
                0x200003f8                BackColor
                0x200003fa                asciisize
 .data          0x200003fc        0x0 obj\.\src\touch_pad.o
 .data          0x200003fc        0xc obj\.\src\uart.o
                0x200003fc                COM_TX_PORT
                0x20000400                COM_RX_PORT
                0x20000404                COM_USART
 .data          0x20000408        0x0 obj\.\src\usb_bsp.o
 .data          0x20000408       0x48 obj\.\src\usbh_usr.o
                0x20000408                USR_Callbacks
 .data          0x20000450        0x0 obj\.\src\User_Button.o
 .data          0x20000450        0x0 obj\.\src\xprintf.o
 .data          0x20000450        0x0 obj\.\externals\SM32F4-Discovery\USB\src\misc.o
 .data          0x20000450        0x0 obj\.\externals\SM32F4-Discovery\USB\src\usb_core.o
 .data          0x20000450        0x0 obj\.\externals\SM32F4-Discovery\USB\src\usb_hcd.o
 .data          0x20000450        0x0 obj\.\externals\SM32F4-Discovery\USB\src\usb_hcd_int.o
 .data          0x20000450       0x14 obj\.\externals\SM32F4-Discovery\USB\src\usbh_core.o
                0x20000450                Previous_status
                0x20000454                USBH_HCD_INT_fops
                0x20000458                USBH_HCD_INT_cb
 .data          0x20000464        0x0 obj\.\externals\SM32F4-Discovery\USB\src\usbh_hcs.o
 .data          0x20000464       0x10 obj\.\externals\SM32F4-Discovery\USB\src\usbh_hid_core.o
                0x20000464                HID_cb
 .data          0x20000474        0x8 obj\.\externals\SM32F4-Discovery\USB\src\usbh_hid_keybd.o
                0x20000474                HID_KEYBRD_cb
 .data          0x2000047c        0x0 obj\.\externals\SM32F4-Discovery\USB\src\usbh_ioreq.o
 .data          0x2000047c        0x0 obj\.\externals\SM32F4-Discovery\USB\src\usbh_stdreq.o
 .data          0x2000047c        0x0 .\externals\libs\libstm32f4xx_peripherals.a(stm32f4xx_dma.o)
 .data          0x2000047c        0x0 .\externals\libs\libstm32f4xx_peripherals.a(stm32f4xx_exti.o)
 .data          0x2000047c        0x0 .\externals\libs\libstm32f4xx_peripherals.a(stm32f4xx_fsmc.o)
 .data          0x2000047c        0x0 .\externals\libs\libstm32f4xx_peripherals.a(stm32f4xx_gpio.o)
 .data          0x2000047c        0x0 .\externals\libs\libstm32f4xx_peripherals.a(stm32f4xx_i2c.o)
 .data          0x2000047c       0x10 .\externals\libs\libstm32f4xx_peripherals.a(stm32f4xx_rcc.o)
 .data          0x2000048c        0x0 .\externals\libs\libstm32f4xx_peripherals.a(stm32f4xx_spi.o)
 .data          0x2000048c        0x0 .\externals\libs\libstm32f4xx_peripherals.a(stm32f4xx_syscfg.o)
 .data          0x2000048c        0x0 .\externals\libs\libstm32f4xx_peripherals.a(stm32f4xx_tim.o)
 .data          0x2000048c        0x0 .\externals\libs\libstm32f4xx_peripherals.a(stm32f4xx_usart.o)
 .data          0x2000048c        0x0 .\externals\libs\libstm32f4xx_math.a(arm_cmplx_mag_squared_q15.o)
 .data          0x2000048c        0x0 .\externals\libs\libstm32f4xx_math.a(arm_shift_q15.o)
 .data          0x2000048c        0x0 .\externals\libs\libstm32f4xx_math.a(arm_fir_decimate_q15.o)
 .data          0x2000048c        0x0 .\externals\libs\libstm32f4xx_math.a(arm_fir_q15.o)
 .data          0x2000048c        0x0 .\externals\libs\libstm32f4xx_math.a(arm_cfft_radix4_q15.o)
 .data          0x2000048c        0x0 .\externals\libs\libstm32f4xx_math.a(arm_cfft_radix4_init_q15.o)
 .data          0x2000048c        0x0 .\externals\libs\libstm32f4xx_math.a(arm_common_tables.o)
 .data          0x2000048c        0x0 c:/program files/gnu tools arm embedded/4.6 2012q2/bin/../lib/gcc/arm-none-eabi/4.6.2/../../../../arm-none-eabi/lib/armv7e-m/fpu\libm.a(lib_a-w_atan2.o)
 .data          0x2000048c        0x0 c:/program files/gnu tools arm embedded/4.6 2012q2/bin/../lib/gcc/arm-none-eabi/4.6.2/../../../../arm-none-eabi/lib/armv7e-m/fpu\libm.a(lib_a-w_fmod.o)
 .data          0x2000048c        0x0 c:/program files/gnu tools arm embedded/4.6 2012q2/bin/../lib/gcc/arm-none-eabi/4.6.2/../../../../arm-none-eabi/lib/armv7e-m/fpu\libm.a(lib_a-w_log.o)
 .data          0x2000048c        0x0 c:/program files/gnu tools arm embedded/4.6 2012q2/bin/../lib/gcc/arm-none-eabi/4.6.2/../../../../arm-none-eabi/lib/armv7e-m/fpu\libm.a(lib_a-w_sqrt.o)
 .data          0x2000048c        0x0 c:/program files/gnu tools arm embedded/4.6 2012q2/bin/../lib/gcc/arm-none-eabi/4.6.2/../../../../arm-none-eabi/lib/armv7e-m/fpu\libm.a(lib_a-e_atan2.o)
 .data          0x2000048c        0x0 c:/program files/gnu tools arm embedded/4.6 2012q2/bin/../lib/gcc/arm-none-eabi/4.6.2/../../../../arm-none-eabi/lib/armv7e-m/fpu\libm.a(lib_a-e_fmod.o)
 .data          0x2000048c        0x0 c:/program files/gnu tools arm embedded/4.6 2012q2/bin/../lib/gcc/arm-none-eabi/4.6.2/../../../../arm-none-eabi/lib/armv7e-m/fpu\libm.a(lib_a-e_log.o)
 .data          0x2000048c        0x0 c:/program files/gnu tools arm embedded/4.6 2012q2/bin/../lib/gcc/arm-none-eabi/4.6.2/../../../../arm-none-eabi/lib/armv7e-m/fpu\libm.a(lib_a-e_sqrt.o)
 .data          0x2000048c        0x0 c:/program files/gnu tools arm embedded/4.6 2012q2/bin/../lib/gcc/arm-none-eabi/4.6.2/../../../../arm-none-eabi/lib/armv7e-m/fpu\libm.a(lib_a-s_atan.o)
 .data          0x2000048c        0x0 c:/program files/gnu tools arm embedded/4.6 2012q2/bin/../lib/gcc/arm-none-eabi/4.6.2/../../../../arm-none-eabi/lib/armv7e-m/fpu\libm.a(lib_a-s_fabs.o)
 .data          0x2000048c        0x0 c:/program files/gnu tools arm embedded/4.6 2012q2/bin/../lib/gcc/arm-none-eabi/4.6.2/../../../../arm-none-eabi/lib/armv7e-m/fpu\libm.a(lib_a-s_fpclassify.o)
 .data          0x2000048c        0x0 c:/program files/gnu tools arm embedded/4.6 2012q2/bin/../lib/gcc/arm-none-eabi/4.6.2/../../../../arm-none-eabi/lib/armv7e-m/fpu\libm.a(lib_a-s_lib_ver.o)
 .data          0x2000048c        0x0 c:/program files/gnu tools arm embedded/4.6 2012q2/bin/../lib/gcc/arm-none-eabi/4.6.2/../../../../arm-none-eabi/lib/armv7e-m/fpu\libm.a(lib_a-s_matherr.o)
 .data          0x2000048c        0x0 c:/program files/gnu tools arm embedded/4.6 2012q2/bin/../lib/gcc/arm-none-eabi/4.6.2/../../../../arm-none-eabi/lib/armv7e-m/fpu\libm.a(lib_a-s_nan.o)
 .data          0x2000048c        0x0 c:/program files/gnu tools arm embedded/4.6 2012q2/bin/../lib/gcc/arm-none-eabi/4.6.2/armv7e-m/fpu\libgcc.a(_arm_addsubdf3.o)
 .data          0x2000048c        0x0 c:/program files/gnu tools arm embedded/4.6 2012q2/bin/../lib/gcc/arm-none-eabi/4.6.2/armv7e-m/fpu\libgcc.a(_arm_muldivdf3.o)
 .data          0x2000048c        0x0 c:/program files/gnu tools arm embedded/4.6 2012q2/bin/../lib/gcc/arm-none-eabi/4.6.2/armv7e-m/fpu\libgcc.a(_arm_cmpdf2.o)
 .data          0x2000048c        0x0 c:/program files/gnu tools arm embedded/4.6 2012q2/bin/../lib/gcc/arm-none-eabi/4.6.2/armv7e-m/fpu\libgcc.a(_arm_fixdfsi.o)
 .data          0x2000048c        0x0 c:/program files/gnu tools arm embedded/4.6 2012q2/bin/../lib/gcc/arm-none-eabi/4.6.2/armv7e-m/fpu\libgcc.a(_arm_fixunsdfsi.o)
 .data          0x2000048c        0x0 c:/program files/gnu tools arm embedded/4.6 2012q2/bin/../lib/gcc/arm-none-eabi/4.6.2/armv7e-m/fpu\libgcc.a(_arm_truncdfsf2.o)
 .data          0x2000048c        0x0 c:/program files/gnu tools arm embedded/4.6 2012q2/bin/../lib/gcc/arm-none-eabi/4.6.2/../../../../arm-none-eabi/lib/armv7e-m/fpu\libc.a(lib_a-errno.o)
 .data          0x2000048c        0x0 c:/program files/gnu tools arm embedded/4.6 2012q2/bin/../lib/gcc/arm-none-eabi/4.6.2/../../../../arm-none-eabi/lib/armv7e-m/fpu\libc.a(lib_a-impure.o)
 .data          0x2000048c        0x0 c:/program files/gnu tools arm embedded/4.6 2012q2/bin/../lib/gcc/arm-none-eabi/4.6.2/../../../../arm-none-eabi/lib/armv7e-m/fpu\libc.a(lib_a-memcpy.o)
 .data          0x2000048c        0x0 c:/program files/gnu tools arm embedded/4.6 2012q2/bin/../lib/gcc/arm-none-eabi/4.6.2/../../../../arm-none-eabi/lib/armv7e-m/fpu\libc.a(lib_a-memset.o)
 *(.data*)
 .data.__fdlib_version
                0x2000048c        0x1 c:/program files/gnu tools arm embedded/4.6 2012q2/bin/../lib/gcc/arm-none-eabi/4.6.2/../../../../arm-none-eabi/lib/armv7e-m/fpu\libm.a(lib_a-s_lib_ver.o)
                0x2000048c                __fdlib_version
 *fill*         0x2000048d        0x3 00
 .data.impure_data
                0x20000490      0x428 c:/program files/gnu tools arm embedded/4.6 2012q2/bin/../lib/gcc/arm-none-eabi/4.6.2/../../../../arm-none-eabi/lib/armv7e-m/fpu\libc.a(lib_a-impure.o)
 .data._impure_ptr
                0x200008b8        0x4 c:/program files/gnu tools arm embedded/4.6 2012q2/bin/../lib/gcc/arm-none-eabi/4.6.2/../../../../arm-none-eabi/lib/armv7e-m/fpu\libc.a(lib_a-impure.o)
                0x200008b8                _impure_ptr
                0x200008bc                . = ALIGN (0x4)
                0x200008bc                _edata = .
                0x200008bc                . = ALIGN (0x4)

.bss            0x200008c0     0x7054 load address 0x0801a6a0
                0x200008c0                _sbss = .
                0x200008c0                __bss_start__ = _sbss
 *(.bss)
 .bss           0x200008c0        0x0 obj\.\startup\startup_stm32f4xx.o
 .bss           0x200008c0        0x0 obj\.\src\AsciiLib.o
 .bss           0x200008c0        0x0 obj\.\src\ChangeOver.o
 .bss           0x200008c0        0x0 obj\.\src\Codec_Gains.o
 .bss           0x200008c0        0x0 obj\.\src\CW_Mod.o
 .bss           0x200008c0       0x18 obj\.\src\DMA_IRQ_Handler.o
 .bss           0x200008d8        0x0 obj\.\src\DMA_Test_Pins.o
 .bss           0x200008d8        0x0 obj\.\src\DSP_Processing.o
 .bss           0x200008d8        0x0 obj\.\src\eeprom.o
 .bss           0x200008d8        0x2 obj\.\src\Encoder_1.o
 .bss           0x200008da        0x2 obj\.\src\Encoder_2.o
 .bss           0x200008dc        0x0 obj\.\src\FIR_Coefficients.o
 .bss           0x200008dc        0x0 obj\.\src\Init_Codec.o
 .bss           0x200008dc        0x0 obj\.\src\Init_DMA.o
 .bss           0x200008dc        0x0 obj\.\src\Init_I2C.o
 .bss           0x200008dc        0x0 obj\.\src\Init_I2S.o
 .bss           0x200008dc        0x1 obj\.\src\Keyboard_Input.o
 .bss           0x200008dd        0x0 obj\.\src\main.o
 *fill*         0x200008dd        0x1 00
 .bss           0x200008de        0x2 obj\.\src\ModeSelect.o
                0x200008de                Mode
 .bss           0x200008e0       0x34 obj\.\src\PSK_Det.o
 .bss           0x20000914       0x1c obj\.\src\PSKMod.o
                0x20000914                m_Ramp
                0x20000918                m_pTail
                0x2000091c                m_pHead
 .bss           0x20000930        0x0 obj\.\src\Si570.o
 .bss           0x20000930        0x0 obj\.\src\Sine_table.o
 .bss           0x20000930        0x0 obj\.\src\stm32f4_discovery.o
 .bss           0x20000930        0x0 obj\.\src\stm32f4xx_it.o
 .bss           0x20000930        0x0 obj\.\src\system_stm32f4xx.o
 .bss           0x20000930        0xc obj\.\src\TFT_Display.o
                0x20000930                TextColor
                0x20000932                TimerPeriod
                0x20000934                Channel1Pulse
 .bss           0x2000093c        0x6 obj\.\src\touch_pad.o
                0x2000093c                TouchCount
                0x2000093e                Mode_Test
                0x20000940                DebounceCount
 .bss           0x20000942        0x0 obj\.\src\uart.o
 *fill*         0x20000942        0x2 00
 .bss           0x20000944        0x4 obj\.\src\usb_bsp.o
                0x20000944                BSP_delay
 .bss           0x20000948        0x4 obj\.\src\usbh_usr.o
 .bss           0x2000094c        0x1 obj\.\src\User_Button.o
                0x2000094c                BT_Flag
 *fill*         0x2000094d        0x3 00
 .bss           0x20000950        0x4 obj\.\src\xprintf.o
 .bss           0x20000954        0x0 obj\.\externals\SM32F4-Discovery\USB\src\misc.o
 .bss           0x20000954        0x0 obj\.\externals\SM32F4-Discovery\USB\src\usb_core.o
 .bss           0x20000954        0x0 obj\.\externals\SM32F4-Discovery\USB\src\usb_hcd.o
 .bss           0x20000954        0x0 obj\.\externals\SM32F4-Discovery\USB\src\usb_hcd_int.o
 .bss           0x20000954        0x8 obj\.\externals\SM32F4-Discovery\USB\src\usbh_core.o
                0x20000958                Tab_State_Machine_incr
 .bss           0x2000095c        0x0 obj\.\externals\SM32F4-Discovery\USB\src\usbh_hcs.o
 .bss           0x2000095c        0x1 obj\.\externals\SM32F4-Discovery\USB\src\usbh_hid_core.o
                0x2000095c                start_toggle
 .bss           0x2000095d       0x17 obj\.\externals\SM32F4-Discovery\USB\src\usbh_hid_keybd.o
 .bss           0x20000974        0x0 obj\.\externals\SM32F4-Discovery\USB\src\usbh_ioreq.o
 .bss           0x20000974        0x4 obj\.\externals\SM32F4-Discovery\USB\src\usbh_stdreq.o
 .bss           0x20000978        0x0 .\externals\libs\libstm32f4xx_peripherals.a(stm32f4xx_dma.o)
 .bss           0x20000978        0x0 .\externals\libs\libstm32f4xx_peripherals.a(stm32f4xx_exti.o)
 .bss           0x20000978        0x0 .\externals\libs\libstm32f4xx_peripherals.a(stm32f4xx_fsmc.o)
 .bss           0x20000978        0x0 .\externals\libs\libstm32f4xx_peripherals.a(stm32f4xx_gpio.o)
 .bss           0x20000978        0x0 .\externals\libs\libstm32f4xx_peripherals.a(stm32f4xx_i2c.o)
 .bss           0x20000978        0x0 .\externals\libs\libstm32f4xx_peripherals.a(stm32f4xx_rcc.o)
 .bss           0x20000978        0x0 .\externals\libs\libstm32f4xx_peripherals.a(stm32f4xx_spi.o)
 .bss           0x20000978        0x0 .\externals\libs\libstm32f4xx_peripherals.a(stm32f4xx_syscfg.o)
 .bss           0x20000978        0x0 .\externals\libs\libstm32f4xx_peripherals.a(stm32f4xx_tim.o)
 .bss           0x20000978        0x0 .\externals\libs\libstm32f4xx_peripherals.a(stm32f4xx_usart.o)
 .bss           0x20000978        0x0 .\externals\libs\libstm32f4xx_math.a(arm_cmplx_mag_squared_q15.o)
 .bss           0x20000978        0x0 .\externals\libs\libstm32f4xx_math.a(arm_shift_q15.o)
 .bss           0x20000978        0x0 .\externals\libs\libstm32f4xx_math.a(arm_fir_decimate_q15.o)
 .bss           0x20000978        0x0 .\externals\libs\libstm32f4xx_math.a(arm_fir_q15.o)
 .bss           0x20000978        0x0 .\externals\libs\libstm32f4xx_math.a(arm_cfft_radix4_q15.o)
 .bss           0x20000978        0x0 .\externals\libs\libstm32f4xx_math.a(arm_cfft_radix4_init_q15.o)
 .bss           0x20000978        0x0 .\externals\libs\libstm32f4xx_math.a(arm_common_tables.o)
 .bss           0x20000978        0x0 c:/program files/gnu tools arm embedded/4.6 2012q2/bin/../lib/gcc/arm-none-eabi/4.6.2/../../../../arm-none-eabi/lib/armv7e-m/fpu\libm.a(lib_a-w_atan2.o)
 .bss           0x20000978        0x0 c:/program files/gnu tools arm embedded/4.6 2012q2/bin/../lib/gcc/arm-none-eabi/4.6.2/../../../../arm-none-eabi/lib/armv7e-m/fpu\libm.a(lib_a-w_fmod.o)
 .bss           0x20000978        0x0 c:/program files/gnu tools arm embedded/4.6 2012q2/bin/../lib/gcc/arm-none-eabi/4.6.2/../../../../arm-none-eabi/lib/armv7e-m/fpu\libm.a(lib_a-w_log.o)
 .bss           0x20000978        0x0 c:/program files/gnu tools arm embedded/4.6 2012q2/bin/../lib/gcc/arm-none-eabi/4.6.2/../../../../arm-none-eabi/lib/armv7e-m/fpu\libm.a(lib_a-w_sqrt.o)
 .bss           0x20000978        0x0 c:/program files/gnu tools arm embedded/4.6 2012q2/bin/../lib/gcc/arm-none-eabi/4.6.2/../../../../arm-none-eabi/lib/armv7e-m/fpu\libm.a(lib_a-e_atan2.o)
 .bss           0x20000978        0x0 c:/program files/gnu tools arm embedded/4.6 2012q2/bin/../lib/gcc/arm-none-eabi/4.6.2/../../../../arm-none-eabi/lib/armv7e-m/fpu\libm.a(lib_a-e_fmod.o)
 .bss           0x20000978        0x0 c:/program files/gnu tools arm embedded/4.6 2012q2/bin/../lib/gcc/arm-none-eabi/4.6.2/../../../../arm-none-eabi/lib/armv7e-m/fpu\libm.a(lib_a-e_log.o)
 .bss           0x20000978        0x0 c:/program files/gnu tools arm embedded/4.6 2012q2/bin/../lib/gcc/arm-none-eabi/4.6.2/../../../../arm-none-eabi/lib/armv7e-m/fpu\libm.a(lib_a-e_sqrt.o)
 .bss           0x20000978        0x0 c:/program files/gnu tools arm embedded/4.6 2012q2/bin/../lib/gcc/arm-none-eabi/4.6.2/../../../../arm-none-eabi/lib/armv7e-m/fpu\libm.a(lib_a-s_atan.o)
 .bss           0x20000978        0x0 c:/program files/gnu tools arm embedded/4.6 2012q2/bin/../lib/gcc/arm-none-eabi/4.6.2/../../../../arm-none-eabi/lib/armv7e-m/fpu\libm.a(lib_a-s_fabs.o)
 .bss           0x20000978        0x0 c:/program files/gnu tools arm embedded/4.6 2012q2/bin/../lib/gcc/arm-none-eabi/4.6.2/../../../../arm-none-eabi/lib/armv7e-m/fpu\libm.a(lib_a-s_fpclassify.o)
 .bss           0x20000978        0x0 c:/program files/gnu tools arm embedded/4.6 2012q2/bin/../lib/gcc/arm-none-eabi/4.6.2/../../../../arm-none-eabi/lib/armv7e-m/fpu\libm.a(lib_a-s_lib_ver.o)
 .bss           0x20000978        0x0 c:/program files/gnu tools arm embedded/4.6 2012q2/bin/../lib/gcc/arm-none-eabi/4.6.2/../../../../arm-none-eabi/lib/armv7e-m/fpu\libm.a(lib_a-s_matherr.o)
 .bss           0x20000978        0x0 c:/program files/gnu tools arm embedded/4.6 2012q2/bin/../lib/gcc/arm-none-eabi/4.6.2/../../../../arm-none-eabi/lib/armv7e-m/fpu\libm.a(lib_a-s_nan.o)
 .bss           0x20000978        0x0 c:/program files/gnu tools arm embedded/4.6 2012q2/bin/../lib/gcc/arm-none-eabi/4.6.2/armv7e-m/fpu\libgcc.a(_arm_addsubdf3.o)
 .bss           0x20000978        0x0 c:/program files/gnu tools arm embedded/4.6 2012q2/bin/../lib/gcc/arm-none-eabi/4.6.2/armv7e-m/fpu\libgcc.a(_arm_muldivdf3.o)
 .bss           0x20000978        0x0 c:/program files/gnu tools arm embedded/4.6 2012q2/bin/../lib/gcc/arm-none-eabi/4.6.2/armv7e-m/fpu\libgcc.a(_arm_cmpdf2.o)
 .bss           0x20000978        0x0 c:/program files/gnu tools arm embedded/4.6 2012q2/bin/../lib/gcc/arm-none-eabi/4.6.2/armv7e-m/fpu\libgcc.a(_arm_fixdfsi.o)
 .bss           0x20000978        0x0 c:/program files/gnu tools arm embedded/4.6 2012q2/bin/../lib/gcc/arm-none-eabi/4.6.2/armv7e-m/fpu\libgcc.a(_arm_fixunsdfsi.o)
 .bss           0x20000978        0x0 c:/program files/gnu tools arm embedded/4.6 2012q2/bin/../lib/gcc/arm-none-eabi/4.6.2/armv7e-m/fpu\libgcc.a(_arm_truncdfsf2.o)
 .bss           0x20000978        0x0 c:/program files/gnu tools arm embedded/4.6 2012q2/bin/../lib/gcc/arm-none-eabi/4.6.2/../../../../arm-none-eabi/lib/armv7e-m/fpu\libc.a(lib_a-errno.o)
 .bss           0x20000978        0x0 c:/program files/gnu tools arm embedded/4.6 2012q2/bin/../lib/gcc/arm-none-eabi/4.6.2/../../../../arm-none-eabi/lib/armv7e-m/fpu\libc.a(lib_a-impure.o)
 .bss           0x20000978        0x0 c:/program files/gnu tools arm embedded/4.6 2012q2/bin/../lib/gcc/arm-none-eabi/4.6.2/../../../../arm-none-eabi/lib/armv7e-m/fpu\libc.a(lib_a-memcpy.o)
 .bss           0x20000978        0x0 c:/program files/gnu tools arm embedded/4.6 2012q2/bin/../lib/gcc/arm-none-eabi/4.6.2/../../../../arm-none-eabi/lib/armv7e-m/fpu\libc.a(lib_a-memset.o)
 *(.bss*)
 *(COMMON)
 COMMON         0x20000978       0xda obj\.\src\ChangeOver.o
                0x20000978                rgain
                0x2000097c                DataMax
                0x2000099c                phase_adjust
                0x200009a0                Tx_Flag
                0x200009a2                IQ_Unit
                0x200009c4                S1
                0x200009c8                CW_Gain
                0x200009cc                T_lgain
                0x200009d0                m_SymbolRate
                0x200009d8                x_NCOphzinc
                0x200009e0                m_2PI
                0x200009e8                DSP_Flag
                0x200009ec                m_AddEndingZero
                0x200009f0                IQ_Disp
                0x200009f4                m_RMSConstant
                0x200009f8                R_lgain
                0x200009fc                DataMin
                0x20000a1c                R_xgain
                0x20000a20                EEProm_Value2
                0x20000a22                read_SS2
                0x20000a24                S2
                0x20000a28                Key_Down
                0x20000a2c                T_xgain
                0x20000a30                IQData
                0x20000a50                m_TxShiftReg
 *fill*         0x20000a52        0x6 00
 COMMON         0x20000a58     0x508c obj\.\src\DMA_IRQ_Handler.o
                0x20000a58                Filter_delay_I4
                0x20000ae0                m_FreqSignal
                0x20000af0                Filter_delay_Q3
                0x20000b78                m_z2
                0x20000b88                FIR_I_Out
                0x20000f88                m_z1
                0x20000f98                Sample_Frequency
                0x20000f9c                m_IQPhzIndex
                0x20000fa0                LCD_buffer
                0x20000fc8                ADC_Buffer
                0x200013c8                m_PSKmode
                0x200013cc                m_ClkErrCounter
                0x200013d0                m_BitPhaseInc
                0x200013d8                FFT_Magnitude
                0x200015d8                m_VcoPhz
                0x200015e0                m_BitSignal
                0x200015f0                Filter_delay_I3
                0x20001674                m_IMDValid
                0x20001678                NCO_Frequency
                0x20001680                m_SquelchSpeed
                0x20001684                USB_Out
                0x20001a84                FIR_I_In
                0x20001e84                m_AFCCaptureOn
                0x20001e88                PSK_Gain
                0x20001e90                m_SyncAve
                0x20001f38                m_SQThresh
                0x20001f40                IQ
                0x20001f50                m_VaricodeDecTbl
                0x20002750                DMA_RX_Memory
                0x20002754                LSB_Out
                0x20002b54                m_OffCount
                0x20002b58                PSK_Tx
                0x20002b5c                m_LastPkPos
                0x20002b60                m_PkPos
                0x20002b68                m_NCOphzinc
                0x20002b70                m_AFClimit
                0x20002b78                m_FastAFCMode
                0x20002b80                Samp
                0x20002b90                m_SampleFreq
                0x20002b98                i
                0x20002b9a                FIR_Q_In
                0x20002f9c                m_SampCnt
                0x20002fa0                m_LastBitZero
                0x20002fa4                m_SQLevel
                0x20002fa8                m_IQPhaseArray
                0x20002ff8                Filter_delay_I2
                0x20003044                DMA_TX_Memory
                0x20003048                m_BitAcc
                0x2000304c                Tx1BufferDMA
                0x2000384c                Rx1BufferDMA
                0x20004050                m_I1
                0x20004058                Filter_delay_Q4
                0x200040e0                m_QFreqError
                0x200040e8                Tx0BufferDMA
                0x200048e8                m_I0
                0x200048f0                m_OnCount
                0x200048f4                FIR_Q_Out
                0x20004cf8                newsamp
                0x20004d08                m_AGCave
                0x20004d10                key
                0x20004d14                m_Pcnt
                0x20004d18                m_AFCmode
                0x20004d1c                Filter_delay_Q2
                0x20004d68                m_FperrAve
                0x20004d70                m_Ncnt
                0x20004d78                m_FferrAve
                0x20004d80                m_SQOpen
                0x20004d88                m_Q0
                0x20004d90                m_NLPk
                0x20004d98                m_DevAve
                0x20004da0                m_AFCTimer
                0x20004da4                Filter_delay_Q1
                0x20004df0                m_NewPkPos
                0x20004df8                m_AFCmin
                0x20004e00                m_BitPos
                0x20004e04                m_SampleClkAdj
                0x20004e08                m_BitPhasePos
                0x20004e10                m_AFCmax
                0x20004e18                Filter_delay_I1
                0x20004e64                m_ClkErrTimer
                0x20004e68                m_Q1
                0x20004e70                m_SyncArray
                0x20004ec0                Rx0BufferDMA
                0x200056c0                sample
                0x200056d0                m_ClkError
                0x200056d4                FFT_Input
                0x20005ad8                m_FreqError
                0x20005ae0                Flag
 COMMON         0x20005ae4     0x1210 obj\.\src\DSP_Processing.o
                0x20005ae4                FFT_Test
                0x20005ee4                FIR_State_I
                0x200063e2                FFT_Scale
                0x200067e2                FFT_status
                0x200067e4                FIR_State_Q
                0x20006ce4                S_CFFT
 COMMON         0x20006cf4       0x4d obj\.\src\eeprom.o
                0x20006cf4                Freq_Disp
                0x20006cf8                EEProm_Value1
                0x20006cfc                read_SS1
                0x20006d00                Freq_Set
                0x20006d40                F_Mult
 *fill*         0x20006d41        0x7 00
 COMMON         0x20006d48       0x65 obj\.\src\Encoder_1.o
                0x20006d48                RFREQ_FRAC
                0x20006d4c                Freq_Max
                0x20006d50                si570_read
                0x20006d58                N1
                0x20006d60                FXTAL
                0x20006d68                RFREQ
                0x20006d70                FOUT
                0x20006d78                F0
                0x20006d80                HS_DIV
                0x20006d84                EEProm_Value
                0x20006d88                SI570_Chk
                0x20006d8c                RFREQ_INT
                0x20006d90                ENC_Sens1
                0x20006d98                Old_RFREQ
                0x20006da0                Freq_Min
                0x20006da4                EXTI_InitStructure
                0x20006dac                DIR1
 *fill*         0x20006dad        0x1 00
 COMMON         0x20006dae        0x4 obj\.\src\Encoder_2.o
                0x20006dae                DIR2
                0x20006db0                ENC_Sens2
 COMMON         0x20006db2       0x28 obj\.\src\Keyboard_Input.o
                0x20006db2                kybd_string
 *fill*         0x20006dda        0x2 00
 COMMON         0x20006ddc      0x7ba obj\.\src\main.o
                0x20006ddc                old_SS2_position
                0x20006dde                Y_Point
                0x20006de0                USB_OTG_Core_dev
                0x2000738c                FFT_Output
                0x2000740c                old_SS1_position
                0x2000740e                X_Point
                0x20007410                FFT_Display
                0x20007510                USB_Host
                0x20007594                TouchFlag
 *fill*         0x20007596        0x2 00
 COMMON         0x20007598       0x10 obj\.\src\PSK_Det.o
                0x20007598                m_PSKPeriodUpdate
                0x200075a0                char_count
                0x200075a4                count
 COMMON         0x200075a8       0x28 obj\.\src\PSKMod.o
                0x200075a8                XmitBuffer
 COMMON         0x200075d0        0x4 obj\.\src\stm32f4_discovery.o
                0x200075d0                NVIC_InitStructure
 COMMON         0x200075d4       0x20 obj\.\src\TFT_Display.o
                0x200075d4                TIM_TimeBaseStructure
                0x200075e0                TIM_OCInitStructure
 COMMON         0x200075f4        0x4 obj\.\src\touch_pad.o
                0x200075f4                screen
 COMMON         0x200075f8        0x1 obj\.\src\usb_bsp.o
                0x200075f8                HSEStartUpStatus
 COMMON         0x200075f9        0x1 obj\.\src\User_Button.o
                0x200075f9                PB_State
 *fill*         0x200075fa        0x2 00
 COMMON         0x200075fc        0x4 obj\.\src\xprintf.o
                0x200075fc                xfunc_out
 COMMON         0x20007600       0x64 obj\.\externals\SM32F4-Discovery\USB\src\usbh_core.o
                0x20007600                Tab_State_Machine
 COMMON         0x20007664       0xae obj\.\externals\SM32F4-Discovery\USB\src\usbh_hid_core.o
                0x20007664                HID_Report
                0x200076ac                HID_Machine
                0x20007700                HID_Desc
                0x2000770a                HID_Setup
 COMMON         0x20007712      0x200 obj\.\externals\SM32F4-Discovery\USB\src\usbh_stdreq.o
                0x20007712                USBH_CfgDesc
                0x20007914                . = ALIGN (0x4)
 *fill*         0x20007912        0x2 00
                0x20007914                _ebss = .
                0x20007914                __bss_end__ = _ebss

._user_heap_stack
                0x20007914      0x400 load address 0x080216f4
                0x20007914                . = ALIGN (0x4)
                0x20007914                PROVIDE (end, .)
                0x20007914                PROVIDE (_end, .)
                0x20007914                . = (. + Heap_Size)
                0x20007d14                . = (. + Stack_Size)
 *fill*         0x20007914      0x400 00
                0x20007d14                . = ALIGN (0x4)

.ramccm
 *(.ccmtext)
 *(.ccmtext*)
 *(.ccmrodata)
 *(.ccmrodata*)

/DISCARD/
 libc.a(*)
 libm.a(*)
 libgcc.a(*)

.ARM.attributes
                0x00000000       0x37
 *(.ARM.attributes)
 .ARM.attributes
                0x00000000       0x27 obj\.\startup\startup_stm32f4xx.o
 .ARM.attributes
                0x00000027       0x3b obj\.\src\AsciiLib.o
 .ARM.attributes
                0x00000062       0x3b obj\.\src\ChangeOver.o
 .ARM.attributes
                0x0000009d       0x3b obj\.\src\Codec_Gains.o
 .ARM.attributes
                0x000000d8       0x3b obj\.\src\CW_Mod.o
 .ARM.attributes
                0x00000113       0x3b obj\.\src\DMA_IRQ_Handler.o
 .ARM.attributes
                0x0000014e       0x3b obj\.\src\DMA_Test_Pins.o
 .ARM.attributes
                0x00000189       0x3b obj\.\src\DSP_Processing.o
 .ARM.attributes
                0x000001c4       0x3b obj\.\src\eeprom.o
 .ARM.attributes
                0x000001ff       0x3b obj\.\src\Encoder_1.o
 .ARM.attributes
                0x0000023a       0x3b obj\.\src\Encoder_2.o
 .ARM.attributes
                0x00000275       0x3b obj\.\src\FIR_Coefficients.o
 .ARM.attributes
                0x000002b0       0x3b obj\.\src\Init_Codec.o
 .ARM.attributes
                0x000002eb       0x3b obj\.\src\Init_DMA.o
 .ARM.attributes
                0x00000326       0x3b obj\.\src\Init_I2C.o
 .ARM.attributes
                0x00000361       0x3b obj\.\src\Init_I2S.o
 .ARM.attributes
                0x0000039c       0x3b obj\.\src\Keyboard_Input.o
 .ARM.attributes
                0x000003d7       0x3b obj\.\src\main.o
 .ARM.attributes
                0x00000412       0x3b obj\.\src\ModeSelect.o
 .ARM.attributes
                0x0000044d       0x3b obj\.\src\PSK_Det.o
 .ARM.attributes
                0x00000488       0x3b obj\.\src\PSKMod.o
 .ARM.attributes
                0x000004c3       0x3b obj\.\src\Si570.o
 .ARM.attributes
                0x000004fe       0x3b obj\.\src\Sine_table.o
 .ARM.attributes
                0x00000539       0x3b obj\.\src\stm32f4_discovery.o
 .ARM.attributes
                0x00000574       0x3b obj\.\src\stm32f4xx_it.o
 .ARM.attributes
                0x000005af       0x3b obj\.\src\system_stm32f4xx.o
 .ARM.attributes
                0x000005ea       0x3b obj\.\src\TFT_Display.o
 .ARM.attributes
                0x00000625       0x3b obj\.\src\touch_pad.o
 .ARM.attributes
                0x00000660       0x3b obj\.\src\uart.o
 .ARM.attributes
                0x0000069b       0x3b obj\.\src\usb_bsp.o
 .ARM.attributes
                0x000006d6       0x3b obj\.\src\usbh_usr.o
 .ARM.attributes
                0x00000711       0x3b obj\.\src\User_Button.o
 .ARM.attributes
                0x0000074c       0x3b obj\.\src\xprintf.o
 .ARM.attributes
                0x00000787       0x3b obj\.\externals\SM32F4-Discovery\USB\src\misc.o
 .ARM.attributes
                0x000007c2       0x3b obj\.\externals\SM32F4-Discovery\USB\src\usb_core.o
 .ARM.attributes
                0x000007fd       0x3b obj\.\externals\SM32F4-Discovery\USB\src\usb_hcd.o
 .ARM.attributes
                0x00000838       0x3b obj\.\externals\SM32F4-Discovery\USB\src\usb_hcd_int.o
 .ARM.attributes
                0x00000873       0x3b obj\.\externals\SM32F4-Discovery\USB\src\usbh_core.o
 .ARM.attributes
                0x000008ae       0x3b obj\.\externals\SM32F4-Discovery\USB\src\usbh_hcs.o
 .ARM.attributes
                0x000008e9       0x3b obj\.\externals\SM32F4-Discovery\USB\src\usbh_hid_core.o
 .ARM.attributes
                0x00000924       0x3b obj\.\externals\SM32F4-Discovery\USB\src\usbh_hid_keybd.o
 .ARM.attributes
                0x0000095f       0x3b obj\.\externals\SM32F4-Discovery\USB\src\usbh_ioreq.o
 .ARM.attributes
                0x0000099a       0x3b obj\.\externals\SM32F4-Discovery\USB\src\usbh_stdreq.o
 .ARM.attributes
                0x000009d5       0x39 .\externals\libs\libstm32f4xx_peripherals.a(stm32f4xx_dma.o)
 .ARM.attributes
                0x00000a0e       0x39 .\externals\libs\libstm32f4xx_peripherals.a(stm32f4xx_exti.o)
 .ARM.attributes
                0x00000a47       0x39 .\externals\libs\libstm32f4xx_peripherals.a(stm32f4xx_fsmc.o)
 .ARM.attributes
                0x00000a80       0x39 .\externals\libs\libstm32f4xx_peripherals.a(stm32f4xx_gpio.o)
 .ARM.attributes
                0x00000ab9       0x39 .\externals\libs\libstm32f4xx_peripherals.a(stm32f4xx_i2c.o)
 .ARM.attributes
                0x00000af2       0x39 .\externals\libs\libstm32f4xx_peripherals.a(stm32f4xx_rcc.o)
 .ARM.attributes
                0x00000b2b       0x39 .\externals\libs\libstm32f4xx_peripherals.a(stm32f4xx_spi.o)
 .ARM.attributes
                0x00000b64       0x39 .\externals\libs\libstm32f4xx_peripherals.a(stm32f4xx_syscfg.o)
 .ARM.attributes
                0x00000b9d       0x39 .\externals\libs\libstm32f4xx_peripherals.a(stm32f4xx_tim.o)
 .ARM.attributes
                0x00000bd6       0x39 .\externals\libs\libstm32f4xx_peripherals.a(stm32f4xx_usart.o)
 .ARM.attributes
                0x00000c0f       0x39 .\externals\libs\libstm32f4xx_math.a(arm_cmplx_mag_squared_q15.o)
 .ARM.attributes
                0x00000c48       0x39 .\externals\libs\libstm32f4xx_math.a(arm_shift_q15.o)
 .ARM.attributes
                0x00000c81       0x39 .\externals\libs\libstm32f4xx_math.a(arm_fir_decimate_q15.o)
 .ARM.attributes
                0x00000cba       0x39 .\externals\libs\libstm32f4xx_math.a(arm_fir_q15.o)
 .ARM.attributes
                0x00000cf3       0x39 .\externals\libs\libstm32f4xx_math.a(arm_cfft_radix4_q15.o)
 .ARM.attributes
                0x00000d2c       0x39 .\externals\libs\libstm32f4xx_math.a(arm_cfft_radix4_init_q15.o)
 .ARM.attributes
                0x00000d65       0x39 .\externals\libs\libstm32f4xx_math.a(arm_common_tables.o)
 .ARM.attributes
                0x00000d9e       0x36 c:/program files/gnu tools arm embedded/4.6 2012q2/bin/../lib/gcc/arm-none-eabi/4.6.2/../../../../arm-none-eabi/lib/armv7e-m/fpu\libm.a(lib_a-w_atan2.o)
 .ARM.attributes
                0x00000dd4       0x36 c:/program files/gnu tools arm embedded/4.6 2012q2/bin/../lib/gcc/arm-none-eabi/4.6.2/../../../../arm-none-eabi/lib/armv7e-m/fpu\libm.a(lib_a-w_fmod.o)
 .ARM.attributes
                0x00000e0a       0x36 c:/program files/gnu tools arm embedded/4.6 2012q2/bin/../lib/gcc/arm-none-eabi/4.6.2/../../../../arm-none-eabi/lib/armv7e-m/fpu\libm.a(lib_a-w_log.o)
 .ARM.attributes
                0x00000e40       0x36 c:/program files/gnu tools arm embedded/4.6 2012q2/bin/../lib/gcc/arm-none-eabi/4.6.2/../../../../arm-none-eabi/lib/armv7e-m/fpu\libm.a(lib_a-w_sqrt.o)
 .ARM.attributes
                0x00000e76       0x36 c:/program files/gnu tools arm embedded/4.6 2012q2/bin/../lib/gcc/arm-none-eabi/4.6.2/../../../../arm-none-eabi/lib/armv7e-m/fpu\libm.a(lib_a-e_atan2.o)
 .ARM.attributes
                0x00000eac       0x36 c:/program files/gnu tools arm embedded/4.6 2012q2/bin/../lib/gcc/arm-none-eabi/4.6.2/../../../../arm-none-eabi/lib/armv7e-m/fpu\libm.a(lib_a-e_fmod.o)
 .ARM.attributes
                0x00000ee2       0x36 c:/program files/gnu tools arm embedded/4.6 2012q2/bin/../lib/gcc/arm-none-eabi/4.6.2/../../../../arm-none-eabi/lib/armv7e-m/fpu\libm.a(lib_a-e_log.o)
 .ARM.attributes
                0x00000f18       0x36 c:/program files/gnu tools arm embedded/4.6 2012q2/bin/../lib/gcc/arm-none-eabi/4.6.2/../../../../arm-none-eabi/lib/armv7e-m/fpu\libm.a(lib_a-e_sqrt.o)
 .ARM.attributes
                0x00000f4e       0x36 c:/program files/gnu tools arm embedded/4.6 2012q2/bin/../lib/gcc/arm-none-eabi/4.6.2/../../../../arm-none-eabi/lib/armv7e-m/fpu\libm.a(lib_a-s_atan.o)
 .ARM.attributes
                0x00000f84       0x36 c:/program files/gnu tools arm embedded/4.6 2012q2/bin/../lib/gcc/arm-none-eabi/4.6.2/../../../../arm-none-eabi/lib/armv7e-m/fpu\libm.a(lib_a-s_fabs.o)
 .ARM.attributes
                0x00000fba       0x36 c:/program files/gnu tools arm embedded/4.6 2012q2/bin/../lib/gcc/arm-none-eabi/4.6.2/../../../../arm-none-eabi/lib/armv7e-m/fpu\libm.a(lib_a-s_fpclassify.o)
 .ARM.attributes
                0x00000ff0       0x36 c:/program files/gnu tools arm embedded/4.6 2012q2/bin/../lib/gcc/arm-none-eabi/4.6.2/../../../../arm-none-eabi/lib/armv7e-m/fpu\libm.a(lib_a-s_lib_ver.o)
 .ARM.attributes
                0x00001026       0x36 c:/program files/gnu tools arm embedded/4.6 2012q2/bin/../lib/gcc/arm-none-eabi/4.6.2/../../../../arm-none-eabi/lib/armv7e-m/fpu\libm.a(lib_a-s_matherr.o)
 .ARM.attributes
                0x0000105c       0x36 c:/program files/gnu tools arm embedded/4.6 2012q2/bin/../lib/gcc/arm-none-eabi/4.6.2/../../../../arm-none-eabi/lib/armv7e-m/fpu\libm.a(lib_a-s_nan.o)
 .ARM.attributes
                0x00001092       0x24 c:/program files/gnu tools arm embedded/4.6 2012q2/bin/../lib/gcc/arm-none-eabi/4.6.2/armv7e-m/fpu\libgcc.a(_arm_addsubdf3.o)
 .ARM.attributes
                0x000010b6       0x24 c:/program files/gnu tools arm embedded/4.6 2012q2/bin/../lib/gcc/arm-none-eabi/4.6.2/armv7e-m/fpu\libgcc.a(_arm_muldivdf3.o)
 .ARM.attributes
                0x000010da       0x24 c:/program files/gnu tools arm embedded/4.6 2012q2/bin/../lib/gcc/arm-none-eabi/4.6.2/armv7e-m/fpu\libgcc.a(_arm_cmpdf2.o)
 .ARM.attributes
                0x000010fe       0x24 c:/program files/gnu tools arm embedded/4.6 2012q2/bin/../lib/gcc/arm-none-eabi/4.6.2/armv7e-m/fpu\libgcc.a(_arm_fixdfsi.o)
 .ARM.attributes
                0x00001122       0x24 c:/program files/gnu tools arm embedded/4.6 2012q2/bin/../lib/gcc/arm-none-eabi/4.6.2/armv7e-m/fpu\libgcc.a(_arm_fixunsdfsi.o)
 .ARM.attributes
                0x00001146       0x24 c:/program files/gnu tools arm embedded/4.6 2012q2/bin/../lib/gcc/arm-none-eabi/4.6.2/armv7e-m/fpu\libgcc.a(_arm_truncdfsf2.o)
 .ARM.attributes
                0x0000116a       0x36 c:/program files/gnu tools arm embedded/4.6 2012q2/bin/../lib/gcc/arm-none-eabi/4.6.2/../../../../arm-none-eabi/lib/armv7e-m/fpu\libc.a(lib_a-errno.o)
 .ARM.attributes
                0x000011a0       0x36 c:/program files/gnu tools arm embedded/4.6 2012q2/bin/../lib/gcc/arm-none-eabi/4.6.2/../../../../arm-none-eabi/lib/armv7e-m/fpu\libc.a(lib_a-impure.o)
 .ARM.attributes
                0x000011d6       0x36 c:/program files/gnu tools arm embedded/4.6 2012q2/bin/../lib/gcc/arm-none-eabi/4.6.2/../../../../arm-none-eabi/lib/armv7e-m/fpu\libc.a(lib_a-memcpy.o)
 .ARM.attributes
                0x0000120c       0x36 c:/program files/gnu tools arm embedded/4.6 2012q2/bin/../lib/gcc/arm-none-eabi/4.6.2/../../../../arm-none-eabi/lib/armv7e-m/fpu\libc.a(lib_a-memset.o)
OUTPUT(STM32-SDR_rom.elf elf32-littlearm)

.debug_line     0x00000000     0x903f
 .debug_line    0x00000000       0x72 obj\.\startup\startup_stm32f4xx.o
 .debug_line    0x00000072       0xd8 obj\.\src\AsciiLib.o
 .debug_line    0x0000014a      0x21c obj\.\src\ChangeOver.o
 .debug_line    0x00000366       0xbf obj\.\src\Codec_Gains.o
 .debug_line    0x00000425      0x192 obj\.\src\CW_Mod.o
 .debug_line    0x000005b7      0x803 obj\.\src\DMA_IRQ_Handler.o
 .debug_line    0x00000dba      0x19c obj\.\src\DMA_Test_Pins.o
 .debug_line    0x00000f56      0x187 obj\.\src\DSP_Processing.o
 .debug_line    0x000010dd      0x1a7 obj\.\src\eeprom.o
 .debug_line    0x00001284      0x33a obj\.\src\Encoder_1.o
 .debug_line    0x000015be      0x382 obj\.\src\Encoder_2.o
 .debug_line    0x00001940       0xf7 obj\.\src\FIR_Coefficients.o
 .debug_line    0x00001a37      0x1fc obj\.\src\Init_Codec.o
 .debug_line    0x00001c33      0x1fb obj\.\src\Init_DMA.o
 .debug_line    0x00001e2e      0x3b5 obj\.\src\Init_I2C.o
 .debug_line    0x000021e3      0x1d4 obj\.\src\Init_I2S.o
 .debug_line    0x000023b7      0x188 obj\.\src\Keyboard_Input.o
 .debug_line    0x0000253f      0x2a9 obj\.\src\main.o
 .debug_line    0x000027e8      0x12c obj\.\src\ModeSelect.o
 .debug_line    0x00002914      0x4b0 obj\.\src\PSK_Det.o
 .debug_line    0x00002dc4      0x1c8 obj\.\src\PSKMod.o
 .debug_line    0x00002f8c      0x1ff obj\.\src\Si570.o
 .debug_line    0x0000318b       0x45 obj\.\src\Sine_table.o
 .debug_line    0x000031d0      0x214 obj\.\src\stm32f4_discovery.o
 .debug_line    0x000033e4      0x1c7 obj\.\src\stm32f4xx_it.o
 .debug_line    0x000035ab      0x1ac obj\.\src\system_stm32f4xx.o
 .debug_line    0x00003757      0x7f1 obj\.\src\TFT_Display.o
 .debug_line    0x00003f48      0x401 obj\.\src\touch_pad.o
 .debug_line    0x00004349      0x206 obj\.\src\uart.o
 .debug_line    0x0000454f      0x2b7 obj\.\src\usb_bsp.o
 .debug_line    0x00004806      0x1d0 obj\.\src\usbh_usr.o
 .debug_line    0x000049d6      0x1fc obj\.\src\User_Button.o
 .debug_line    0x00004bd2      0x201 obj\.\src\xprintf.o
 .debug_line    0x00004dd3      0x1d2 obj\.\externals\SM32F4-Discovery\USB\src\misc.o
 .debug_line    0x00004fa5      0x450 obj\.\externals\SM32F4-Discovery\USB\src\usb_core.o
 .debug_line    0x000053f5      0x1ce obj\.\externals\SM32F4-Discovery\USB\src\usb_hcd.o
 .debug_line    0x000055c3      0x361 obj\.\externals\SM32F4-Discovery\USB\src\usb_hcd_int.o
 .debug_line    0x00005924      0x2da obj\.\externals\SM32F4-Discovery\USB\src\usbh_core.o
 .debug_line    0x00005bfe      0x1ba obj\.\externals\SM32F4-Discovery\USB\src\usbh_hcs.o
 .debug_line    0x00005db8      0x2c4 obj\.\externals\SM32F4-Discovery\USB\src\usbh_hid_core.o
 .debug_line    0x0000607c      0x1c5 obj\.\externals\SM32F4-Discovery\USB\src\usbh_hid_keybd.o
 .debug_line    0x00006241      0x226 obj\.\externals\SM32F4-Discovery\USB\src\usbh_ioreq.o
 .debug_line    0x00006467      0x33e obj\.\externals\SM32F4-Discovery\USB\src\usbh_stdreq.o
 .debug_line    0x000067a5      0x20d .\externals\libs\libstm32f4xx_peripherals.a(stm32f4xx_dma.o)
 .debug_line    0x000069b2      0x15d .\externals\libs\libstm32f4xx_peripherals.a(stm32f4xx_exti.o)
 .debug_line    0x00006b0f      0x281 .\externals\libs\libstm32f4xx_peripherals.a(stm32f4xx_fsmc.o)
 .debug_line    0x00006d90      0x1a4 .\externals\libs\libstm32f4xx_peripherals.a(stm32f4xx_gpio.o)
 .debug_line    0x00006f34      0x281 .\externals\libs\libstm32f4xx_peripherals.a(stm32f4xx_i2c.o)
 .debug_line    0x000071b5      0x281 .\externals\libs\libstm32f4xx_peripherals.a(stm32f4xx_rcc.o)
 .debug_line    0x00007436      0x266 .\externals\libs\libstm32f4xx_peripherals.a(stm32f4xx_spi.o)
 .debug_line    0x0000769c      0x11e .\externals\libs\libstm32f4xx_peripherals.a(stm32f4xx_syscfg.o)
 .debug_line    0x000077ba      0x594 .\externals\libs\libstm32f4xx_peripherals.a(stm32f4xx_tim.o)
 .debug_line    0x00007d4e      0x29b .\externals\libs\libstm32f4xx_peripherals.a(stm32f4xx_usart.o)
 .debug_line    0x00007fe9      0x1a0 .\externals\libs\libstm32f4xx_math.a(arm_cmplx_mag_squared_q15.o)
 .debug_line    0x00008189      0x15d .\externals\libs\libstm32f4xx_math.a(arm_shift_q15.o)
 .debug_line    0x000082e6      0x1a7 .\externals\libs\libstm32f4xx_math.a(arm_fir_decimate_q15.o)
 .debug_line    0x0000848d      0x280 .\externals\libs\libstm32f4xx_math.a(arm_fir_q15.o)
 .debug_line    0x0000870d      0x75f .\externals\libs\libstm32f4xx_math.a(arm_cfft_radix4_q15.o)
 .debug_line    0x00008e6c      0x113 .\externals\libs\libstm32f4xx_math.a(arm_cfft_radix4_init_q15.o)
 .debug_line    0x00008f7f       0xc0 .\externals\libs\libstm32f4xx_math.a(arm_common_tables.o)

.debug_info     0x00000000    0x294d8
 .debug_info    0x00000000       0x67 obj\.\startup\startup_stm32f4xx.o
 .debug_info    0x00000067      0x2b3 obj\.\src\AsciiLib.o
 .debug_info    0x0000031a      0x541 obj\.\src\ChangeOver.o
 .debug_info    0x0000085b      0x1e6 obj\.\src\Codec_Gains.o
 .debug_info    0x00000a41      0x2af obj\.\src\CW_Mod.o
 .debug_info    0x00000cf0      0xff5 obj\.\src\DMA_IRQ_Handler.o
 .debug_info    0x00001ce5      0x2af obj\.\src\DMA_Test_Pins.o
 .debug_info    0x00001f94      0xd41 obj\.\src\DSP_Processing.o
 .debug_info    0x00002cd5      0x422 obj\.\src\eeprom.o
 .debug_info    0x000030f7      0x9ac obj\.\src\Encoder_1.o
 .debug_info    0x00003aa3      0x86b obj\.\src\Encoder_2.o
 .debug_info    0x0000430e      0x12a obj\.\src\FIR_Coefficients.o
 .debug_info    0x00004438      0x30a obj\.\src\Init_Codec.o
 .debug_info    0x00004742      0x6e2 obj\.\src\Init_DMA.o
 .debug_info    0x00004e24      0x6a8 obj\.\src\Init_I2C.o
 .debug_info    0x000054cc      0x497 obj\.\src\Init_I2S.o
 .debug_info    0x00005963      0x237 obj\.\src\Keyboard_Input.o
 .debug_info    0x00005b9a     0x216f obj\.\src\main.o
 .debug_info    0x00007d09      0x107 obj\.\src\ModeSelect.o
 .debug_info    0x00007e10     0x13fd obj\.\src\PSK_Det.o
 .debug_info    0x0000920d      0xa99 obj\.\src\PSKMod.o
 .debug_info    0x00009ca6      0x4b7 obj\.\src\Si570.o
 .debug_info    0x0000a15d      0x683 obj\.\src\Sine_table.o
 .debug_info    0x0000a7e0      0x969 obj\.\src\stm32f4_discovery.o
 .debug_info    0x0000b149     0x1450 obj\.\src\stm32f4xx_it.o
 .debug_info    0x0000c599      0x641 obj\.\src\system_stm32f4xx.o
 .debug_info    0x0000cbda     0x2763 obj\.\src\TFT_Display.o
 .debug_info    0x0000f33d     0x13b3 obj\.\src\touch_pad.o
 .debug_info    0x000106f0      0x919 obj\.\src\uart.o
 .debug_info    0x00011009     0x1322 obj\.\src\usb_bsp.o
 .debug_info    0x0001232b      0x697 obj\.\src\usbh_usr.o
 .debug_info    0x000129c2      0xa5d obj\.\src\User_Button.o
 .debug_info    0x0001341f      0x3dc obj\.\src\xprintf.o
 .debug_info    0x000137fb      0x594 obj\.\externals\SM32F4-Discovery\USB\src\misc.o
 .debug_info    0x00013d8f     0x21e1 obj\.\externals\SM32F4-Discovery\USB\src\usb_core.o
 .debug_info    0x00015f70      0xd17 obj\.\externals\SM32F4-Discovery\USB\src\usb_hcd.o
 .debug_info    0x00016c87     0x1f3c obj\.\externals\SM32F4-Discovery\USB\src\usb_hcd_int.o
 .debug_info    0x00018bc3     0x1758 obj\.\externals\SM32F4-Discovery\USB\src\usbh_core.o
 .debug_info    0x0001a31b      0xbb3 obj\.\externals\SM32F4-Discovery\USB\src\usbh_hcs.o
 .debug_info    0x0001aece     0x1b39 obj\.\externals\SM32F4-Discovery\USB\src\usbh_hid_core.o
 .debug_info    0x0001ca07      0x292 obj\.\externals\SM32F4-Discovery\USB\src\usbh_hid_keybd.o
 .debug_info    0x0001cc99     0x1718 obj\.\externals\SM32F4-Discovery\USB\src\usbh_ioreq.o
 .debug_info    0x0001e3b1     0x1aa3 obj\.\externals\SM32F4-Discovery\USB\src\usbh_stdreq.o
 .debug_info    0x0001fe54      0x78f .\externals\libs\libstm32f4xx_peripherals.a(stm32f4xx_dma.o)
 .debug_info    0x000205e3      0x36c .\externals\libs\libstm32f4xx_peripherals.a(stm32f4xx_exti.o)
 .debug_info    0x0002094f      0x99f .\externals\libs\libstm32f4xx_peripherals.a(stm32f4xx_fsmc.o)
 .debug_info    0x000212ee      0x629 .\externals\libs\libstm32f4xx_peripherals.a(stm32f4xx_gpio.o)
 .debug_info    0x00021917      0xb67 .\externals\libs\libstm32f4xx_peripherals.a(stm32f4xx_i2c.o)
 .debug_info    0x0002247e      0xd01 .\externals\libs\libstm32f4xx_peripherals.a(stm32f4xx_rcc.o)
 .debug_info    0x0002317f      0xbb5 .\externals\libs\libstm32f4xx_peripherals.a(stm32f4xx_spi.o)
 .debug_info    0x00023d34      0x275 .\externals\libs\libstm32f4xx_peripherals.a(stm32f4xx_syscfg.o)
 .debug_info    0x00023fa9     0x1e96 .\externals\libs\libstm32f4xx_peripherals.a(stm32f4xx_tim.o)
 .debug_info    0x00025e3f      0xa2a .\externals\libs\libstm32f4xx_peripherals.a(stm32f4xx_usart.o)
 .debug_info    0x00026869      0x3d9 .\externals\libs\libstm32f4xx_math.a(arm_cmplx_mag_squared_q15.o)
 .debug_info    0x00026c42      0x2e7 .\externals\libs\libstm32f4xx_math.a(arm_shift_q15.o)
 .debug_info    0x00026f29      0x34d .\externals\libs\libstm32f4xx_math.a(arm_fir_decimate_q15.o)
 .debug_info    0x00027276      0x714 .\externals\libs\libstm32f4xx_math.a(arm_fir_q15.o)
 .debug_info    0x0002798a     0x17d8 .\externals\libs\libstm32f4xx_math.a(arm_cfft_radix4_q15.o)
 .debug_info    0x00029162      0x240 .\externals\libs\libstm32f4xx_math.a(arm_cfft_radix4_init_q15.o)
 .debug_info    0x000293a2      0x136 .\externals\libs\libstm32f4xx_math.a(arm_common_tables.o)

.debug_abbrev   0x00000000     0x611d
 .debug_abbrev  0x00000000       0x12 obj\.\startup\startup_stm32f4xx.o
 .debug_abbrev  0x00000012       0xd2 obj\.\src\AsciiLib.o
 .debug_abbrev  0x000000e4      0x146 obj\.\src\ChangeOver.o
 .debug_abbrev  0x0000022a       0x7a obj\.\src\Codec_Gains.o
 .debug_abbrev  0x000002a4       0xfe obj\.\src\CW_Mod.o
 .debug_abbrev  0x000003a2      0x1de obj\.\src\DMA_IRQ_Handler.o
 .debug_abbrev  0x00000580       0xfe obj\.\src\DMA_Test_Pins.o
 .debug_abbrev  0x0000067e      0x172 obj\.\src\DSP_Processing.o
 .debug_abbrev  0x000007f0       0xfc obj\.\src\eeprom.o
 .debug_abbrev  0x000008ec      0x1ca obj\.\src\Encoder_1.o
 .debug_abbrev  0x00000ab6      0x195 obj\.\src\Encoder_2.o
 .debug_abbrev  0x00000c4b       0x78 obj\.\src\FIR_Coefficients.o
 .debug_abbrev  0x00000cc3      0x113 obj\.\src\Init_Codec.o
 .debug_abbrev  0x00000dd6      0x137 obj\.\src\Init_DMA.o
 .debug_abbrev  0x00000f0d      0x20f obj\.\src\Init_I2C.o
 .debug_abbrev  0x0000111c      0x10d obj\.\src\Init_I2S.o
 .debug_abbrev  0x00001229      0x106 obj\.\src\Keyboard_Input.o
 .debug_abbrev  0x0000132f      0x27e obj\.\src\main.o
 .debug_abbrev  0x000015ad       0x9b obj\.\src\ModeSelect.o
 .debug_abbrev  0x00001648      0x272 obj\.\src\PSK_Det.o
 .debug_abbrev  0x000018ba      0x1e4 obj\.\src\PSKMod.o
 .debug_abbrev  0x00001a9e      0x152 obj\.\src\Si570.o
 .debug_abbrev  0x00001bf0       0xd0 obj\.\src\Sine_table.o
 .debug_abbrev  0x00001cc0      0x18d obj\.\src\stm32f4_discovery.o
 .debug_abbrev  0x00001e4d      0x1c9 obj\.\src\stm32f4xx_it.o
 .debug_abbrev  0x00002016      0x16c obj\.\src\system_stm32f4xx.o
 .debug_abbrev  0x00002182      0x437 obj\.\src\TFT_Display.o
 .debug_abbrev  0x000025b9      0x2e1 obj\.\src\touch_pad.o
 .debug_abbrev  0x0000289a      0x1a3 obj\.\src\uart.o
 .debug_abbrev  0x00002a3d      0x28b obj\.\src\usb_bsp.o
 .debug_abbrev  0x00002cc8      0x1ab obj\.\src\usbh_usr.o
 .debug_abbrev  0x00002e73      0x1a7 obj\.\src\User_Button.o
 .debug_abbrev  0x0000301a      0x19b obj\.\src\xprintf.o
 .debug_abbrev  0x000031b5      0x14c obj\.\externals\SM32F4-Discovery\USB\src\misc.o
 .debug_abbrev  0x00003301      0x35d obj\.\externals\SM32F4-Discovery\USB\src\usb_core.o
 .debug_abbrev  0x0000365e      0x1a9 obj\.\externals\SM32F4-Discovery\USB\src\usb_hcd.o
 .debug_abbrev  0x00003807      0x257 obj\.\externals\SM32F4-Discovery\USB\src\usb_hcd_int.o
 .debug_abbrev  0x00003a5e      0x2ee obj\.\externals\SM32F4-Discovery\USB\src\usbh_core.o
 .debug_abbrev  0x00003d4c      0x1e0 obj\.\externals\SM32F4-Discovery\USB\src\usbh_hcs.o
 .debug_abbrev  0x00003f2c      0x33d obj\.\externals\SM32F4-Discovery\USB\src\usbh_hid_core.o
 .debug_abbrev  0x00004269      0x11b obj\.\externals\SM32F4-Discovery\USB\src\usbh_hid_keybd.o
 .debug_abbrev  0x00004384      0x21e obj\.\externals\SM32F4-Discovery\USB\src\usbh_ioreq.o
 .debug_abbrev  0x000045a2      0x31e obj\.\externals\SM32F4-Discovery\USB\src\usbh_stdreq.o
 .debug_abbrev  0x000048c0      0x19c .\externals\libs\libstm32f4xx_peripherals.a(stm32f4xx_dma.o)
 .debug_abbrev  0x00004a5c      0x1cd .\externals\libs\libstm32f4xx_peripherals.a(stm32f4xx_exti.o)
 .debug_abbrev  0x00004c29      0x1b2 .\externals\libs\libstm32f4xx_peripherals.a(stm32f4xx_fsmc.o)
 .debug_abbrev  0x00004ddb      0x1ce .\externals\libs\libstm32f4xx_peripherals.a(stm32f4xx_gpio.o)
 .debug_abbrev  0x00004fa9      0x194 .\externals\libs\libstm32f4xx_peripherals.a(stm32f4xx_i2c.o)
 .debug_abbrev  0x0000513d      0x1f6 .\externals\libs\libstm32f4xx_peripherals.a(stm32f4xx_rcc.o)
 .debug_abbrev  0x00005333      0x1ac .\externals\libs\libstm32f4xx_peripherals.a(stm32f4xx_spi.o)
 .debug_abbrev  0x000054df      0x150 .\externals\libs\libstm32f4xx_peripherals.a(stm32f4xx_syscfg.o)
 .debug_abbrev  0x0000562f      0x23d .\externals\libs\libstm32f4xx_peripherals.a(stm32f4xx_tim.o)
 .debug_abbrev  0x0000586c      0x1ab .\externals\libs\libstm32f4xx_peripherals.a(stm32f4xx_usart.o)
 .debug_abbrev  0x00005a17       0xe8 .\externals\libs\libstm32f4xx_math.a(arm_cmplx_mag_squared_q15.o)
 .debug_abbrev  0x00005aff       0xb7 .\externals\libs\libstm32f4xx_math.a(arm_shift_q15.o)
 .debug_abbrev  0x00005bb6       0xef .\externals\libs\libstm32f4xx_math.a(arm_fir_decimate_q15.o)
 .debug_abbrev  0x00005ca5      0x103 .\externals\libs\libstm32f4xx_math.a(arm_fir_q15.o)
 .debug_abbrev  0x00005da8      0x1f1 .\externals\libs\libstm32f4xx_math.a(arm_cfft_radix4_q15.o)
 .debug_abbrev  0x00005f99      0x116 .\externals\libs\libstm32f4xx_math.a(arm_cfft_radix4_init_q15.o)
 .debug_abbrev  0x000060af       0x6e .\externals\libs\libstm32f4xx_math.a(arm_common_tables.o)

.debug_aranges  0x00000000      0x730
 .debug_aranges
                0x00000000       0x28 obj\.\startup\startup_stm32f4xx.o
 .debug_aranges
                0x00000028       0x20 obj\.\src\AsciiLib.o
 .debug_aranges
                0x00000048       0x20 obj\.\src\ChangeOver.o
 .debug_aranges
                0x00000068       0x20 obj\.\src\Codec_Gains.o
 .debug_aranges
                0x00000088       0x20 obj\.\src\CW_Mod.o
 .debug_aranges
                0x000000a8       0x20 obj\.\src\DMA_IRQ_Handler.o
 .debug_aranges
                0x000000c8       0x20 obj\.\src\DMA_Test_Pins.o
 .debug_aranges
                0x000000e8       0x20 obj\.\src\DSP_Processing.o
 .debug_aranges
                0x00000108       0x20 obj\.\src\eeprom.o
 .debug_aranges
                0x00000128       0x20 obj\.\src\Encoder_1.o
 .debug_aranges
                0x00000148       0x20 obj\.\src\Encoder_2.o
 .debug_aranges
                0x00000168       0x20 obj\.\src\Init_Codec.o
 .debug_aranges
                0x00000188       0x20 obj\.\src\Init_DMA.o
 .debug_aranges
                0x000001a8       0x20 obj\.\src\Init_I2C.o
 .debug_aranges
                0x000001c8       0x20 obj\.\src\Init_I2S.o
 .debug_aranges
                0x000001e8       0x20 obj\.\src\Keyboard_Input.o
 .debug_aranges
                0x00000208       0x28 obj\.\src\main.o
 .debug_aranges
                0x00000230       0x20 obj\.\src\ModeSelect.o
 .debug_aranges
                0x00000250       0x20 obj\.\src\PSK_Det.o
 .debug_aranges
                0x00000270       0x20 obj\.\src\PSKMod.o
 .debug_aranges
                0x00000290       0x20 obj\.\src\Si570.o
 .debug_aranges
                0x000002b0       0x20 obj\.\src\stm32f4_discovery.o
 .debug_aranges
                0x000002d0       0x20 obj\.\src\stm32f4xx_it.o
 .debug_aranges
                0x000002f0       0x20 obj\.\src\system_stm32f4xx.o
 .debug_aranges
                0x00000310       0x20 obj\.\src\TFT_Display.o
 .debug_aranges
                0x00000330       0x20 obj\.\src\touch_pad.o
 .debug_aranges
                0x00000350       0x20 obj\.\src\uart.o
 .debug_aranges
                0x00000370       0x20 obj\.\src\usb_bsp.o
 .debug_aranges
                0x00000390       0x20 obj\.\src\usbh_usr.o
 .debug_aranges
                0x000003b0       0x20 obj\.\src\User_Button.o
 .debug_aranges
                0x000003d0       0x20 obj\.\src\xprintf.o
 .debug_aranges
                0x000003f0       0x20 obj\.\externals\SM32F4-Discovery\USB\src\misc.o
 .debug_aranges
                0x00000410       0x20 obj\.\externals\SM32F4-Discovery\USB\src\usb_core.o
 .debug_aranges
                0x00000430       0x20 obj\.\externals\SM32F4-Discovery\USB\src\usb_hcd.o
 .debug_aranges
                0x00000450       0x20 obj\.\externals\SM32F4-Discovery\USB\src\usb_hcd_int.o
 .debug_aranges
                0x00000470       0x20 obj\.\externals\SM32F4-Discovery\USB\src\usbh_core.o
 .debug_aranges
                0x00000490       0x20 obj\.\externals\SM32F4-Discovery\USB\src\usbh_hcs.o
 .debug_aranges
                0x000004b0       0x20 obj\.\externals\SM32F4-Discovery\USB\src\usbh_hid_core.o
 .debug_aranges
                0x000004d0       0x20 obj\.\externals\SM32F4-Discovery\USB\src\usbh_hid_keybd.o
 .debug_aranges
                0x000004f0       0x20 obj\.\externals\SM32F4-Discovery\USB\src\usbh_ioreq.o
 .debug_aranges
                0x00000510       0x20 obj\.\externals\SM32F4-Discovery\USB\src\usbh_stdreq.o
 .debug_aranges
                0x00000530       0x20 .\externals\libs\libstm32f4xx_peripherals.a(stm32f4xx_dma.o)
 .debug_aranges
                0x00000550       0x20 .\externals\libs\libstm32f4xx_peripherals.a(stm32f4xx_exti.o)
 .debug_aranges
                0x00000570       0x20 .\externals\libs\libstm32f4xx_peripherals.a(stm32f4xx_fsmc.o)
 .debug_aranges
                0x00000590       0x20 .\externals\libs\libstm32f4xx_peripherals.a(stm32f4xx_gpio.o)
 .debug_aranges
                0x000005b0       0x20 .\externals\libs\libstm32f4xx_peripherals.a(stm32f4xx_i2c.o)
 .debug_aranges
                0x000005d0       0x20 .\externals\libs\libstm32f4xx_peripherals.a(stm32f4xx_rcc.o)
 .debug_aranges
                0x000005f0       0x20 .\externals\libs\libstm32f4xx_peripherals.a(stm32f4xx_spi.o)
 .debug_aranges
                0x00000610       0x20 .\externals\libs\libstm32f4xx_peripherals.a(stm32f4xx_syscfg.o)
 .debug_aranges
                0x00000630       0x20 .\externals\libs\libstm32f4xx_peripherals.a(stm32f4xx_tim.o)
 .debug_aranges
                0x00000650       0x20 .\externals\libs\libstm32f4xx_peripherals.a(stm32f4xx_usart.o)
 .debug_aranges
                0x00000670       0x20 .\externals\libs\libstm32f4xx_math.a(arm_cmplx_mag_squared_q15.o)
 .debug_aranges
                0x00000690       0x20 .\externals\libs\libstm32f4xx_math.a(arm_shift_q15.o)
 .debug_aranges
                0x000006b0       0x20 .\externals\libs\libstm32f4xx_math.a(arm_fir_decimate_q15.o)
 .debug_aranges
                0x000006d0       0x20 .\externals\libs\libstm32f4xx_math.a(arm_fir_q15.o)
 .debug_aranges
                0x000006f0       0x20 .\externals\libs\libstm32f4xx_math.a(arm_cfft_radix4_q15.o)
 .debug_aranges
                0x00000710       0x20 .\externals\libs\libstm32f4xx_math.a(arm_cfft_radix4_init_q15.o)

.debug_ranges   0x00000000      0xd40
 .debug_ranges  0x00000000       0x20 obj\.\startup\startup_stm32f4xx.o
 .debug_ranges  0x00000020       0x18 obj\.\src\Keyboard_Input.o
 .debug_ranges  0x00000038       0x30 obj\.\src\main.o
 .debug_ranges  0x00000068       0x48 obj\.\src\PSKMod.o
 .debug_ranges  0x000000b0      0x690 obj\.\src\TFT_Display.o
 .debug_ranges  0x00000740       0x18 obj\.\externals\SM32F4-Discovery\USB\src\usb_core.o
 .debug_ranges  0x00000758       0x40 obj\.\externals\SM32F4-Discovery\USB\src\usbh_hcs.o
 .debug_ranges  0x00000798       0x30 obj\.\externals\SM32F4-Discovery\USB\src\usbh_hid_core.o
 .debug_ranges  0x000007c8       0xd8 obj\.\externals\SM32F4-Discovery\USB\src\usbh_stdreq.o
 .debug_ranges  0x000008a0       0x60 .\externals\libs\libstm32f4xx_peripherals.a(stm32f4xx_tim.o)
 .debug_ranges  0x00000900       0xc8 .\externals\libs\libstm32f4xx_math.a(arm_shift_q15.o)
 .debug_ranges  0x000009c8       0x68 .\externals\libs\libstm32f4xx_math.a(arm_fir_decimate_q15.o)
 .debug_ranges  0x00000a30      0x110 .\externals\libs\libstm32f4xx_math.a(arm_fir_q15.o)
 .debug_ranges  0x00000b40      0x200 .\externals\libs\libstm32f4xx_math.a(arm_cfft_radix4_q15.o)

.debug_loc      0x00000000     0xd639
 .debug_loc     0x00000000       0xbe obj\.\src\AsciiLib.o
 .debug_loc     0x000000be       0xa0 obj\.\src\ChangeOver.o
 .debug_loc     0x0000015e      0x202 obj\.\src\Codec_Gains.o
 .debug_loc     0x00000360       0x20 obj\.\src\CW_Mod.o
 .debug_loc     0x00000380       0xc6 obj\.\src\DMA_IRQ_Handler.o
 .debug_loc     0x00000446       0x20 obj\.\src\DMA_Test_Pins.o
 .debug_loc     0x00000466       0x54 obj\.\src\DSP_Processing.o
 .debug_loc     0x000004ba      0x368 obj\.\src\eeprom.o
 .debug_loc     0x00000822       0xc0 obj\.\src\Encoder_1.o
 .debug_loc     0x000008e2       0xe0 obj\.\src\Encoder_2.o
 .debug_loc     0x000009c2       0x60 obj\.\src\Init_Codec.o
 .debug_loc     0x00000a22       0x2d obj\.\src\Init_DMA.o
 .debug_loc     0x00000a4f      0x2f7 obj\.\src\Init_I2C.o
 .debug_loc     0x00000d46       0x6a obj\.\src\Init_I2S.o
 .debug_loc     0x00000db0       0xd7 obj\.\src\Keyboard_Input.o
 .debug_loc     0x00000e87       0xd6 obj\.\src\main.o
 .debug_loc     0x00000f5d       0x20 obj\.\src\ModeSelect.o
 .debug_loc     0x00000f7d      0x680 obj\.\src\PSK_Det.o
 .debug_loc     0x000015fd      0x189 obj\.\src\PSKMod.o
 .debug_loc     0x00001786      0x3b6 obj\.\src\Si570.o
 .debug_loc     0x00001b3c       0xf1 obj\.\src\stm32f4_discovery.o
 .debug_loc     0x00001c2d       0x20 obj\.\src\stm32f4xx_it.o
 .debug_loc     0x00001c4d      0x130 obj\.\src\system_stm32f4xx.o
 .debug_loc     0x00001d7d     0x17a6 obj\.\src\TFT_Display.o
 .debug_loc     0x00003523      0x543 obj\.\src\touch_pad.o
 .debug_loc     0x00003a66       0x7f obj\.\src\uart.o
 .debug_loc     0x00003ae5      0x18f obj\.\src\usb_bsp.o
 .debug_loc     0x00003c74      0x109 obj\.\src\usbh_usr.o
 .debug_loc     0x00003d7d       0x80 obj\.\src\User_Button.o
 .debug_loc     0x00003dfd      0x6e1 obj\.\src\xprintf.o
 .debug_loc     0x000044de      0x112 obj\.\externals\SM32F4-Discovery\USB\src\misc.o
 .debug_loc     0x000045f0      0xa00 obj\.\externals\SM32F4-Discovery\USB\src\usb_core.o
 .debug_loc     0x00004ff0      0x1a9 obj\.\externals\SM32F4-Discovery\USB\src\usb_hcd.o
 .debug_loc     0x00005199      0x652 obj\.\externals\SM32F4-Discovery\USB\src\usb_hcd_int.o
 .debug_loc     0x000057eb      0x435 obj\.\externals\SM32F4-Discovery\USB\src\usbh_core.o
 .debug_loc     0x00005c20      0x20d obj\.\externals\SM32F4-Discovery\USB\src\usbh_hcs.o
 .debug_loc     0x00005e2d      0x475 obj\.\externals\SM32F4-Discovery\USB\src\usbh_hid_core.o
 .debug_loc     0x000062a2       0xd8 obj\.\externals\SM32F4-Discovery\USB\src\usbh_hid_keybd.o
 .debug_loc     0x0000637a      0x555 obj\.\externals\SM32F4-Discovery\USB\src\usbh_ioreq.o
 .debug_loc     0x000068cf      0x708 obj\.\externals\SM32F4-Discovery\USB\src\usbh_stdreq.o
 .debug_loc     0x00006fd7      0x33e .\externals\libs\libstm32f4xx_peripherals.a(stm32f4xx_dma.o)
 .debug_loc     0x00007315      0x146 .\externals\libs\libstm32f4xx_peripherals.a(stm32f4xx_exti.o)
 .debug_loc     0x0000745b      0x356 .\externals\libs\libstm32f4xx_peripherals.a(stm32f4xx_fsmc.o)
 .debug_loc     0x000077b1      0x283 .\externals\libs\libstm32f4xx_peripherals.a(stm32f4xx_gpio.o)
 .debug_loc     0x00007a34      0x604 .\externals\libs\libstm32f4xx_peripherals.a(stm32f4xx_i2c.o)
 .debug_loc     0x00008038      0x64e .\externals\libs\libstm32f4xx_peripherals.a(stm32f4xx_rcc.o)
 .debug_loc     0x00008686      0x544 .\externals\libs\libstm32f4xx_peripherals.a(stm32f4xx_spi.o)
 .debug_loc     0x00008bca       0x9d .\externals\libs\libstm32f4xx_peripherals.a(stm32f4xx_syscfg.o)
 .debug_loc     0x00008c67     0x1266 .\externals\libs\libstm32f4xx_peripherals.a(stm32f4xx_tim.o)
 .debug_loc     0x00009ecd      0x52c .\externals\libs\libstm32f4xx_peripherals.a(stm32f4xx_usart.o)
 .debug_loc     0x0000a3f9      0x3cd .\externals\libs\libstm32f4xx_math.a(arm_cmplx_mag_squared_q15.o)
 .debug_loc     0x0000a7c6      0x372 .\externals\libs\libstm32f4xx_math.a(arm_shift_q15.o)
 .debug_loc     0x0000ab38      0x42f .\externals\libs\libstm32f4xx_math.a(arm_fir_decimate_q15.o)
 .debug_loc     0x0000af67      0xa6c .\externals\libs\libstm32f4xx_math.a(arm_fir_q15.o)
 .debug_loc     0x0000b9d3     0x1bdf .\externals\libs\libstm32f4xx_math.a(arm_cfft_radix4_q15.o)
 .debug_loc     0x0000d5b2       0x87 .\externals\libs\libstm32f4xx_math.a(arm_cfft_radix4_init_q15.o)

.debug_str      0x00000000     0x7e69
 .debug_str     0x00000000      0x15f obj\.\src\AsciiLib.o
                                0x198 (size before relaxing)
 .debug_str     0x0000015f      0x320 obj\.\src\ChangeOver.o
                                0x43f (size before relaxing)
 .debug_str     0x0000047f       0xe1 obj\.\src\Codec_Gains.o
                                0x1f1 (size before relaxing)
 .debug_str     0x00000560       0x2f obj\.\src\CW_Mod.o
                                0x2dc (size before relaxing)
 .debug_str     0x0000058f      0x593 obj\.\src\DMA_IRQ_Handler.o
                                0x7d4 (size before relaxing)
 .debug_str     0x00000b22       0x25 obj\.\src\DMA_Test_Pins.o
                                0x2e5 (size before relaxing)
 .debug_str     0x00000b47      0x14e obj\.\src\DSP_Processing.o
                                0x730 (size before relaxing)
 .debug_str     0x00000c95      0x103 obj\.\src\eeprom.o
                                0x288 (size before relaxing)
 .debug_str     0x00000d98      0x7b0 obj\.\src\Encoder_1.o
                                0xaee (size before relaxing)
 .debug_str     0x00001548       0xb5 obj\.\src\Encoder_2.o
                                0x5e5 (size before relaxing)
 .debug_str     0x000015fd       0x19 obj\.\src\FIR_Coefficients.o
                                0x171 (size before relaxing)
 .debug_str     0x00001616       0x3a obj\.\src\Init_Codec.o
                                0x32a (size before relaxing)
 .debug_str     0x00001650      0x1c3 obj\.\src\Init_DMA.o
                                0x90d (size before relaxing)
 .debug_str     0x00001813      0x149 obj\.\src\Init_I2C.o
                                0x4b4 (size before relaxing)
 .debug_str     0x0000195c       0xa6 obj\.\src\Init_I2S.o
                                0x41e (size before relaxing)
 .debug_str     0x00001a02       0x61 obj\.\src\Keyboard_Input.o
                                0x1db (size before relaxing)
 .debug_str     0x00001a63      0xe74 obj\.\src\main.o
                               0x1729 (size before relaxing)
 .debug_str     0x000028d7       0x2e obj\.\src\ModeSelect.o
                                0x161 (size before relaxing)
 .debug_str     0x00002905      0x20d obj\.\src\PSK_Det.o
                                0x878 (size before relaxing)
 .debug_str     0x00002b12       0xfe obj\.\src\PSKMod.o
                                0x58d (size before relaxing)
 .debug_str     0x00002c10      0x133 obj\.\src\Si570.o
                                0x2cf (size before relaxing)
 .debug_str     0x00002d43       0x13 obj\.\src\Sine_table.o
                                0x42f (size before relaxing)
 .debug_str     0x00002d56      0x196 obj\.\src\stm32f4_discovery.o
                                0xad4 (size before relaxing)
 .debug_str     0x00002eec       0xd8 obj\.\src\stm32f4xx_it.o
                               0x10f9 (size before relaxing)
 .debug_str     0x00002fc4      0x1b7 obj\.\src\system_stm32f4xx.o
                                0x33c (size before relaxing)
 .debug_str     0x0000317b      0x7fa obj\.\src\TFT_Display.o
                                0xf00 (size before relaxing)
 .debug_str     0x00003975      0x19a obj\.\src\touch_pad.o
                                0xf96 (size before relaxing)
 .debug_str     0x00003b0f      0x188 obj\.\src\uart.o
                                0xa50 (size before relaxing)
 .debug_str     0x00003c97      0x10b obj\.\src\usb_bsp.o
                               0x1073 (size before relaxing)
 .debug_str     0x00003da2      0x260 obj\.\src\usbh_usr.o
                                0x696 (size before relaxing)
 .debug_str     0x00004002       0x5e obj\.\src\User_Button.o
                                0x768 (size before relaxing)
 .debug_str     0x00004060       0x7f obj\.\src\xprintf.o
                                0x14e (size before relaxing)
 .debug_str     0x000040df      0x156 obj\.\externals\SM32F4-Discovery\USB\src\misc.o
                                0x384 (size before relaxing)
 .debug_str     0x00004235      0x9b1 obj\.\externals\SM32F4-Discovery\USB\src\usb_core.o
                               0x1200 (size before relaxing)
 .debug_str     0x00004be6       0xd8 obj\.\externals\SM32F4-Discovery\USB\src\usb_hcd.o
                                0x84d (size before relaxing)
 .debug_str     0x00004cbe      0x2ca obj\.\externals\SM32F4-Discovery\USB\src\usb_hcd_int.o
                                0xe54 (size before relaxing)
 .debug_str     0x00004f88      0x125 obj\.\externals\SM32F4-Discovery\USB\src\usbh_core.o
                               0x11f9 (size before relaxing)
 .debug_str     0x000050ad       0xbe obj\.\externals\SM32F4-Discovery\USB\src\usbh_hcs.o
                                0x7b0 (size before relaxing)
 .debug_str     0x0000516b      0x360 obj\.\externals\SM32F4-Discovery\USB\src\usbh_hid_core.o
                               0x13a2 (size before relaxing)
 .debug_str     0x000054cb       0xc4 obj\.\externals\SM32F4-Discovery\USB\src\usbh_hid_keybd.o
                                0x235 (size before relaxing)
 .debug_str     0x0000558f      0x10c obj\.\externals\SM32F4-Discovery\USB\src\usbh_ioreq.o
                               0x111f (size before relaxing)
 .debug_str     0x0000569b      0x224 obj\.\externals\SM32F4-Discovery\USB\src\usbh_stdreq.o
                               0x1249 (size before relaxing)
 .debug_str     0x000058bf      0x2bd .\externals\libs\libstm32f4xx_peripherals.a(stm32f4xx_dma.o)
                                0x4e4 (size before relaxing)
 .debug_str     0x00005b7c       0xc7 .\externals\libs\libstm32f4xx_peripherals.a(stm32f4xx_exti.o)
                                0x306 (size before relaxing)
 .debug_str     0x00005c43      0x3bf .\externals\libs\libstm32f4xx_peripherals.a(stm32f4xx_fsmc.o)
                                0x72c (size before relaxing)
 .debug_str     0x00006002      0x133 .\externals\libs\libstm32f4xx_peripherals.a(stm32f4xx_gpio.o)
                                0x43b (size before relaxing)
 .debug_str     0x00006135      0x359 .\externals\libs\libstm32f4xx_peripherals.a(stm32f4xx_i2c.o)
                                0x5fd (size before relaxing)
 .debug_str     0x0000648e      0x4c4 .\externals\libs\libstm32f4xx_peripherals.a(stm32f4xx_rcc.o)
                                0x7e8 (size before relaxing)
 .debug_str     0x00006952      0x263 .\externals\libs\libstm32f4xx_peripherals.a(stm32f4xx_spi.o)
                                0x622 (size before relaxing)
 .debug_str     0x00006bb5      0x12a .\externals\libs\libstm32f4xx_peripherals.a(stm32f4xx_syscfg.o)
                                0x297 (size before relaxing)
 .debug_str     0x00006cdf      0x9bc .\externals\libs\libstm32f4xx_peripherals.a(stm32f4xx_tim.o)
                                0xd68 (size before relaxing)
 .debug_str     0x0000769b      0x371 .\externals\libs\libstm32f4xx_peripherals.a(stm32f4xx_usart.o)
                                0x627 (size before relaxing)
 .debug_str     0x00007a0c       0xe3 .\externals\libs\libstm32f4xx_math.a(arm_cmplx_mag_squared_q15.o)
                                0x1d5 (size before relaxing)
 .debug_str     0x00007aef       0x59 .\externals\libs\libstm32f4xx_math.a(arm_shift_q15.o)
                                0x1b5 (size before relaxing)
 .debug_str     0x00007b48       0x7f .\externals\libs\libstm32f4xx_math.a(arm_fir_decimate_q15.o)
                                0x23f (size before relaxing)
 .debug_str     0x00007bc7       0x37 .\externals\libs\libstm32f4xx_math.a(arm_fir_q15.o)
                                0x21e (size before relaxing)
 .debug_str     0x00007bfe      0x12a .\externals\libs\libstm32f4xx_math.a(arm_cfft_radix4_q15.o)
                                0x2fc (size before relaxing)
 .debug_str     0x00007d28       0xfe .\externals\libs\libstm32f4xx_math.a(arm_cfft_radix4_init_q15.o)
                                0x2ac (size before relaxing)
 .debug_str     0x00007e26       0x43 .\externals\libs\libstm32f4xx_math.a(arm_common_tables.o)
                                0x18f (size before relaxing)

.comment        0x00000000       0xaa
 .comment       0x00000000       0x70 obj\.\src\AsciiLib.o
                                 0x71 (size before relaxing)
 .comment       0x00000000       0x71 obj\.\src\ChangeOver.o
 .comment       0x00000000       0x71 obj\.\src\Codec_Gains.o
 .comment       0x00000000       0x71 obj\.\src\CW_Mod.o
 .comment       0x00000000       0x71 obj\.\src\DMA_IRQ_Handler.o
 .comment       0x00000000       0x71 obj\.\src\DMA_Test_Pins.o
 .comment       0x00000000       0x71 obj\.\src\DSP_Processing.o
 .comment       0x00000000       0x71 obj\.\src\eeprom.o
 .comment       0x00000000       0x71 obj\.\src\Encoder_1.o
 .comment       0x00000000       0x71 obj\.\src\Encoder_2.o
 .comment       0x00000000       0x71 obj\.\src\FIR_Coefficients.o
 .comment       0x00000000       0x71 obj\.\src\Init_Codec.o
 .comment       0x00000000       0x71 obj\.\src\Init_DMA.o
 .comment       0x00000000       0x71 obj\.\src\Init_I2C.o
 .comment       0x00000000       0x71 obj\.\src\Init_I2S.o
 .comment       0x00000000       0x71 obj\.\src\Keyboard_Input.o
 .comment       0x00000000       0x71 obj\.\src\main.o
 .comment       0x00000000       0x71 obj\.\src\ModeSelect.o
 .comment       0x00000000       0x71 obj\.\src\PSK_Det.o
 .comment       0x00000000       0x71 obj\.\src\PSKMod.o
 .comment       0x00000000       0x71 obj\.\src\Si570.o
 .comment       0x00000000       0x71 obj\.\src\Sine_table.o
 .comment       0x00000000       0x71 obj\.\src\stm32f4_discovery.o
 .comment       0x00000000       0x71 obj\.\src\stm32f4xx_it.o
 .comment       0x00000000       0x71 obj\.\src\system_stm32f4xx.o
 .comment       0x00000000       0x71 obj\.\src\TFT_Display.o
 .comment       0x00000000       0x71 obj\.\src\touch_pad.o
 .comment       0x00000000       0x71 obj\.\src\uart.o
 .comment       0x00000000       0x71 obj\.\src\usb_bsp.o
 .comment       0x00000000       0x71 obj\.\src\usbh_usr.o
 .comment       0x00000000       0x71 obj\.\src\User_Button.o
 .comment       0x00000000       0x71 obj\.\src\xprintf.o
 .comment       0x00000000       0x71 obj\.\externals\SM32F4-Discovery\USB\src\misc.o
 .comment       0x00000000       0x71 obj\.\externals\SM32F4-Discovery\USB\src\usb_core.o
 .comment       0x00000000       0x71 obj\.\externals\SM32F4-Discovery\USB\src\usb_hcd.o
 .comment       0x00000000       0x71 obj\.\externals\SM32F4-Discovery\USB\src\usb_hcd_int.o
 .comment       0x00000000       0x71 obj\.\externals\SM32F4-Discovery\USB\src\usbh_core.o
 .comment       0x00000000       0x71 obj\.\externals\SM32F4-Discovery\USB\src\usbh_hcs.o
 .comment       0x00000000       0x71 obj\.\externals\SM32F4-Discovery\USB\src\usbh_hid_core.o
 .comment       0x00000000       0x71 obj\.\externals\SM32F4-Discovery\USB\src\usbh_hid_keybd.o
 .comment       0x00000000       0x71 obj\.\externals\SM32F4-Discovery\USB\src\usbh_ioreq.o
 .comment       0x00000000       0x71 obj\.\externals\SM32F4-Discovery\USB\src\usbh_stdreq.o
 .comment       0x00000070       0x3a .\externals\libs\libstm32f4xx_peripherals.a(stm32f4xx_dma.o)
                                 0x3b (size before relaxing)
 .comment       0x00000000       0x3b .\externals\libs\libstm32f4xx_peripherals.a(stm32f4xx_exti.o)
 .comment       0x00000000       0x3b .\externals\libs\libstm32f4xx_peripherals.a(stm32f4xx_fsmc.o)
 .comment       0x00000000       0x3b .\externals\libs\libstm32f4xx_peripherals.a(stm32f4xx_gpio.o)
 .comment       0x00000000       0x3b .\externals\libs\libstm32f4xx_peripherals.a(stm32f4xx_i2c.o)
 .comment       0x00000000       0x3b .\externals\libs\libstm32f4xx_peripherals.a(stm32f4xx_rcc.o)
 .comment       0x00000000       0x3b .\externals\libs\libstm32f4xx_peripherals.a(stm32f4xx_spi.o)
 .comment       0x00000000       0x3b .\externals\libs\libstm32f4xx_peripherals.a(stm32f4xx_syscfg.o)
 .comment       0x00000000       0x3b .\externals\libs\libstm32f4xx_peripherals.a(stm32f4xx_tim.o)
 .comment       0x00000000       0x3b .\externals\libs\libstm32f4xx_peripherals.a(stm32f4xx_usart.o)
 .comment       0x00000000       0x3b .\externals\libs\libstm32f4xx_math.a(arm_cmplx_mag_squared_q15.o)
 .comment       0x00000000       0x3b .\externals\libs\libstm32f4xx_math.a(arm_shift_q15.o)
 .comment       0x00000000       0x3b .\externals\libs\libstm32f4xx_math.a(arm_fir_decimate_q15.o)
 .comment       0x00000000       0x3b .\externals\libs\libstm32f4xx_math.a(arm_fir_q15.o)
 .comment       0x00000000       0x3b .\externals\libs\libstm32f4xx_math.a(arm_cfft_radix4_q15.o)
 .comment       0x00000000       0x3b .\externals\libs\libstm32f4xx_math.a(arm_cfft_radix4_init_q15.o)
 .comment       0x00000000       0x3b .\externals\libs\libstm32f4xx_math.a(arm_common_tables.o)

.debug_frame    0x00000000     0x417c
 .debug_frame   0x00000000       0x60 obj\.\src\AsciiLib.o
 .debug_frame   0x00000060       0xb0 obj\.\src\ChangeOver.o
 .debug_frame   0x00000110      0x148 obj\.\src\Codec_Gains.o
 .debug_frame   0x00000258       0x30 obj\.\src\CW_Mod.o
 .debug_frame   0x00000288       0xec obj\.\src\DMA_IRQ_Handler.o
 .debug_frame   0x00000374       0x30 obj\.\src\DMA_Test_Pins.o
 .debug_frame   0x000003a4       0x74 obj\.\src\DSP_Processing.o
 .debug_frame   0x00000418      0x120 obj\.\src\eeprom.o
 .debug_frame   0x00000538       0xf4 obj\.\src\Encoder_1.o
 .debug_frame   0x0000062c      0x108 obj\.\src\Encoder_2.o
 .debug_frame   0x00000734       0x68 obj\.\src\Init_Codec.o
 .debug_frame   0x0000079c       0x54 obj\.\src\Init_DMA.o
 .debug_frame   0x000007f0      0x128 obj\.\src\Init_I2C.o
 .debug_frame   0x00000918       0x58 obj\.\src\Init_I2S.o
 .debug_frame   0x00000970       0x64 obj\.\src\Keyboard_Input.o
 .debug_frame   0x000009d4       0x8c obj\.\src\main.o
 .debug_frame   0x00000a60       0x3c obj\.\src\ModeSelect.o
 .debug_frame   0x00000a9c      0x258 obj\.\src\PSK_Det.o
 .debug_frame   0x00000cf4       0xb0 obj\.\src\PSKMod.o
 .debug_frame   0x00000da4      0x188 obj\.\src\Si570.o
 .debug_frame   0x00000f2c       0xa8 obj\.\src\stm32f4_discovery.o
 .debug_frame   0x00000fd4       0xdc obj\.\src\stm32f4xx_it.o
 .debug_frame   0x000010b0       0x34 obj\.\src\system_stm32f4xx.o
 .debug_frame   0x000010e4      0x5d0 obj\.\src\TFT_Display.o
 .debug_frame   0x000016b4      0x1a8 obj\.\src\touch_pad.o
 .debug_frame   0x0000185c       0x80 obj\.\src\uart.o
 .debug_frame   0x000018dc      0x104 obj\.\src\usb_bsp.o
 .debug_frame   0x000019e0      0x16c obj\.\src\usbh_usr.o
 .debug_frame   0x00001b4c       0x88 obj\.\src\User_Button.o
 .debug_frame   0x00001bd4      0x14c obj\.\src\xprintf.o
 .debug_frame   0x00001d20       0x6c obj\.\externals\SM32F4-Discovery\USB\src\misc.o
 .debug_frame   0x00001d8c      0x2c0 obj\.\externals\SM32F4-Discovery\USB\src\usb_core.o
 .debug_frame   0x0000204c       0xe0 obj\.\externals\SM32F4-Discovery\USB\src\usb_hcd.o
 .debug_frame   0x0000212c      0x16c obj\.\externals\SM32F4-Discovery\USB\src\usb_hcd_int.o
 .debug_frame   0x00002298       0xe8 obj\.\externals\SM32F4-Discovery\USB\src\usbh_core.o
 .debug_frame   0x00002380       0x94 obj\.\externals\SM32F4-Discovery\USB\src\usbh_hcs.o
 .debug_frame   0x00002414       0xd0 obj\.\externals\SM32F4-Discovery\USB\src\usbh_hid_core.o
 .debug_frame   0x000024e4       0x4c obj\.\externals\SM32F4-Discovery\USB\src\usbh_hid_keybd.o
 .debug_frame   0x00002530      0x14c obj\.\externals\SM32F4-Discovery\USB\src\usbh_ioreq.o
 .debug_frame   0x0000267c      0x130 obj\.\externals\SM32F4-Discovery\USB\src\usbh_stdreq.o
 .debug_frame   0x000027ac      0x17c .\externals\libs\libstm32f4xx_peripherals.a(stm32f4xx_dma.o)
 .debug_frame   0x00002928       0x9c .\externals\libs\libstm32f4xx_peripherals.a(stm32f4xx_exti.o)
 .debug_frame   0x000029c4      0x174 .\externals\libs\libstm32f4xx_peripherals.a(stm32f4xx_fsmc.o)
 .debug_frame   0x00002b38      0x128 .\externals\libs\libstm32f4xx_peripherals.a(stm32f4xx_gpio.o)
 .debug_frame   0x00002c60      0x250 .\externals\libs\libstm32f4xx_peripherals.a(stm32f4xx_i2c.o)
 .debug_frame   0x00002eb0      0x2ec .\externals\libs\libstm32f4xx_peripherals.a(stm32f4xx_rcc.o)
 .debug_frame   0x0000319c      0x1e4 .\externals\libs\libstm32f4xx_peripherals.a(stm32f4xx_spi.o)
 .debug_frame   0x00003380       0x88 .\externals\libs\libstm32f4xx_peripherals.a(stm32f4xx_syscfg.o)
 .debug_frame   0x00003408      0x6a0 .\externals\libs\libstm32f4xx_peripherals.a(stm32f4xx_tim.o)
 .debug_frame   0x00003aa8      0x220 .\externals\libs\libstm32f4xx_peripherals.a(stm32f4xx_usart.o)
 .debug_frame   0x00003cc8       0x38 .\externals\libs\libstm32f4xx_math.a(arm_cmplx_mag_squared_q15.o)
 .debug_frame   0x00003d00       0x38 .\externals\libs\libstm32f4xx_math.a(arm_shift_q15.o)
 .debug_frame   0x00003d38       0x44 .\externals\libs\libstm32f4xx_math.a(arm_fir_decimate_q15.o)
 .debug_frame   0x00003d7c       0x44 .\externals\libs\libstm32f4xx_math.a(arm_fir_q15.o)
 .debug_frame   0x00003dc0       0xc8 .\externals\libs\libstm32f4xx_math.a(arm_cfft_radix4_q15.o)
 .debug_frame   0x00003e88       0x2c .\externals\libs\libstm32f4xx_math.a(arm_cfft_radix4_init_q15.o)
 .debug_frame   0x00003eb4       0x20 c:/program files/gnu tools arm embedded/4.6 2012q2/bin/../lib/gcc/arm-none-eabi/4.6.2/../../../../arm-none-eabi/lib/armv7e-m/fpu\libm.a(lib_a-w_atan2.o)
 .debug_frame   0x00003ed4       0x38 c:/program files/gnu tools arm embedded/4.6 2012q2/bin/../lib/gcc/arm-none-eabi/4.6.2/../../../../arm-none-eabi/lib/armv7e-m/fpu\libm.a(lib_a-w_fmod.o)
 .debug_frame   0x00003f0c       0x38 c:/program files/gnu tools arm embedded/4.6 2012q2/bin/../lib/gcc/arm-none-eabi/4.6.2/../../../../arm-none-eabi/lib/armv7e-m/fpu\libm.a(lib_a-w_log.o)
 .debug_frame   0x00003f44       0x34 c:/program files/gnu tools arm embedded/4.6 2012q2/bin/../lib/gcc/arm-none-eabi/4.6.2/../../../../arm-none-eabi/lib/armv7e-m/fpu\libm.a(lib_a-w_sqrt.o)
 .debug_frame   0x00003f78       0x30 c:/program files/gnu tools arm embedded/4.6 2012q2/bin/../lib/gcc/arm-none-eabi/4.6.2/../../../../arm-none-eabi/lib/armv7e-m/fpu\libm.a(lib_a-e_atan2.o)
 .debug_frame   0x00003fa8       0x30 c:/program files/gnu tools arm embedded/4.6 2012q2/bin/../lib/gcc/arm-none-eabi/4.6.2/../../../../arm-none-eabi/lib/armv7e-m/fpu\libm.a(lib_a-e_fmod.o)
 .debug_frame   0x00003fd8       0x38 c:/program files/gnu tools arm embedded/4.6 2012q2/bin/../lib/gcc/arm-none-eabi/4.6.2/../../../../arm-none-eabi/lib/armv7e-m/fpu\libm.a(lib_a-e_log.o)
 .debug_frame   0x00004010       0x3c c:/program files/gnu tools arm embedded/4.6 2012q2/bin/../lib/gcc/arm-none-eabi/4.6.2/../../../../arm-none-eabi/lib/armv7e-m/fpu\libm.a(lib_a-e_sqrt.o)
 .debug_frame   0x0000404c       0x38 c:/program files/gnu tools arm embedded/4.6 2012q2/bin/../lib/gcc/arm-none-eabi/4.6.2/../../../../arm-none-eabi/lib/armv7e-m/fpu\libm.a(lib_a-s_atan.o)
 .debug_frame   0x00004084       0x20 c:/program files/gnu tools arm embedded/4.6 2012q2/bin/../lib/gcc/arm-none-eabi/4.6.2/../../../../arm-none-eabi/lib/armv7e-m/fpu\libm.a(lib_a-s_fabs.o)
 .debug_frame   0x000040a4       0x20 c:/program files/gnu tools arm embedded/4.6 2012q2/bin/../lib/gcc/arm-none-eabi/4.6.2/../../../../arm-none-eabi/lib/armv7e-m/fpu\libm.a(lib_a-s_fpclassify.o)
 .debug_frame   0x000040c4       0x20 c:/program files/gnu tools arm embedded/4.6 2012q2/bin/../lib/gcc/arm-none-eabi/4.6.2/../../../../arm-none-eabi/lib/armv7e-m/fpu\libm.a(lib_a-s_matherr.o)
 .debug_frame   0x000040e4       0x20 c:/program files/gnu tools arm embedded/4.6 2012q2/bin/../lib/gcc/arm-none-eabi/4.6.2/../../../../arm-none-eabi/lib/armv7e-m/fpu\libm.a(lib_a-s_nan.o)
 .debug_frame   0x00004104       0x20 c:/program files/gnu tools arm embedded/4.6 2012q2/bin/../lib/gcc/arm-none-eabi/4.6.2/../../../../arm-none-eabi/lib/armv7e-m/fpu\libc.a(lib_a-errno.o)
 .debug_frame   0x00004124       0x2c c:/program files/gnu tools arm embedded/4.6 2012q2/bin/../lib/gcc/arm-none-eabi/4.6.2/../../../../arm-none-eabi/lib/armv7e-m/fpu\libc.a(lib_a-memcpy.o)
 .debug_frame   0x00004150       0x2c c:/program files/gnu tools arm embedded/4.6 2012q2/bin/../lib/gcc/arm-none-eabi/4.6.2/../../../../arm-none-eabi/lib/armv7e-m/fpu\libc.a(lib_a-memset.o)

Cross Reference Table

Symbol                                            File
A                                                 obj\.\src\DMA_IRQ_Handler.o
ADC_Buffer                                        obj\.\src\PSK_Det.o
                                                  obj\.\src\main.o
                                                  obj\.\src\DSP_Processing.o
                                                  obj\.\src\DMA_IRQ_Handler.o
ADC_IRQHandler                                    obj\.\startup\startup_stm32f4xx.o
AHBPrescTable                                     obj\.\src\system_stm32f4xx.o
ASCII12x12                                        obj\.\src\AsciiLib.o
ASCII16x24                                        obj\.\src\AsciiLib.o
Amp0                                              obj\.\src\DMA_IRQ_Handler.o
Audio_DMA_Init                                    obj\.\src\Init_DMA.o
                                                  obj\.\src\main.o
Audio_DMA_Start                                   obj\.\src\Init_DMA.o
                                                  obj\.\src\main.o
B                                                 obj\.\src\DMA_IRQ_Handler.o
BSP_Init                                          obj\.\src\usb_bsp.o
BSP_delay                                         obj\.\src\usb_bsp.o
BT_Flag                                           obj\.\src\User_Button.o
BT_Flag_Config                                    obj\.\src\User_Button.o
BUTTON_CLK                                        obj\.\src\stm32f4_discovery.o
BUTTON_EXTI_LINE                                  obj\.\src\stm32f4_discovery.o
BUTTON_IRQn                                       obj\.\src\stm32f4_discovery.o
BUTTON_PIN                                        obj\.\src\stm32f4_discovery.o
BUTTON_PIN_SOURCE                                 obj\.\src\stm32f4_discovery.o
BUTTON_PORT                                       obj\.\src\stm32f4_discovery.o
BUTTON_PORT_SOURCE                                obj\.\src\stm32f4_discovery.o
BackColor                                         obj\.\src\TFT_Display.o
BusFault_Handler                                  obj\.\src\stm32f4xx_it.o
                                                  obj\.\startup\startup_stm32f4xx.o
CAN1_RX0_IRQHandler                               obj\.\startup\startup_stm32f4xx.o
CAN1_RX1_IRQHandler                               obj\.\startup\startup_stm32f4xx.o
CAN1_SCE_IRQHandler                               obj\.\startup\startup_stm32f4xx.o
CAN1_TX_IRQHandler                                obj\.\startup\startup_stm32f4xx.o
CAN2_RX0_IRQHandler                               obj\.\startup\startup_stm32f4xx.o
CAN2_RX1_IRQHandler                               obj\.\startup\startup_stm32f4xx.o
CAN2_SCE_IRQHandler                               obj\.\startup\startup_stm32f4xx.o
CAN2_TX_IRQHandler                                obj\.\startup\startup_stm32f4xx.o
CODEC_FREQUENCY                                   obj\.\src\main.o
COM_RX_AF                                         obj\.\src\uart.o
COM_RX_PIN                                        obj\.\src\uart.o
COM_RX_PIN_SOURCE                                 obj\.\src\uart.o
COM_RX_PORT                                       obj\.\src\uart.o
COM_RX_PORT_CLK                                   obj\.\src\uart.o
COM_TX_AF                                         obj\.\src\uart.o
COM_TX_PIN                                        obj\.\src\uart.o
COM_TX_PIN_SOURCE                                 obj\.\src\uart.o
COM_TX_PORT                                       obj\.\src\uart.o
COM_TX_PORT_CLK                                   obj\.\src\uart.o
COM_USART                                         obj\.\src\uart.o
COM_USART_CLK                                     obj\.\src\uart.o
CPSKInitDet                                       obj\.\src\PSK_Det.o
CRYP_IRQHandler                                   obj\.\startup\startup_stm32f4xx.o
CW_Gain                                           obj\.\src\touch_pad.o
                                                  obj\.\src\main.o
                                                  obj\.\src\Encoder_2.o
                                                  obj\.\src\DMA_IRQ_Handler.o
                                                  obj\.\src\ChangeOver.o
CalcAGC                                           obj\.\src\PSK_Det.o
CalcFFreqError                                    obj\.\src\PSK_Det.o
CalcFreqError                                     obj\.\src\PSK_Det.o
CalcQuality                                       obj\.\src\PSK_Det.o
Channel1Pulse                                     obj\.\src\TFT_Display.o
Check_BT_Flag                                     obj\.\src\User_Button.o
Check_SI570                                       obj\.\src\Si570.o
                                                  obj\.\src\Encoder_1.o
Codec_AudioInterface_Init                         obj\.\src\Init_I2S.o
                                                  obj\.\src\main.o
Codec_GPIO_Init                                   obj\.\src\Init_Codec.o
                                                  obj\.\src\Init_I2S.o
Codec_Init                                        obj\.\src\Init_Codec.o
                                                  obj\.\src\Init_I2S.o
Codec_Reset                                       obj\.\src\Init_Codec.o
Compute_FXTAL                                     obj\.\src\Si570.o
                                                  obj\.\src\Encoder_1.o
Connect_IQ_Inputs                                 obj\.\src\Codec_Gains.o
                                                  obj\.\src\ChangeOver.o
Connect_Microphone_Input                          obj\.\src\Codec_Gains.o
                                                  obj\.\src\ChangeOver.o
DCMI_IRQHandler                                   obj\.\startup\startup_stm32f4xx.o
DIR1                                              obj\.\src\Encoder_1.o
DIR2                                              obj\.\src\Encoder_2.o
DMA1_Stream0_IRQHandler                           obj\.\src\DMA_IRQ_Handler.o
                                                  obj\.\startup\startup_stm32f4xx.o
DMA1_Stream1_IRQHandler                           obj\.\startup\startup_stm32f4xx.o
DMA1_Stream2_IRQHandler                           obj\.\startup\startup_stm32f4xx.o
DMA1_Stream3_IRQHandler                           obj\.\startup\startup_stm32f4xx.o
DMA1_Stream4_IRQHandler                           obj\.\startup\startup_stm32f4xx.o
DMA1_Stream5_IRQHandler                           obj\.\startup\startup_stm32f4xx.o
DMA1_Stream6_IRQHandler                           obj\.\startup\startup_stm32f4xx.o
DMA1_Stream7_IRQHandler                           obj\.\startup\startup_stm32f4xx.o
DMA2_Stream0_IRQHandler                           obj\.\startup\startup_stm32f4xx.o
DMA2_Stream1_IRQHandler                           obj\.\startup\startup_stm32f4xx.o
DMA2_Stream2_IRQHandler                           obj\.\startup\startup_stm32f4xx.o
DMA2_Stream3_IRQHandler                           obj\.\startup\startup_stm32f4xx.o
DMA2_Stream4_IRQHandler                           obj\.\startup\startup_stm32f4xx.o
DMA2_Stream5_IRQHandler                           obj\.\startup\startup_stm32f4xx.o
DMA2_Stream6_IRQHandler                           obj\.\startup\startup_stm32f4xx.o
DMA2_Stream7_IRQHandler                           obj\.\startup\startup_stm32f4xx.o
DMA_ClearFlag                                     .\externals\libs\libstm32f4xx_peripherals.a(stm32f4xx_dma.o)
DMA_ClearITPendingBit                             .\externals\libs\libstm32f4xx_peripherals.a(stm32f4xx_dma.o)
                                                  obj\.\src\DMA_IRQ_Handler.o
DMA_Cmd                                           .\externals\libs\libstm32f4xx_peripherals.a(stm32f4xx_dma.o)
                                                  obj\.\src\Init_DMA.o
DMA_DeInit                                        .\externals\libs\libstm32f4xx_peripherals.a(stm32f4xx_dma.o)
                                                  obj\.\src\Init_DMA.o
DMA_DoubleBufferModeCmd                           .\externals\libs\libstm32f4xx_peripherals.a(stm32f4xx_dma.o)
                                                  obj\.\src\Init_DMA.o
DMA_DoubleBufferModeConfig                        .\externals\libs\libstm32f4xx_peripherals.a(stm32f4xx_dma.o)
                                                  obj\.\src\Init_DMA.o
DMA_FlowControllerConfig                          .\externals\libs\libstm32f4xx_peripherals.a(stm32f4xx_dma.o)
DMA_GetCmdStatus                                  .\externals\libs\libstm32f4xx_peripherals.a(stm32f4xx_dma.o)
DMA_GetCurrDataCounter                            .\externals\libs\libstm32f4xx_peripherals.a(stm32f4xx_dma.o)
DMA_GetCurrentMemoryTarget                        .\externals\libs\libstm32f4xx_peripherals.a(stm32f4xx_dma.o)
                                                  obj\.\src\DMA_IRQ_Handler.o
DMA_GetFIFOStatus                                 .\externals\libs\libstm32f4xx_peripherals.a(stm32f4xx_dma.o)
DMA_GetFlagStatus                                 .\externals\libs\libstm32f4xx_peripherals.a(stm32f4xx_dma.o)
DMA_GetITStatus                                   .\externals\libs\libstm32f4xx_peripherals.a(stm32f4xx_dma.o)
DMA_ITConfig                                      .\externals\libs\libstm32f4xx_peripherals.a(stm32f4xx_dma.o)
                                                  obj\.\src\Init_DMA.o
DMA_Init                                          .\externals\libs\libstm32f4xx_peripherals.a(stm32f4xx_dma.o)
                                                  obj\.\src\Init_DMA.o
DMA_MemoryTargetConfig                            .\externals\libs\libstm32f4xx_peripherals.a(stm32f4xx_dma.o)
DMA_PeriphIncOffsetSizeConfig                     .\externals\libs\libstm32f4xx_peripherals.a(stm32f4xx_dma.o)
DMA_RX_Memory                                     obj\.\src\DMA_IRQ_Handler.o
DMA_SetCurrDataCounter                            .\externals\libs\libstm32f4xx_peripherals.a(stm32f4xx_dma.o)
DMA_StructInit                                    .\externals\libs\libstm32f4xx_peripherals.a(stm32f4xx_dma.o)
DMA_TX_Memory                                     obj\.\src\DMA_IRQ_Handler.o
DSP_Flag                                          obj\.\src\touch_pad.o
                                                  obj\.\src\main.o
                                                  obj\.\src\Encoder_2.o
                                                  obj\.\src\DMA_IRQ_Handler.o
                                                  obj\.\src\ChangeOver.o
DataMax                                           obj\.\src\touch_pad.o
                                                  obj\.\src\main.o
                                                  obj\.\src\Encoder_2.o
                                                  obj\.\src\eeprom.o
                                                  obj\.\src\ChangeOver.o
DataMin                                           obj\.\src\touch_pad.o
                                                  obj\.\src\main.o
                                                  obj\.\src\Encoder_2.o
                                                  obj\.\src\eeprom.o
                                                  obj\.\src\ChangeOver.o
DebounceCount                                     obj\.\src\touch_pad.o
DebugMon_Handler                                  obj\.\src\stm32f4xx_it.o
                                                  obj\.\startup\startup_stm32f4xx.o
Dec4LPCoef                                        obj\.\src\FIR_Coefficients.o
                                                  obj\.\src\DSP_Processing.o
DecodeSymb                                        obj\.\src\PSK_Det.o
Decrease_Step                                     obj\.\src\Encoder_1.o
                                                  obj\.\src\touch_pad.o
Default_ISR                                       obj\.\startup\startup_stm32f4xx.o
Delay                                             obj\.\src\Init_I2C.o
                                                  obj\.\src\Init_DMA.o
                                                  obj\.\src\Init_Codec.o
                                                  obj\.\src\Encoder_2.o
                                                  obj\.\src\Encoder_1.o
                                                  obj\.\src\Codec_Gains.o
                                                  obj\.\src\ChangeOver.o
Disconnect_PGA                                    obj\.\src\Codec_Gains.o
                                                  obj\.\src\ChangeOver.o
Draw_Touch_Point                                  obj\.\src\touch_pad.o
EEProm_Value                                      obj\.\src\Encoder_1.o
EEProm_Value1                                     obj\.\src\touch_pad.o
                                                  obj\.\src\main.o
                                                  obj\.\src\Encoder_2.o
                                                  obj\.\src\Encoder_1.o
                                                  obj\.\src\eeprom.o
EEProm_Value2                                     obj\.\src\touch_pad.o
                                                  obj\.\src\main.o
                                                  obj\.\src\Encoder_2.o
                                                  obj\.\src\eeprom.o
                                                  obj\.\src\ChangeOver.o
ENC_Sens1                                         obj\.\src\Encoder_1.o
ENC_Sens2                                         obj\.\src\Encoder_2.o
ETH_IRQHandler                                    obj\.\startup\startup_stm32f4xx.o
ETH_WKUP_IRQHandler                               obj\.\startup\startup_stm32f4xx.o
EXTI0_IRQHandler                                  obj\.\src\User_Button.o
                                                  obj\.\startup\startup_stm32f4xx.o
EXTI15_10_IRQHandler                              obj\.\startup\startup_stm32f4xx.o
EXTI1_IRQHandler                                  obj\.\src\stm32f4xx_it.o
                                                  obj\.\startup\startup_stm32f4xx.o
EXTI2_IRQHandler                                  obj\.\startup\startup_stm32f4xx.o
EXTI3_IRQHandler                                  obj\.\startup\startup_stm32f4xx.o
EXTI4_IRQHandler                                  obj\.\startup\startup_stm32f4xx.o
EXTI9_5_IRQHandler                                obj\.\src\touch_pad.o
                                                  obj\.\startup\startup_stm32f4xx.o
EXTI_ClearFlag                                    .\externals\libs\libstm32f4xx_peripherals.a(stm32f4xx_exti.o)
EXTI_ClearITPendingBit                            .\externals\libs\libstm32f4xx_peripherals.a(stm32f4xx_exti.o)
                                                  obj\.\src\User_Button.o
                                                  obj\.\src\touch_pad.o
                                                  obj\.\src\stm32f4xx_it.o
EXTI_DeInit                                       .\externals\libs\libstm32f4xx_peripherals.a(stm32f4xx_exti.o)
EXTI_GenerateSWInterrupt                          .\externals\libs\libstm32f4xx_peripherals.a(stm32f4xx_exti.o)
EXTI_GetFlagStatus                                .\externals\libs\libstm32f4xx_peripherals.a(stm32f4xx_exti.o)
EXTI_GetITStatus                                  .\externals\libs\libstm32f4xx_peripherals.a(stm32f4xx_exti.o)
                                                  obj\.\src\User_Button.o
                                                  obj\.\src\touch_pad.o
                                                  obj\.\src\stm32f4xx_it.o
EXTI_Init                                         .\externals\libs\libstm32f4xx_peripherals.a(stm32f4xx_exti.o)
                                                  obj\.\src\touch_pad.o
                                                  obj\.\src\stm32f4_discovery.o
                                                  obj\.\src\Encoder_2.o
                                                  obj\.\src\Encoder_1.o
EXTI_InitStructure                                obj\.\src\User_Button.o
                                                  obj\.\src\Encoder_2.o
                                                  obj\.\src\Encoder_1.o
EXTI_StructInit                                   .\externals\libs\libstm32f4xx_peripherals.a(stm32f4xx_exti.o)
Encoder1_GPIO_Config                              obj\.\src\Encoder_1.o
                                                  obj\.\src\main.o
Encoder2_GPIO_Config                              obj\.\src\Encoder_2.o
                                                  obj\.\src\main.o
F0                                                obj\.\src\Si570.o
                                                  obj\.\src\main.o
                                                  obj\.\src\Encoder_2.o
                                                  obj\.\src\Encoder_1.o
FFT_Display                                       obj\.\src\main.o
FFT_Input                                         obj\.\src\PSK_Det.o
                                                  obj\.\src\main.o
                                                  obj\.\src\DSP_Processing.o
                                                  obj\.\src\DMA_IRQ_Handler.o
FFT_Magnitude                                     obj\.\src\PSK_Det.o
                                                  obj\.\src\main.o
                                                  obj\.\src\DSP_Processing.o
                                                  obj\.\src\DMA_IRQ_Handler.o
FFT_Output                                        obj\.\src\main.o
FFT_Scale                                         obj\.\src\DSP_Processing.o
FFT_Size                                          obj\.\src\DSP_Processing.o
FFT_Test                                          obj\.\src\DSP_Processing.o
FFT_status                                        obj\.\src\DSP_Processing.o
FIRBitCoef                                        obj\.\src\FIR_Coefficients.o
                                                  obj\.\src\DSP_Processing.o
FIRFreqCoef                                       obj\.\src\FIR_Coefficients.o
                                                  obj\.\src\DSP_Processing.o
FIR_I_In                                          obj\.\src\PSK_Det.o
                                                  obj\.\src\main.o
                                                  obj\.\src\DSP_Processing.o
                                                  obj\.\src\DMA_IRQ_Handler.o
FIR_I_Out                                         obj\.\src\PSK_Det.o
                                                  obj\.\src\main.o
                                                  obj\.\src\DSP_Processing.o
                                                  obj\.\src\DMA_IRQ_Handler.o
FIR_Q_In                                          obj\.\src\PSK_Det.o
                                                  obj\.\src\main.o
                                                  obj\.\src\DSP_Processing.o
                                                  obj\.\src\DMA_IRQ_Handler.o
FIR_Q_Out                                         obj\.\src\PSK_Det.o
                                                  obj\.\src\main.o
                                                  obj\.\src\DSP_Processing.o
                                                  obj\.\src\DMA_IRQ_Handler.o
FIR_State_I                                       obj\.\src\DSP_Processing.o
FIR_State_Q                                       obj\.\src\DSP_Processing.o
FLASH_IRQHandler                                  obj\.\startup\startup_stm32f4xx.o
FOUT                                              obj\.\src\Si570.o
                                                  obj\.\src\main.o
                                                  obj\.\src\Encoder_2.o
                                                  obj\.\src\Encoder_1.o
FPU_IRQHandler                                    obj\.\startup\startup_stm32f4xx.o
FSMC_ClearFlag                                    .\externals\libs\libstm32f4xx_peripherals.a(stm32f4xx_fsmc.o)
FSMC_ClearITPendingBit                            .\externals\libs\libstm32f4xx_peripherals.a(stm32f4xx_fsmc.o)
FSMC_GetECC                                       .\externals\libs\libstm32f4xx_peripherals.a(stm32f4xx_fsmc.o)
FSMC_GetFlagStatus                                .\externals\libs\libstm32f4xx_peripherals.a(stm32f4xx_fsmc.o)
FSMC_GetITStatus                                  .\externals\libs\libstm32f4xx_peripherals.a(stm32f4xx_fsmc.o)
FSMC_IRQHandler                                   obj\.\startup\startup_stm32f4xx.o
FSMC_ITConfig                                     .\externals\libs\libstm32f4xx_peripherals.a(stm32f4xx_fsmc.o)
FSMC_NANDCmd                                      .\externals\libs\libstm32f4xx_peripherals.a(stm32f4xx_fsmc.o)
FSMC_NANDDeInit                                   .\externals\libs\libstm32f4xx_peripherals.a(stm32f4xx_fsmc.o)
FSMC_NANDECCCmd                                   .\externals\libs\libstm32f4xx_peripherals.a(stm32f4xx_fsmc.o)
FSMC_NANDInit                                     .\externals\libs\libstm32f4xx_peripherals.a(stm32f4xx_fsmc.o)
FSMC_NANDStructInit                               .\externals\libs\libstm32f4xx_peripherals.a(stm32f4xx_fsmc.o)
FSMC_NORSRAMCmd                                   .\externals\libs\libstm32f4xx_peripherals.a(stm32f4xx_fsmc.o)
                                                  obj\.\src\TFT_Display.o
FSMC_NORSRAMDeInit                                .\externals\libs\libstm32f4xx_peripherals.a(stm32f4xx_fsmc.o)
FSMC_NORSRAMInit                                  .\externals\libs\libstm32f4xx_peripherals.a(stm32f4xx_fsmc.o)
                                                  obj\.\src\TFT_Display.o
FSMC_NORSRAMStructInit                            .\externals\libs\libstm32f4xx_peripherals.a(stm32f4xx_fsmc.o)
FSMC_PCCARDCmd                                    .\externals\libs\libstm32f4xx_peripherals.a(stm32f4xx_fsmc.o)
FSMC_PCCARDDeInit                                 .\externals\libs\libstm32f4xx_peripherals.a(stm32f4xx_fsmc.o)
FSMC_PCCARDInit                                   .\externals\libs\libstm32f4xx_peripherals.a(stm32f4xx_fsmc.o)
FSMC_PCCARDStructInit                             .\externals\libs\libstm32f4xx_peripherals.a(stm32f4xx_fsmc.o)
FXTAL                                             obj\.\src\Si570.o
                                                  obj\.\src\main.o
                                                  obj\.\src\Encoder_2.o
                                                  obj\.\src\Encoder_1.o
F_Mult                                            obj\.\src\touch_pad.o
                                                  obj\.\src\main.o
                                                  obj\.\src\Encoder_2.o
                                                  obj\.\src\Encoder_1.o
                                                  obj\.\src\eeprom.o
F_Unit                                            obj\.\src\Encoder_1.o
Filter_I1                                         obj\.\src\DSP_Processing.o
                                                  obj\.\src\PSK_Det.o
                                                  obj\.\src\main.o
                                                  obj\.\src\DMA_IRQ_Handler.o
Filter_I2                                         obj\.\src\DSP_Processing.o
                                                  obj\.\src\PSK_Det.o
                                                  obj\.\src\main.o
                                                  obj\.\src\DMA_IRQ_Handler.o
Filter_I3                                         obj\.\src\DSP_Processing.o
                                                  obj\.\src\PSK_Det.o
                                                  obj\.\src\main.o
                                                  obj\.\src\DMA_IRQ_Handler.o
Filter_I4                                         obj\.\src\DSP_Processing.o
                                                  obj\.\src\PSK_Det.o
                                                  obj\.\src\main.o
                                                  obj\.\src\DMA_IRQ_Handler.o
Filter_Q1                                         obj\.\src\DSP_Processing.o
                                                  obj\.\src\PSK_Det.o
                                                  obj\.\src\main.o
                                                  obj\.\src\DMA_IRQ_Handler.o
Filter_Q2                                         obj\.\src\DSP_Processing.o
                                                  obj\.\src\PSK_Det.o
                                                  obj\.\src\main.o
                                                  obj\.\src\DMA_IRQ_Handler.o
Filter_Q3                                         obj\.\src\DSP_Processing.o
                                                  obj\.\src\PSK_Det.o
                                                  obj\.\src\main.o
                                                  obj\.\src\DMA_IRQ_Handler.o
Filter_Q4                                         obj\.\src\DSP_Processing.o
                                                  obj\.\src\PSK_Det.o
                                                  obj\.\src\main.o
                                                  obj\.\src\DMA_IRQ_Handler.o
Filter_delay_I1                                   obj\.\src\PSK_Det.o
                                                  obj\.\src\main.o
                                                  obj\.\src\DSP_Processing.o
                                                  obj\.\src\DMA_IRQ_Handler.o
Filter_delay_I2                                   obj\.\src\PSK_Det.o
                                                  obj\.\src\main.o
                                                  obj\.\src\DSP_Processing.o
                                                  obj\.\src\DMA_IRQ_Handler.o
Filter_delay_I3                                   obj\.\src\PSK_Det.o
                                                  obj\.\src\main.o
                                                  obj\.\src\DSP_Processing.o
                                                  obj\.\src\DMA_IRQ_Handler.o
Filter_delay_I4                                   obj\.\src\PSK_Det.o
                                                  obj\.\src\main.o
                                                  obj\.\src\DSP_Processing.o
                                                  obj\.\src\DMA_IRQ_Handler.o
Filter_delay_Q1                                   obj\.\src\PSK_Det.o
                                                  obj\.\src\main.o
                                                  obj\.\src\DSP_Processing.o
                                                  obj\.\src\DMA_IRQ_Handler.o
Filter_delay_Q2                                   obj\.\src\PSK_Det.o
                                                  obj\.\src\main.o
                                                  obj\.\src\DSP_Processing.o
                                                  obj\.\src\DMA_IRQ_Handler.o
Filter_delay_Q3                                   obj\.\src\PSK_Det.o
                                                  obj\.\src\main.o
                                                  obj\.\src\DSP_Processing.o
                                                  obj\.\src\DMA_IRQ_Handler.o
Filter_delay_Q4                                   obj\.\src\PSK_Det.o
                                                  obj\.\src\main.o
                                                  obj\.\src\DSP_Processing.o
                                                  obj\.\src\DMA_IRQ_Handler.o
Flag                                              obj\.\src\User_Button.o
                                                  obj\.\src\touch_pad.o
                                                  obj\.\src\TFT_Display.o
                                                  obj\.\src\Sine_table.o
                                                  obj\.\src\PSKMod.o
                                                  obj\.\src\PSK_Det.o
                                                  obj\.\src\main.o
                                                  obj\.\src\DSP_Processing.o
                                                  obj\.\src\DMA_IRQ_Handler.o
Freq_Disp                                         obj\.\src\touch_pad.o
                                                  obj\.\src\main.o
                                                  obj\.\src\Encoder_2.o
                                                  obj\.\src\Encoder_1.o
                                                  obj\.\src\eeprom.o
Freq_Max                                          obj\.\src\Encoder_1.o
Freq_Min                                          obj\.\src\Encoder_1.o
Freq_Set                                          obj\.\src\touch_pad.o
                                                  obj\.\src\main.o
                                                  obj\.\src\Encoder_2.o
                                                  obj\.\src\Encoder_1.o
                                                  obj\.\src\eeprom.o
GPIO_CLK                                          obj\.\src\stm32f4_discovery.o
GPIO_DeInit                                       .\externals\libs\libstm32f4xx_peripherals.a(stm32f4xx_gpio.o)
GPIO_Init                                         .\externals\libs\libstm32f4xx_peripherals.a(stm32f4xx_gpio.o)
                                                  obj\.\src\User_Button.o
                                                  obj\.\src\usb_bsp.o
                                                  obj\.\src\uart.o
                                                  obj\.\src\touch_pad.o
                                                  obj\.\src\TFT_Display.o
                                                  obj\.\src\stm32f4_discovery.o
                                                  obj\.\src\Init_I2S.o
                                                  obj\.\src\Init_I2C.o
                                                  obj\.\src\Init_Codec.o
                                                  obj\.\src\Encoder_2.o
                                                  obj\.\src\Encoder_1.o
                                                  obj\.\src\DMA_Test_Pins.o
                                                  obj\.\src\CW_Mod.o
                                                  obj\.\src\ChangeOver.o
GPIO_PIN                                          obj\.\src\stm32f4_discovery.o
GPIO_PORT                                         obj\.\src\stm32f4_discovery.o
GPIO_PinAFConfig                                  .\externals\libs\libstm32f4xx_peripherals.a(stm32f4xx_gpio.o)
                                                  obj\.\src\usb_bsp.o
                                                  obj\.\src\uart.o
                                                  obj\.\src\touch_pad.o
                                                  obj\.\src\TFT_Display.o
                                                  obj\.\src\Init_I2S.o
                                                  obj\.\src\Init_I2C.o
GPIO_PinLockConfig                                .\externals\libs\libstm32f4xx_peripherals.a(stm32f4xx_gpio.o)
GPIO_ReadInputData                                .\externals\libs\libstm32f4xx_peripherals.a(stm32f4xx_gpio.o)
                                                  obj\.\src\Encoder_2.o
                                                  obj\.\src\Encoder_1.o
GPIO_ReadInputDataBit                             .\externals\libs\libstm32f4xx_peripherals.a(stm32f4xx_gpio.o)
                                                  obj\.\src\User_Button.o
                                                  obj\.\src\touch_pad.o
                                                  obj\.\src\stm32f4_discovery.o
                                                  obj\.\src\DMA_IRQ_Handler.o
GPIO_ReadOutputData                               .\externals\libs\libstm32f4xx_peripherals.a(stm32f4xx_gpio.o)
GPIO_ReadOutputDataBit                            .\externals\libs\libstm32f4xx_peripherals.a(stm32f4xx_gpio.o)
GPIO_ResetBits                                    .\externals\libs\libstm32f4xx_peripherals.a(stm32f4xx_gpio.o)
                                                  obj\.\src\usb_bsp.o
                                                  obj\.\src\touch_pad.o
GPIO_SetBits                                      .\externals\libs\libstm32f4xx_peripherals.a(stm32f4xx_gpio.o)
                                                  obj\.\src\usb_bsp.o
                                                  obj\.\src\touch_pad.o
GPIO_StructInit                                   .\externals\libs\libstm32f4xx_peripherals.a(stm32f4xx_gpio.o)
GPIO_ToggleBits                                   .\externals\libs\libstm32f4xx_peripherals.a(stm32f4xx_gpio.o)
GPIO_Write                                        .\externals\libs\libstm32f4xx_peripherals.a(stm32f4xx_gpio.o)
GPIO_WriteBit                                     .\externals\libs\libstm32f4xx_peripherals.a(stm32f4xx_gpio.o)
                                                  obj\.\src\TFT_Display.o
                                                  obj\.\src\Init_Codec.o
                                                  obj\.\src\DMA_IRQ_Handler.o
                                                  obj\.\src\ChangeOver.o
GetASCIICode1                                     obj\.\src\AsciiLib.o
                                                  obj\.\src\TFT_Display.o
GetASCIICode2                                     obj\.\src\AsciiLib.o
                                                  obj\.\src\TFT_Display.o
GetASCIICode3                                     obj\.\src\AsciiLib.o
                                                  obj\.\src\TFT_Display.o
GetASCIICode4                                     obj\.\src\AsciiLib.o
                                                  obj\.\src\TFT_Display.o
GetASCIICode5                                     obj\.\src\AsciiLib.o
                                                  obj\.\src\TFT_Display.o
GetNextBPSKSymbol                                 obj\.\src\PSKMod.o
GetTouchPoint                                     obj\.\src\touch_pad.o
GetTxChar                                         obj\.\src\PSKMod.o
HALF_TBL                                          obj\.\src\PSK_Det.o
HASH_RNG_IRQHandler                               obj\.\startup\startup_stm32f4xx.o
HCD_GetCurrentFrame                               obj\.\externals\SM32F4-Discovery\USB\src\usb_hcd.o
                                                  obj\.\externals\SM32F4-Discovery\USB\src\usbh_hid_core.o
                                                  obj\.\externals\SM32F4-Discovery\USB\src\usbh_core.o
HCD_GetCurrentSpeed                               obj\.\externals\SM32F4-Discovery\USB\src\usb_hcd.o
                                                  obj\.\externals\SM32F4-Discovery\USB\src\usbh_core.o
HCD_GetHCState                                    obj\.\externals\SM32F4-Discovery\USB\src\usb_hcd.o
HCD_GetURB_State                                  obj\.\externals\SM32F4-Discovery\USB\src\usb_hcd.o
                                                  obj\.\externals\SM32F4-Discovery\USB\src\usbh_hid_core.o
                                                  obj\.\externals\SM32F4-Discovery\USB\src\usbh_core.o
HCD_GetXferCnt                                    obj\.\externals\SM32F4-Discovery\USB\src\usb_hcd.o
HCD_HC_Init                                       obj\.\externals\SM32F4-Discovery\USB\src\usb_hcd.o
HCD_Init                                          obj\.\externals\SM32F4-Discovery\USB\src\usb_hcd.o
                                                  obj\.\externals\SM32F4-Discovery\USB\src\usbh_core.o
HCD_IsDeviceConnected                             obj\.\externals\SM32F4-Discovery\USB\src\usb_hcd.o
                                                  obj\.\externals\SM32F4-Discovery\USB\src\usbh_core.o
HCD_ResetPort                                     obj\.\externals\SM32F4-Discovery\USB\src\usb_hcd.o
                                                  obj\.\externals\SM32F4-Discovery\USB\src\usbh_core.o
HCD_SubmitRequest                                 obj\.\externals\SM32F4-Discovery\USB\src\usb_hcd.o
                                                  obj\.\externals\SM32F4-Discovery\USB\src\usbh_ioreq.o
HID_Desc                                          obj\.\externals\SM32F4-Discovery\USB\src\usbh_hid_core.o
HID_KEYBRD_cb                                     obj\.\externals\SM32F4-Discovery\USB\src\usbh_hid_keybd.o
                                                  obj\.\externals\SM32F4-Discovery\USB\src\usbh_hid_core.o
HID_Machine                                       obj\.\externals\SM32F4-Discovery\USB\src\usbh_hid_core.o
HID_Report                                        obj\.\externals\SM32F4-Discovery\USB\src\usbh_hid_core.o
HID_Setup                                         obj\.\externals\SM32F4-Discovery\USB\src\usbh_hid_core.o
HID_cb                                            obj\.\externals\SM32F4-Discovery\USB\src\usbh_hid_core.o
                                                  obj\.\src\main.o
HSEStartUpStatus                                  obj\.\src\usb_bsp.o
HS_DIV                                            obj\.\src\Si570.o
                                                  obj\.\src\main.o
                                                  obj\.\src\Encoder_2.o
                                                  obj\.\src\Encoder_1.o
HS_DIV_VALUE_char                                 obj\.\src\Si570.o
                                                  obj\.\src\main.o
                                                  obj\.\src\Encoder_2.o
                                                  obj\.\src\Encoder_1.o
HardFault_Handler                                 obj\.\src\stm32f4xx_it.o
                                                  obj\.\startup\startup_stm32f4xx.o
I2C1_ER_IRQHandler                                obj\.\startup\startup_stm32f4xx.o
I2C1_EV_IRQHandler                                obj\.\startup\startup_stm32f4xx.o
I2C2_ER_IRQHandler                                obj\.\startup\startup_stm32f4xx.o
I2C2_EV_IRQHandler                                obj\.\startup\startup_stm32f4xx.o
I2C3_ER_IRQHandler                                obj\.\startup\startup_stm32f4xx.o
I2C3_EV_IRQHandler                                obj\.\startup\startup_stm32f4xx.o
I2C_ARPCmd                                        .\externals\libs\libstm32f4xx_peripherals.a(stm32f4xx_i2c.o)
I2C_AcknowledgeConfig                             .\externals\libs\libstm32f4xx_peripherals.a(stm32f4xx_i2c.o)
                                                  obj\.\src\Init_I2C.o
I2C_CalculatePEC                                  .\externals\libs\libstm32f4xx_peripherals.a(stm32f4xx_i2c.o)
I2C_CheckEvent                                    .\externals\libs\libstm32f4xx_peripherals.a(stm32f4xx_i2c.o)
                                                  obj\.\src\Init_I2C.o
I2C_ClearFlag                                     .\externals\libs\libstm32f4xx_peripherals.a(stm32f4xx_i2c.o)
                                                  obj\.\src\Init_I2C.o
I2C_ClearITPendingBit                             .\externals\libs\libstm32f4xx_peripherals.a(stm32f4xx_i2c.o)
I2C_Cmd                                           .\externals\libs\libstm32f4xx_peripherals.a(stm32f4xx_i2c.o)
                                                  obj\.\src\Init_I2C.o
I2C_Cntrl_Init                                    obj\.\src\Init_I2C.o
                                                  obj\.\src\main.o
                                                  obj\.\src\Init_I2S.o
I2C_DMACmd                                        .\externals\libs\libstm32f4xx_peripherals.a(stm32f4xx_i2c.o)
I2C_DMALastTransferCmd                            .\externals\libs\libstm32f4xx_peripherals.a(stm32f4xx_i2c.o)
I2C_DeInit                                        .\externals\libs\libstm32f4xx_peripherals.a(stm32f4xx_i2c.o)
                                                  obj\.\src\Init_I2C.o
I2C_DualAddressCmd                                .\externals\libs\libstm32f4xx_peripherals.a(stm32f4xx_i2c.o)
I2C_FastModeDutyCycleConfig                       .\externals\libs\libstm32f4xx_peripherals.a(stm32f4xx_i2c.o)
I2C_GPIO_Init                                     obj\.\src\Init_I2C.o
                                                  obj\.\src\main.o
I2C_GeneralCallCmd                                .\externals\libs\libstm32f4xx_peripherals.a(stm32f4xx_i2c.o)
I2C_GenerateSTART                                 .\externals\libs\libstm32f4xx_peripherals.a(stm32f4xx_i2c.o)
                                                  obj\.\src\Init_I2C.o
I2C_GenerateSTOP                                  .\externals\libs\libstm32f4xx_peripherals.a(stm32f4xx_i2c.o)
                                                  obj\.\src\Init_I2C.o
I2C_GetFlagStatus                                 .\externals\libs\libstm32f4xx_peripherals.a(stm32f4xx_i2c.o)
                                                  obj\.\src\Init_I2C.o
I2C_GetITStatus                                   .\externals\libs\libstm32f4xx_peripherals.a(stm32f4xx_i2c.o)
I2C_GetLastEvent                                  .\externals\libs\libstm32f4xx_peripherals.a(stm32f4xx_i2c.o)
I2C_GetPEC                                        .\externals\libs\libstm32f4xx_peripherals.a(stm32f4xx_i2c.o)
I2C_ITConfig                                      .\externals\libs\libstm32f4xx_peripherals.a(stm32f4xx_i2c.o)
I2C_Init                                          .\externals\libs\libstm32f4xx_peripherals.a(stm32f4xx_i2c.o)
                                                  obj\.\src\Init_I2C.o
I2C_NACKPositionConfig                            .\externals\libs\libstm32f4xx_peripherals.a(stm32f4xx_i2c.o)
I2C_OwnAddress2Config                             .\externals\libs\libstm32f4xx_peripherals.a(stm32f4xx_i2c.o)
I2C_PECPositionConfig                             .\externals\libs\libstm32f4xx_peripherals.a(stm32f4xx_i2c.o)
I2C_ReadEEProm                                    obj\.\src\Init_I2C.o
                                                  obj\.\src\eeprom.o
I2C_ReadRegister                                  .\externals\libs\libstm32f4xx_peripherals.a(stm32f4xx_i2c.o)
I2C_ReadSlave                                     obj\.\src\Init_I2C.o
                                                  obj\.\src\Si570.o
I2C_ReceiveData                                   .\externals\libs\libstm32f4xx_peripherals.a(stm32f4xx_i2c.o)
                                                  obj\.\src\Init_I2C.o
I2C_SMBusAlertConfig                              .\externals\libs\libstm32f4xx_peripherals.a(stm32f4xx_i2c.o)
I2C_Send7bitAddress                               .\externals\libs\libstm32f4xx_peripherals.a(stm32f4xx_i2c.o)
                                                  obj\.\src\Init_I2C.o
I2C_SendData                                      .\externals\libs\libstm32f4xx_peripherals.a(stm32f4xx_i2c.o)
                                                  obj\.\src\Init_I2C.o
I2C_SoftwareResetCmd                              .\externals\libs\libstm32f4xx_peripherals.a(stm32f4xx_i2c.o)
I2C_StretchClockCmd                               .\externals\libs\libstm32f4xx_peripherals.a(stm32f4xx_i2c.o)
I2C_StructInit                                    .\externals\libs\libstm32f4xx_peripherals.a(stm32f4xx_i2c.o)
I2C_TransmitPEC                                   .\externals\libs\libstm32f4xx_peripherals.a(stm32f4xx_i2c.o)
I2C_WriteEEProm                                   obj\.\src\Init_I2C.o
                                                  obj\.\src\eeprom.o
I2C_WriteRegister                                 obj\.\src\Init_I2C.o
                                                  obj\.\src\Si570.o
                                                  obj\.\src\Init_Codec.o
                                                  obj\.\src\Codec_Gains.o
I2C_WriteRegister_N                               obj\.\src\Init_I2C.o
                                                  obj\.\src\Si570.o
I2S_Cmd                                           .\externals\libs\libstm32f4xx_peripherals.a(stm32f4xx_spi.o)
                                                  obj\.\src\Init_I2S.o
I2S_FullDuplexConfig                              .\externals\libs\libstm32f4xx_peripherals.a(stm32f4xx_spi.o)
                                                  obj\.\src\Init_I2S.o
I2S_GPIO_Init                                     obj\.\src\Init_I2S.o
I2S_Init                                          .\externals\libs\libstm32f4xx_peripherals.a(stm32f4xx_spi.o)
                                                  obj\.\src\Init_I2S.o
I2S_StructInit                                    .\externals\libs\libstm32f4xx_peripherals.a(stm32f4xx_spi.o)
IQ                                                obj\.\src\User_Button.o
                                                  obj\.\src\touch_pad.o
                                                  obj\.\src\TFT_Display.o
                                                  obj\.\src\Sine_table.o
                                                  obj\.\src\PSKMod.o
                                                  obj\.\src\PSK_Det.o
                                                  obj\.\src\main.o
                                                  obj\.\src\DSP_Processing.o
                                                  obj\.\src\DMA_IRQ_Handler.o
IQData                                            obj\.\src\touch_pad.o
                                                  obj\.\src\main.o
                                                  obj\.\src\Encoder_2.o
                                                  obj\.\src\eeprom.o
                                                  obj\.\src\ChangeOver.o
IQ_Disp                                           obj\.\src\touch_pad.o
                                                  obj\.\src\main.o
                                                  obj\.\src\Encoder_2.o
                                                  obj\.\src\eeprom.o
                                                  obj\.\src\ChangeOver.o
IQ_Unit                                           obj\.\src\touch_pad.o
                                                  obj\.\src\main.o
                                                  obj\.\src\Encoder_2.o
                                                  obj\.\src\eeprom.o
                                                  obj\.\src\ChangeOver.o
Increase_Step                                     obj\.\src\Encoder_1.o
                                                  obj\.\src\touch_pad.o
InitPSK                                           obj\.\src\PSK_Det.o
InitPSKModulator                                  obj\.\src\PSKMod.o
                                                  obj\.\src\PSK_Det.o
Init_CW_GPIO                                      obj\.\src\CW_Mod.o
                                                  obj\.\src\main.o
Init_Mode                                         obj\.\src\ModeSelect.o
                                                  obj\.\src\main.o
Init_PTT_IO                                       obj\.\src\ChangeOver.o
                                                  obj\.\src\main.o
Key_Down                                          obj\.\src\touch_pad.o
                                                  obj\.\src\main.o
                                                  obj\.\src\Encoder_2.o
                                                  obj\.\src\DMA_IRQ_Handler.o
                                                  obj\.\src\ChangeOver.o
LCD_BackLight                                     obj\.\src\TFT_Display.o
LCD_CharSize                                      obj\.\src\TFT_Display.o
LCD_Clear                                         obj\.\src\TFT_Display.o
                                                  obj\.\src\main.o
LCD_ClosedPolyLine                                obj\.\src\TFT_Display.o
LCD_ClosedPolyLineRelative                        obj\.\src\TFT_Display.o
LCD_CtrlLinesConfig                               obj\.\src\TFT_Display.o
LCD_DisplayOff                                    obj\.\src\TFT_Display.o
LCD_DisplayOn                                     obj\.\src\TFT_Display.o
LCD_DrawCircle                                    obj\.\src\TFT_Display.o
                                                  obj\.\src\touch_pad.o
LCD_DrawFFT                                       obj\.\src\TFT_Display.o
                                                  obj\.\src\main.o
LCD_DrawFullCircle                                obj\.\src\TFT_Display.o
LCD_DrawFullRect                                  obj\.\src\TFT_Display.o
LCD_DrawFullSquare                                obj\.\src\TFT_Display.o
LCD_DrawLine                                      obj\.\src\TFT_Display.o
LCD_DrawRect                                      obj\.\src\TFT_Display.o
LCD_DrawSquare                                    obj\.\src\TFT_Display.o
LCD_DrawUniLine                                   obj\.\src\TFT_Display.o
                                                  obj\.\src\touch_pad.o
LCD_FSMCConfig                                    obj\.\src\TFT_Display.o
LCD_FillPolyLine                                  obj\.\src\TFT_Display.o
LCD_GetColors                                     obj\.\src\TFT_Display.o
LCD_Init                                          obj\.\src\TFT_Display.o
                                                  obj\.\src\main.o
LCD_PolyLine                                      obj\.\src\TFT_Display.o
LCD_PolyLineRelative                              obj\.\src\TFT_Display.o
LCD_PutChar                                       obj\.\src\TFT_Display.o
LCD_Reset                                         obj\.\src\TFT_Display.o
LCD_SetBackColor                                  obj\.\src\TFT_Display.o
                                                  obj\.\src\ModeSelect.o
LCD_SetColors                                     obj\.\src\TFT_Display.o
LCD_SetCursor                                     obj\.\src\TFT_Display.o
LCD_SetDisplayWindow                              obj\.\src\TFT_Display.o
LCD_SetTextColor                                  obj\.\src\TFT_Display.o
                                                  obj\.\src\ModeSelect.o
LCD_StringLine                                    obj\.\src\TFT_Display.o
                                                  obj\.\src\touch_pad.o
                                                  obj\.\src\PSKMod.o
                                                  obj\.\src\ModeSelect.o
                                                  obj\.\src\main.o
                                                  obj\.\src\Keyboard_Input.o
                                                  obj\.\src\Encoder_2.o
                                                  obj\.\src\Encoder_1.o
LCD_WriteRAM                                      obj\.\src\TFT_Display.o
LCD_WriteRAM_Prepare                              obj\.\src\TFT_Display.o
LCD_WriteReg                                      obj\.\src\TFT_Display.o
LCD_buffer                                        obj\.\src\User_Button.o
                                                  obj\.\src\touch_pad.o
                                                  obj\.\src\TFT_Display.o
                                                  obj\.\src\Sine_table.o
                                                  obj\.\src\PSKMod.o
                                                  obj\.\src\PSK_Det.o
                                                  obj\.\src\main.o
                                                  obj\.\src\DSP_Processing.o
                                                  obj\.\src\DMA_IRQ_Handler.o
LSB_Out                                           obj\.\src\PSK_Det.o
                                                  obj\.\src\main.o
                                                  obj\.\src\DSP_Processing.o
                                                  obj\.\src\DMA_IRQ_Handler.o
Large_RFREQ_Change                                obj\.\src\Si570.o
MemManage_Handler                                 obj\.\src\stm32f4xx_it.o
                                                  obj\.\startup\startup_stm32f4xx.o
Mode                                              obj\.\src\ModeSelect.o
                                                  obj\.\src\touch_pad.o
                                                  obj\.\src\Encoder_2.o
                                                  obj\.\src\DMA_IRQ_Handler.o
Mode_Test                                         obj\.\src\touch_pad.o
Mute_HP                                           obj\.\src\Codec_Gains.o
                                                  obj\.\src\ChangeOver.o
Mute_LO                                           obj\.\src\Codec_Gains.o
                                                  obj\.\src\ChangeOver.o
N1                                                obj\.\src\Si570.o
                                                  obj\.\src\main.o
                                                  obj\.\src\Encoder_2.o
                                                  obj\.\src\Encoder_1.o
N1_VALUE_char                                     obj\.\src\Si570.o
NCO_Frequency                                     obj\.\src\User_Button.o
                                                  obj\.\src\touch_pad.o
                                                  obj\.\src\TFT_Display.o
                                                  obj\.\src\Sine_table.o
                                                  obj\.\src\PSKMod.o
                                                  obj\.\src\PSK_Det.o
                                                  obj\.\src\main.o
                                                  obj\.\src\DSP_Processing.o
                                                  obj\.\src\DMA_IRQ_Handler.o
NMI_Handler                                       obj\.\src\stm32f4xx_it.o
                                                  obj\.\startup\startup_stm32f4xx.o
NVIC_Init                                         obj\.\externals\SM32F4-Discovery\USB\src\misc.o
                                                  obj\.\src\usb_bsp.o
                                                  obj\.\src\uart.o
                                                  obj\.\src\touch_pad.o
                                                  obj\.\src\stm32f4_discovery.o
                                                  obj\.\src\Init_DMA.o
                                                  obj\.\src\Encoder_1.o
NVIC_InitStructure                                obj\.\src\stm32f4_discovery.o
NVIC_PriorityGroupConfig                          obj\.\externals\SM32F4-Discovery\USB\src\misc.o
                                                  obj\.\src\usb_bsp.o
NVIC_SetVectorTable                               obj\.\externals\SM32F4-Discovery\USB\src\misc.o
                                                  obj\.\src\usb_bsp.o
NVIC_SystemLPConfig                               obj\.\externals\SM32F4-Discovery\USB\src\misc.o
OTG_FS_IRQHandler                                 obj\.\src\stm32f4xx_it.o
                                                  obj\.\startup\startup_stm32f4xx.o
OTG_FS_WKUP_IRQHandler                            obj\.\startup\startup_stm32f4xx.o
OTG_HS_EP1_IN_IRQHandler                          obj\.\startup\startup_stm32f4xx.o
OTG_HS_EP1_OUT_IRQHandler                         obj\.\startup\startup_stm32f4xx.o
OTG_HS_IRQHandler                                 obj\.\startup\startup_stm32f4xx.o
OTG_HS_WKUP_IRQHandler                            obj\.\startup\startup_stm32f4xx.o
Old_RFREQ                                         obj\.\src\Si570.o
                                                  obj\.\src\main.o
                                                  obj\.\src\Encoder_2.o
                                                  obj\.\src\Encoder_1.o
Output_Frequency                                  obj\.\src\Si570.o
                                                  obj\.\src\Encoder_1.o
PB_State                                          obj\.\src\User_Button.o
PSKPhaseLookupTable                               obj\.\src\PSKMod.o
PSKShapeTbl                                       obj\.\src\PSKMod.o
PSK_Gain                                          obj\.\src\DMA_IRQ_Handler.o
PSK_Tx                                            obj\.\src\DMA_IRQ_Handler.o
PSK_addCharToTx                                   obj\.\src\PSKMod.o
                                                  obj\.\src\Keyboard_Input.o
PSK_isQueueEmpty                                  obj\.\src\PSKMod.o
PSK_isQueueFull                                   obj\.\src\PSKMod.o
PVD_IRQHandler                                    obj\.\startup\startup_stm32f4xx.o
Pack_Si570_registers                              obj\.\src\Si570.o
PendSV_Handler                                    obj\.\src\stm32f4xx_it.o
                                                  obj\.\startup\startup_stm32f4xx.o
Pixel                                             obj\.\src\TFT_Display.o
                                                  obj\.\src\touch_pad.o
Plot_Freq                                         obj\.\src\TFT_Display.o
                                                  obj\.\src\Encoder_1.o
Plot_Integer                                      obj\.\src\TFT_Display.o
                                                  obj\.\src\touch_pad.o
                                                  obj\.\src\Keyboard_Input.o
                                                  obj\.\src\Encoder_2.o
Plot_String                                       obj\.\src\TFT_Display.o
Previous_status                                   obj\.\externals\SM32F4-Discovery\USB\src\usbh_core.o
ProcPSKDet                                        obj\.\src\PSK_Det.o
                                                  obj\.\src\DMA_IRQ_Handler.o
Process_FFT                                       obj\.\src\DSP_Processing.o
                                                  obj\.\src\DMA_IRQ_Handler.o
Process_FIR_I                                     obj\.\src\DSP_Processing.o
                                                  obj\.\src\DMA_IRQ_Handler.o
Process_FIR_Q                                     obj\.\src\DSP_Processing.o
                                                  obj\.\src\DMA_IRQ_Handler.o
PutPixel                                          obj\.\src\TFT_Display.o
RCC_AHB1PeriphClockCmd                            .\externals\libs\libstm32f4xx_peripherals.a(stm32f4xx_rcc.o)
                                                  obj\.\src\User_Button.o
                                                  obj\.\src\usb_bsp.o
                                                  obj\.\src\uart.o
                                                  obj\.\src\touch_pad.o
                                                  obj\.\src\TFT_Display.o
                                                  obj\.\src\stm32f4_discovery.o
                                                  obj\.\src\Init_I2S.o
                                                  obj\.\src\Init_I2C.o
                                                  obj\.\src\Init_DMA.o
                                                  obj\.\src\Init_Codec.o
                                                  obj\.\src\Encoder_2.o
                                                  obj\.\src\Encoder_1.o
                                                  obj\.\src\DMA_Test_Pins.o
                                                  obj\.\src\CW_Mod.o
                                                  obj\.\src\ChangeOver.o
RCC_AHB1PeriphClockLPModeCmd                      .\externals\libs\libstm32f4xx_peripherals.a(stm32f4xx_rcc.o)
RCC_AHB1PeriphResetCmd                            .\externals\libs\libstm32f4xx_peripherals.a(stm32f4xx_rcc.o)
                                                  .\externals\libs\libstm32f4xx_peripherals.a(stm32f4xx_gpio.o)
RCC_AHB2PeriphClockCmd                            .\externals\libs\libstm32f4xx_peripherals.a(stm32f4xx_rcc.o)
                                                  obj\.\src\usb_bsp.o
RCC_AHB2PeriphClockLPModeCmd                      .\externals\libs\libstm32f4xx_peripherals.a(stm32f4xx_rcc.o)
RCC_AHB2PeriphResetCmd                            .\externals\libs\libstm32f4xx_peripherals.a(stm32f4xx_rcc.o)
RCC_AHB3PeriphClockCmd                            .\externals\libs\libstm32f4xx_peripherals.a(stm32f4xx_rcc.o)
                                                  obj\.\src\TFT_Display.o
RCC_AHB3PeriphClockLPModeCmd                      .\externals\libs\libstm32f4xx_peripherals.a(stm32f4xx_rcc.o)
RCC_AHB3PeriphResetCmd                            .\externals\libs\libstm32f4xx_peripherals.a(stm32f4xx_rcc.o)
RCC_APB1PeriphClockCmd                            .\externals\libs\libstm32f4xx_peripherals.a(stm32f4xx_rcc.o)
                                                  obj\.\src\usb_bsp.o
                                                  obj\.\src\uart.o
                                                  obj\.\src\touch_pad.o
                                                  obj\.\src\Init_I2S.o
                                                  obj\.\src\Init_I2C.o
RCC_APB1PeriphClockLPModeCmd                      .\externals\libs\libstm32f4xx_peripherals.a(stm32f4xx_rcc.o)
RCC_APB1PeriphResetCmd                            .\externals\libs\libstm32f4xx_peripherals.a(stm32f4xx_rcc.o)
                                                  .\externals\libs\libstm32f4xx_peripherals.a(stm32f4xx_usart.o)
                                                  .\externals\libs\libstm32f4xx_peripherals.a(stm32f4xx_tim.o)
                                                  .\externals\libs\libstm32f4xx_peripherals.a(stm32f4xx_spi.o)
                                                  .\externals\libs\libstm32f4xx_peripherals.a(stm32f4xx_i2c.o)
RCC_APB2PeriphClockCmd                            .\externals\libs\libstm32f4xx_peripherals.a(stm32f4xx_rcc.o)
                                                  obj\.\src\User_Button.o
                                                  obj\.\src\usb_bsp.o
                                                  obj\.\src\touch_pad.o
                                                  obj\.\src\TFT_Display.o
                                                  obj\.\src\stm32f4_discovery.o
                                                  obj\.\src\Encoder_2.o
                                                  obj\.\src\Encoder_1.o
                                                  obj\.\src\CW_Mod.o
RCC_APB2PeriphClockLPModeCmd                      .\externals\libs\libstm32f4xx_peripherals.a(stm32f4xx_rcc.o)
RCC_APB2PeriphResetCmd                            .\externals\libs\libstm32f4xx_peripherals.a(stm32f4xx_rcc.o)
                                                  .\externals\libs\libstm32f4xx_peripherals.a(stm32f4xx_usart.o)
                                                  .\externals\libs\libstm32f4xx_peripherals.a(stm32f4xx_tim.o)
                                                  .\externals\libs\libstm32f4xx_peripherals.a(stm32f4xx_syscfg.o)
                                                  .\externals\libs\libstm32f4xx_peripherals.a(stm32f4xx_spi.o)
RCC_AdjustHSICalibrationValue                     .\externals\libs\libstm32f4xx_peripherals.a(stm32f4xx_rcc.o)
RCC_BackupResetCmd                                .\externals\libs\libstm32f4xx_peripherals.a(stm32f4xx_rcc.o)
RCC_ClearFlag                                     .\externals\libs\libstm32f4xx_peripherals.a(stm32f4xx_rcc.o)
RCC_ClearITPendingBit                             .\externals\libs\libstm32f4xx_peripherals.a(stm32f4xx_rcc.o)
RCC_ClockSecuritySystemCmd                        .\externals\libs\libstm32f4xx_peripherals.a(stm32f4xx_rcc.o)
RCC_DeInit                                        .\externals\libs\libstm32f4xx_peripherals.a(stm32f4xx_rcc.o)
RCC_GetClocksFreq                                 .\externals\libs\libstm32f4xx_peripherals.a(stm32f4xx_rcc.o)
                                                  .\externals\libs\libstm32f4xx_peripherals.a(stm32f4xx_usart.o)
                                                  .\externals\libs\libstm32f4xx_peripherals.a(stm32f4xx_i2c.o)
RCC_GetFlagStatus                                 .\externals\libs\libstm32f4xx_peripherals.a(stm32f4xx_rcc.o)
RCC_GetITStatus                                   .\externals\libs\libstm32f4xx_peripherals.a(stm32f4xx_rcc.o)
RCC_GetSYSCLKSource                               .\externals\libs\libstm32f4xx_peripherals.a(stm32f4xx_rcc.o)
RCC_HCLKConfig                                    .\externals\libs\libstm32f4xx_peripherals.a(stm32f4xx_rcc.o)
RCC_HSEConfig                                     .\externals\libs\libstm32f4xx_peripherals.a(stm32f4xx_rcc.o)
RCC_HSICmd                                        .\externals\libs\libstm32f4xx_peripherals.a(stm32f4xx_rcc.o)
RCC_I2SCLKConfig                                  .\externals\libs\libstm32f4xx_peripherals.a(stm32f4xx_rcc.o)
RCC_IRQHandler                                    obj\.\startup\startup_stm32f4xx.o
RCC_ITConfig                                      .\externals\libs\libstm32f4xx_peripherals.a(stm32f4xx_rcc.o)
RCC_LSEConfig                                     .\externals\libs\libstm32f4xx_peripherals.a(stm32f4xx_rcc.o)
RCC_LSICmd                                        .\externals\libs\libstm32f4xx_peripherals.a(stm32f4xx_rcc.o)
RCC_MCO1Config                                    .\externals\libs\libstm32f4xx_peripherals.a(stm32f4xx_rcc.o)
RCC_MCO2Config                                    .\externals\libs\libstm32f4xx_peripherals.a(stm32f4xx_rcc.o)
RCC_PCLK1Config                                   .\externals\libs\libstm32f4xx_peripherals.a(stm32f4xx_rcc.o)
RCC_PCLK2Config                                   .\externals\libs\libstm32f4xx_peripherals.a(stm32f4xx_rcc.o)
RCC_PLLCmd                                        .\externals\libs\libstm32f4xx_peripherals.a(stm32f4xx_rcc.o)
RCC_PLLConfig                                     .\externals\libs\libstm32f4xx_peripherals.a(stm32f4xx_rcc.o)
RCC_PLLI2SCmd                                     .\externals\libs\libstm32f4xx_peripherals.a(stm32f4xx_rcc.o)
RCC_PLLI2SConfig                                  .\externals\libs\libstm32f4xx_peripherals.a(stm32f4xx_rcc.o)
RCC_RTCCLKCmd                                     .\externals\libs\libstm32f4xx_peripherals.a(stm32f4xx_rcc.o)
RCC_RTCCLKConfig                                  .\externals\libs\libstm32f4xx_peripherals.a(stm32f4xx_rcc.o)
RCC_SYSCLKConfig                                  .\externals\libs\libstm32f4xx_peripherals.a(stm32f4xx_rcc.o)
RCC_WaitForHSEStartUp                             .\externals\libs\libstm32f4xx_peripherals.a(stm32f4xx_rcc.o)
RFREQ                                             obj\.\src\Si570.o
                                                  obj\.\src\main.o
                                                  obj\.\src\Encoder_2.o
                                                  obj\.\src\Encoder_1.o
RFREQ_FRAC                                        obj\.\src\Si570.o
                                                  obj\.\src\main.o
                                                  obj\.\src\Encoder_2.o
                                                  obj\.\src\Encoder_1.o
RFREQ_INT                                         obj\.\src\Si570.o
                                                  obj\.\src\main.o
                                                  obj\.\src\Encoder_2.o
                                                  obj\.\src\Encoder_1.o
RTC_Alarm_IRQHandler                              obj\.\startup\startup_stm32f4xx.o
RTC_WKUP_IRQHandler                               obj\.\startup\startup_stm32f4xx.o
R_lgain                                           obj\.\src\touch_pad.o
                                                  obj\.\src\main.o
                                                  obj\.\src\Encoder_2.o
                                                  obj\.\src\DMA_IRQ_Handler.o
                                                  obj\.\src\ChangeOver.o
R_xgain                                           obj\.\src\touch_pad.o
                                                  obj\.\src\main.o
                                                  obj\.\src\Encoder_2.o
                                                  obj\.\src\DMA_IRQ_Handler.o
                                                  obj\.\src\ChangeOver.o
Rcvr_DSP                                          obj\.\src\DMA_IRQ_Handler.o
Read_Ads7846                                      obj\.\src\touch_pad.o
Read_IQ_Data                                      obj\.\src\eeprom.o
                                                  obj\.\src\Encoder_2.o
Read_Int_EEProm                                   obj\.\src\eeprom.o
                                                  obj\.\src\Encoder_2.o
Read_Long_EEProm                                  obj\.\src\eeprom.o
                                                  obj\.\src\Encoder_1.o
Read_SI570_Data                                   obj\.\src\eeprom.o
                                                  obj\.\src\Encoder_1.o
Read_Si570_registers                              obj\.\src\Si570.o
Read_X                                            obj\.\src\touch_pad.o
Read_Y                                            obj\.\src\touch_pad.o
Recall_F0                                         obj\.\src\Si570.o
Receive_Sequence                                  obj\.\src\ChangeOver.o
                                                  obj\.\src\touch_pad.o
                                                  obj\.\src\Encoder_2.o
ResetDetector                                     obj\.\src\PSK_Det.o
ResetModem                                        obj\.\src\PSK_Det.o
                                                  obj\.\src\main.o
Reset_Vector                                      obj\.\startup\startup_stm32f4xx.o
Rx0BufferDMA                                      obj\.\src\PSK_Det.o
                                                  obj\.\src\main.o
                                                  obj\.\src\Init_DMA.o
                                                  obj\.\src\DSP_Processing.o
                                                  obj\.\src\DMA_IRQ_Handler.o
Rx1BufferDMA                                      obj\.\src\PSK_Det.o
                                                  obj\.\src\main.o
                                                  obj\.\src\Init_DMA.o
                                                  obj\.\src\DSP_Processing.o
                                                  obj\.\src\DMA_IRQ_Handler.o
S1                                                obj\.\src\PSKMod.o
                                                  obj\.\src\PSK_Det.o
                                                  obj\.\src\Keyboard_Input.o
                                                  obj\.\src\DMA_IRQ_Handler.o
                                                  obj\.\src\ChangeOver.o
S2                                                obj\.\src\PSKMod.o
                                                  obj\.\src\PSK_Det.o
                                                  obj\.\src\Keyboard_Input.o
                                                  obj\.\src\DMA_IRQ_Handler.o
                                                  obj\.\src\ChangeOver.o
SDIO_IRQHandler                                   obj\.\startup\startup_stm32f4xx.o
SI570_Chk                                         obj\.\src\Si570.o
                                                  obj\.\src\main.o
                                                  obj\.\src\Encoder_2.o
                                                  obj\.\src\Encoder_1.o
SPI1_IRQHandler                                   obj\.\startup\startup_stm32f4xx.o
SPI2_IRQHandler                                   obj\.\startup\startup_stm32f4xx.o
SPI3_IRQHandler                                   obj\.\startup\startup_stm32f4xx.o
SPI_BiDirectionalLineConfig                       .\externals\libs\libstm32f4xx_peripherals.a(stm32f4xx_spi.o)
SPI_CalculateCRC                                  .\externals\libs\libstm32f4xx_peripherals.a(stm32f4xx_spi.o)
SPI_Cmd                                           .\externals\libs\libstm32f4xx_peripherals.a(stm32f4xx_spi.o)
                                                  obj\.\src\touch_pad.o
SPI_DataSizeConfig                                .\externals\libs\libstm32f4xx_peripherals.a(stm32f4xx_spi.o)
SPI_GetCRC                                        .\externals\libs\libstm32f4xx_peripherals.a(stm32f4xx_spi.o)
SPI_GetCRCPolynomial                              .\externals\libs\libstm32f4xx_peripherals.a(stm32f4xx_spi.o)
SPI_I2S_ClearFlag                                 .\externals\libs\libstm32f4xx_peripherals.a(stm32f4xx_spi.o)
SPI_I2S_ClearITPendingBit                         .\externals\libs\libstm32f4xx_peripherals.a(stm32f4xx_spi.o)
SPI_I2S_DMACmd                                    .\externals\libs\libstm32f4xx_peripherals.a(stm32f4xx_spi.o)
                                                  obj\.\src\Init_DMA.o
SPI_I2S_DeInit                                    .\externals\libs\libstm32f4xx_peripherals.a(stm32f4xx_spi.o)
                                                  obj\.\src\touch_pad.o
SPI_I2S_GetFlagStatus                             .\externals\libs\libstm32f4xx_peripherals.a(stm32f4xx_spi.o)
                                                  obj\.\src\touch_pad.o
SPI_I2S_GetITStatus                               .\externals\libs\libstm32f4xx_peripherals.a(stm32f4xx_spi.o)
SPI_I2S_ITConfig                                  .\externals\libs\libstm32f4xx_peripherals.a(stm32f4xx_spi.o)
SPI_I2S_ReceiveData                               .\externals\libs\libstm32f4xx_peripherals.a(stm32f4xx_spi.o)
                                                  obj\.\src\touch_pad.o
SPI_I2S_SendData                                  .\externals\libs\libstm32f4xx_peripherals.a(stm32f4xx_spi.o)
                                                  obj\.\src\touch_pad.o
SPI_Init                                          .\externals\libs\libstm32f4xx_peripherals.a(stm32f4xx_spi.o)
                                                  obj\.\src\touch_pad.o
SPI_NSSInternalSoftwareConfig                     .\externals\libs\libstm32f4xx_peripherals.a(stm32f4xx_spi.o)
SPI_SSOutputCmd                                   .\externals\libs\libstm32f4xx_peripherals.a(stm32f4xx_spi.o)
SPI_StructInit                                    .\externals\libs\libstm32f4xx_peripherals.a(stm32f4xx_spi.o)
SPI_TIModeCmd                                     .\externals\libs\libstm32f4xx_peripherals.a(stm32f4xx_spi.o)
SPI_TransmitCRC                                   .\externals\libs\libstm32f4xx_peripherals.a(stm32f4xx_spi.o)
STM_EVAL_LEDInit                                  obj\.\src\stm32f4_discovery.o
STM_EVAL_LEDOff                                   obj\.\src\stm32f4_discovery.o
                                                  obj\.\externals\SM32F4-Discovery\USB\src\usbh_core.o
STM_EVAL_LEDOn                                    obj\.\src\stm32f4_discovery.o
STM_EVAL_LEDToggle                                obj\.\src\stm32f4_discovery.o
STM_EVAL_PBGetState                               obj\.\src\stm32f4_discovery.o
STM_EVAL_PBInit                                   obj\.\src\stm32f4_discovery.o
                                                  obj\.\src\usb_bsp.o
SVC_Handler                                       obj\.\src\stm32f4xx_it.o
                                                  obj\.\startup\startup_stm32f4xx.o
SYSCFG_CompensationCellCmd                        .\externals\libs\libstm32f4xx_peripherals.a(stm32f4xx_syscfg.o)
SYSCFG_DeInit                                     .\externals\libs\libstm32f4xx_peripherals.a(stm32f4xx_syscfg.o)
SYSCFG_ETH_MediaInterfaceConfig                   .\externals\libs\libstm32f4xx_peripherals.a(stm32f4xx_syscfg.o)
SYSCFG_EXTILineConfig                             .\externals\libs\libstm32f4xx_peripherals.a(stm32f4xx_syscfg.o)
                                                  obj\.\src\touch_pad.o
                                                  obj\.\src\stm32f4_discovery.o
                                                  obj\.\src\Encoder_2.o
                                                  obj\.\src\Encoder_1.o
SYSCFG_GetCompensationCellStatus                  .\externals\libs\libstm32f4xx_peripherals.a(stm32f4xx_syscfg.o)
SYSCFG_MemoryRemapConfig                          .\externals\libs\libstm32f4xx_peripherals.a(stm32f4xx_syscfg.o)
S_CFFT                                            obj\.\src\DSP_Processing.o
S_FIR_I                                           obj\.\src\DSP_Processing.o
S_FIR_Q                                           obj\.\src\DSP_Processing.o
Samp                                              obj\.\src\User_Button.o
                                                  obj\.\src\touch_pad.o
                                                  obj\.\src\TFT_Display.o
                                                  obj\.\src\Sine_table.o
                                                  obj\.\src\PSKMod.o
                                                  obj\.\src\PSK_Det.o
                                                  obj\.\src\main.o
                                                  obj\.\src\DSP_Processing.o
                                                  obj\.\src\DMA_IRQ_Handler.o
Sample_Frequency                                  obj\.\src\User_Button.o
                                                  obj\.\src\touch_pad.o
                                                  obj\.\src\TFT_Display.o
                                                  obj\.\src\Sine_table.o
                                                  obj\.\src\PSKMod.o
                                                  obj\.\src\PSK_Det.o
                                                  obj\.\src\main.o
                                                  obj\.\src\DSP_Processing.o
                                                  obj\.\src\DMA_IRQ_Handler.o
SetAFCLimit                                       obj\.\src\PSK_Det.o
                                                  obj\.\src\main.o
SetRXFrequency                                    obj\.\src\PSK_Det.o
                                                  obj\.\src\touch_pad.o
                                                  obj\.\src\main.o
SetSampleClkAdj                                   obj\.\src\PSK_Det.o
Set_ADC_DVC                                       obj\.\src\Codec_Gains.o
                                                  obj\.\src\ChangeOver.o
Set_DAC_DVC                                       obj\.\src\Codec_Gains.o
                                                  obj\.\src\Encoder_2.o
                                                  obj\.\src\ChangeOver.o
Set_HP_Gain                                       obj\.\src\Codec_Gains.o
                                                  obj\.\src\Encoder_2.o
                                                  obj\.\src\ChangeOver.o
Set_HS_DIV_N1                                     obj\.\src\Si570.o
Set_IQ_Units                                      obj\.\src\Encoder_2.o
Set_Initial_IQ_Data                               obj\.\src\Encoder_2.o
Set_Initial_SI570_Data                            obj\.\src\Encoder_1.o
                                                  obj\.\src\Encoder_2.o
Set_LO_Gain                                       obj\.\src\Codec_Gains.o
                                                  obj\.\src\ChangeOver.o
Set_Maximums                                      obj\.\src\Encoder_2.o
Set_Minimums                                      obj\.\src\Encoder_2.o
Set_Mode_Display                                  obj\.\src\ModeSelect.o
                                                  obj\.\src\touch_pad.o
Set_PGA_Gain                                      obj\.\src\Codec_Gains.o
                                                  obj\.\src\Encoder_2.o
                                                  obj\.\src\ChangeOver.o
Si570_StartUp                                     obj\.\src\Si570.o
Sideband_Demod                                    obj\.\src\DSP_Processing.o
                                                  obj\.\src\DMA_IRQ_Handler.o
Sine_table                                        obj\.\src\Sine_table.o
                                                  obj\.\src\User_Button.o
                                                  obj\.\src\touch_pad.o
                                                  obj\.\src\TFT_Display.o
                                                  obj\.\src\PSKMod.o
                                                  obj\.\src\PSK_Det.o
                                                  obj\.\src\main.o
                                                  obj\.\src\DSP_Processing.o
                                                  obj\.\src\DMA_IRQ_Handler.o
Store_Defaults                                    obj\.\src\Encoder_2.o
                                                  obj\.\src\touch_pad.o
Store_IQ_Data                                     obj\.\src\eeprom.o
                                                  obj\.\src\touch_pad.o
                                                  obj\.\src\Encoder_2.o
Store_SI570_Data                                  obj\.\src\eeprom.o
                                                  obj\.\src\touch_pad.o
                                                  obj\.\src\Encoder_2.o
                                                  obj\.\src\Encoder_1.o
String2Buffer                                     obj\.\src\Keyboard_Input.o
SymbSync                                          obj\.\src\PSK_Det.o
SysTick_CLKSourceConfig                           obj\.\externals\SM32F4-Discovery\USB\src\misc.o
SysTick_Handler                                   obj\.\src\stm32f4xx_it.o
                                                  obj\.\startup\startup_stm32f4xx.o
SystemCoreClock                                   obj\.\src\system_stm32f4xx.o
                                                  obj\.\src\TFT_Display.o
SystemCoreClockUpdate                             obj\.\src\system_stm32f4xx.o
SystemInit                                        obj\.\src\system_stm32f4xx.o
                                                  obj\.\startup\startup_stm32f4xx.o
TAMP_STAMP_IRQHandler                             obj\.\startup\startup_stm32f4xx.o
TEST_GPIO_Init                                    obj\.\src\DMA_Test_Pins.o
                                                  obj\.\src\main.o
TFT_Delay                                         obj\.\src\TFT_Display.o
TIM1_BRK_TIM9_IRQHandler                          obj\.\startup\startup_stm32f4xx.o
TIM1_CC_IRQHandler                                obj\.\startup\startup_stm32f4xx.o
TIM1_TRG_COM_TIM11_IRQHandler                     obj\.\startup\startup_stm32f4xx.o
TIM1_UP_TIM10_IRQHandler                          obj\.\startup\startup_stm32f4xx.o
TIM2_IRQHandler                                   obj\.\src\stm32f4xx_it.o
                                                  obj\.\startup\startup_stm32f4xx.o
TIM3_IRQHandler                                   obj\.\startup\startup_stm32f4xx.o
TIM4_IRQHandler                                   obj\.\startup\startup_stm32f4xx.o
TIM5_IRQHandler                                   obj\.\startup\startup_stm32f4xx.o
TIM6_DAC_IRQHandler                               obj\.\startup\startup_stm32f4xx.o
TIM7_IRQHandler                                   obj\.\startup\startup_stm32f4xx.o
TIM8_BRK_TIM12_IRQHandler                         obj\.\startup\startup_stm32f4xx.o
TIM8_CC_IRQHandler                                obj\.\startup\startup_stm32f4xx.o
TIM8_TRG_COM_TIM14_IRQHandler                     obj\.\startup\startup_stm32f4xx.o
TIM8_UP_TIM13_IRQHandler                          obj\.\startup\startup_stm32f4xx.o
TIM_ARRPreloadConfig                              .\externals\libs\libstm32f4xx_peripherals.a(stm32f4xx_tim.o)
                                                  obj\.\src\usb_bsp.o
TIM_BDTRConfig                                    .\externals\libs\libstm32f4xx_peripherals.a(stm32f4xx_tim.o)
TIM_BDTRStructInit                                .\externals\libs\libstm32f4xx_peripherals.a(stm32f4xx_tim.o)
TIM_CCPreloadControl                              .\externals\libs\libstm32f4xx_peripherals.a(stm32f4xx_tim.o)
TIM_CCxCmd                                        .\externals\libs\libstm32f4xx_peripherals.a(stm32f4xx_tim.o)
TIM_CCxNCmd                                       .\externals\libs\libstm32f4xx_peripherals.a(stm32f4xx_tim.o)
TIM_ClearFlag                                     .\externals\libs\libstm32f4xx_peripherals.a(stm32f4xx_tim.o)
TIM_ClearITPendingBit                             .\externals\libs\libstm32f4xx_peripherals.a(stm32f4xx_tim.o)
                                                  obj\.\src\usb_bsp.o
TIM_ClearOC1Ref                                   .\externals\libs\libstm32f4xx_peripherals.a(stm32f4xx_tim.o)
TIM_ClearOC2Ref                                   .\externals\libs\libstm32f4xx_peripherals.a(stm32f4xx_tim.o)
TIM_ClearOC3Ref                                   .\externals\libs\libstm32f4xx_peripherals.a(stm32f4xx_tim.o)
TIM_ClearOC4Ref                                   .\externals\libs\libstm32f4xx_peripherals.a(stm32f4xx_tim.o)
TIM_Cmd                                           .\externals\libs\libstm32f4xx_peripherals.a(stm32f4xx_tim.o)
                                                  obj\.\src\usb_bsp.o
                                                  obj\.\src\TFT_Display.o
TIM_Config                                        obj\.\src\TFT_Display.o
TIM_CounterModeConfig                             .\externals\libs\libstm32f4xx_peripherals.a(stm32f4xx_tim.o)
TIM_CtrlPWMOutputs                                .\externals\libs\libstm32f4xx_peripherals.a(stm32f4xx_tim.o)
                                                  obj\.\src\TFT_Display.o
TIM_DMACmd                                        .\externals\libs\libstm32f4xx_peripherals.a(stm32f4xx_tim.o)
TIM_DMAConfig                                     .\externals\libs\libstm32f4xx_peripherals.a(stm32f4xx_tim.o)
TIM_DeInit                                        .\externals\libs\libstm32f4xx_peripherals.a(stm32f4xx_tim.o)
TIM_ETRClockMode1Config                           .\externals\libs\libstm32f4xx_peripherals.a(stm32f4xx_tim.o)
TIM_ETRClockMode2Config                           .\externals\libs\libstm32f4xx_peripherals.a(stm32f4xx_tim.o)
TIM_ETRConfig                                     .\externals\libs\libstm32f4xx_peripherals.a(stm32f4xx_tim.o)
TIM_EncoderInterfaceConfig                        .\externals\libs\libstm32f4xx_peripherals.a(stm32f4xx_tim.o)
TIM_ForcedOC1Config                               .\externals\libs\libstm32f4xx_peripherals.a(stm32f4xx_tim.o)
TIM_ForcedOC2Config                               .\externals\libs\libstm32f4xx_peripherals.a(stm32f4xx_tim.o)
TIM_ForcedOC3Config                               .\externals\libs\libstm32f4xx_peripherals.a(stm32f4xx_tim.o)
TIM_ForcedOC4Config                               .\externals\libs\libstm32f4xx_peripherals.a(stm32f4xx_tim.o)
TIM_GenerateEvent                                 .\externals\libs\libstm32f4xx_peripherals.a(stm32f4xx_tim.o)
TIM_GetCapture1                                   .\externals\libs\libstm32f4xx_peripherals.a(stm32f4xx_tim.o)
TIM_GetCapture2                                   .\externals\libs\libstm32f4xx_peripherals.a(stm32f4xx_tim.o)
TIM_GetCapture3                                   .\externals\libs\libstm32f4xx_peripherals.a(stm32f4xx_tim.o)
TIM_GetCapture4                                   .\externals\libs\libstm32f4xx_peripherals.a(stm32f4xx_tim.o)
TIM_GetCounter                                    .\externals\libs\libstm32f4xx_peripherals.a(stm32f4xx_tim.o)
TIM_GetFlagStatus                                 .\externals\libs\libstm32f4xx_peripherals.a(stm32f4xx_tim.o)
TIM_GetITStatus                                   .\externals\libs\libstm32f4xx_peripherals.a(stm32f4xx_tim.o)
                                                  obj\.\src\usb_bsp.o
TIM_GetPrescaler                                  .\externals\libs\libstm32f4xx_peripherals.a(stm32f4xx_tim.o)
TIM_ICInit                                        .\externals\libs\libstm32f4xx_peripherals.a(stm32f4xx_tim.o)
TIM_ICStructInit                                  .\externals\libs\libstm32f4xx_peripherals.a(stm32f4xx_tim.o)
TIM_ITConfig                                      .\externals\libs\libstm32f4xx_peripherals.a(stm32f4xx_tim.o)
                                                  obj\.\src\usb_bsp.o
TIM_ITRxExternalClockConfig                       .\externals\libs\libstm32f4xx_peripherals.a(stm32f4xx_tim.o)
TIM_InternalClockConfig                           .\externals\libs\libstm32f4xx_peripherals.a(stm32f4xx_tim.o)
TIM_OC1FastConfig                                 .\externals\libs\libstm32f4xx_peripherals.a(stm32f4xx_tim.o)
TIM_OC1Init                                       .\externals\libs\libstm32f4xx_peripherals.a(stm32f4xx_tim.o)
                                                  obj\.\src\TFT_Display.o
TIM_OC1NPolarityConfig                            .\externals\libs\libstm32f4xx_peripherals.a(stm32f4xx_tim.o)
TIM_OC1PolarityConfig                             .\externals\libs\libstm32f4xx_peripherals.a(stm32f4xx_tim.o)
TIM_OC1PreloadConfig                              .\externals\libs\libstm32f4xx_peripherals.a(stm32f4xx_tim.o)
TIM_OC2FastConfig                                 .\externals\libs\libstm32f4xx_peripherals.a(stm32f4xx_tim.o)
TIM_OC2Init                                       .\externals\libs\libstm32f4xx_peripherals.a(stm32f4xx_tim.o)
TIM_OC2NPolarityConfig                            .\externals\libs\libstm32f4xx_peripherals.a(stm32f4xx_tim.o)
TIM_OC2PolarityConfig                             .\externals\libs\libstm32f4xx_peripherals.a(stm32f4xx_tim.o)
TIM_OC2PreloadConfig                              .\externals\libs\libstm32f4xx_peripherals.a(stm32f4xx_tim.o)
TIM_OC3FastConfig                                 .\externals\libs\libstm32f4xx_peripherals.a(stm32f4xx_tim.o)
TIM_OC3Init                                       .\externals\libs\libstm32f4xx_peripherals.a(stm32f4xx_tim.o)
                                                  obj\.\src\TFT_Display.o
TIM_OC3NPolarityConfig                            .\externals\libs\libstm32f4xx_peripherals.a(stm32f4xx_tim.o)
TIM_OC3PolarityConfig                             .\externals\libs\libstm32f4xx_peripherals.a(stm32f4xx_tim.o)
TIM_OC3PreloadConfig                              .\externals\libs\libstm32f4xx_peripherals.a(stm32f4xx_tim.o)
TIM_OC4FastConfig                                 .\externals\libs\libstm32f4xx_peripherals.a(stm32f4xx_tim.o)
TIM_OC4Init                                       .\externals\libs\libstm32f4xx_peripherals.a(stm32f4xx_tim.o)
TIM_OC4PolarityConfig                             .\externals\libs\libstm32f4xx_peripherals.a(stm32f4xx_tim.o)
TIM_OC4PreloadConfig                              .\externals\libs\libstm32f4xx_peripherals.a(stm32f4xx_tim.o)
TIM_OCInitStructure                               obj\.\src\TFT_Display.o
TIM_OCStructInit                                  .\externals\libs\libstm32f4xx_peripherals.a(stm32f4xx_tim.o)
TIM_PWMIConfig                                    .\externals\libs\libstm32f4xx_peripherals.a(stm32f4xx_tim.o)
TIM_PrescalerConfig                               .\externals\libs\libstm32f4xx_peripherals.a(stm32f4xx_tim.o)
TIM_RemapConfig                                   .\externals\libs\libstm32f4xx_peripherals.a(stm32f4xx_tim.o)
TIM_SelectCCDMA                                   .\externals\libs\libstm32f4xx_peripherals.a(stm32f4xx_tim.o)
TIM_SelectCOM                                     .\externals\libs\libstm32f4xx_peripherals.a(stm32f4xx_tim.o)
TIM_SelectHallSensor                              .\externals\libs\libstm32f4xx_peripherals.a(stm32f4xx_tim.o)
TIM_SelectInputTrigger                            .\externals\libs\libstm32f4xx_peripherals.a(stm32f4xx_tim.o)
TIM_SelectMasterSlaveMode                         .\externals\libs\libstm32f4xx_peripherals.a(stm32f4xx_tim.o)
TIM_SelectOCxM                                    .\externals\libs\libstm32f4xx_peripherals.a(stm32f4xx_tim.o)
TIM_SelectOnePulseMode                            .\externals\libs\libstm32f4xx_peripherals.a(stm32f4xx_tim.o)
TIM_SelectOutputTrigger                           .\externals\libs\libstm32f4xx_peripherals.a(stm32f4xx_tim.o)
TIM_SelectSlaveMode                               .\externals\libs\libstm32f4xx_peripherals.a(stm32f4xx_tim.o)
TIM_SetAutoreload                                 .\externals\libs\libstm32f4xx_peripherals.a(stm32f4xx_tim.o)
TIM_SetClockDivision                              .\externals\libs\libstm32f4xx_peripherals.a(stm32f4xx_tim.o)
TIM_SetCompare1                                   .\externals\libs\libstm32f4xx_peripherals.a(stm32f4xx_tim.o)
TIM_SetCompare2                                   .\externals\libs\libstm32f4xx_peripherals.a(stm32f4xx_tim.o)
TIM_SetCompare3                                   .\externals\libs\libstm32f4xx_peripherals.a(stm32f4xx_tim.o)
TIM_SetCompare4                                   .\externals\libs\libstm32f4xx_peripherals.a(stm32f4xx_tim.o)
TIM_SetCounter                                    .\externals\libs\libstm32f4xx_peripherals.a(stm32f4xx_tim.o)
TIM_SetIC1Prescaler                               .\externals\libs\libstm32f4xx_peripherals.a(stm32f4xx_tim.o)
TIM_SetIC2Prescaler                               .\externals\libs\libstm32f4xx_peripherals.a(stm32f4xx_tim.o)
TIM_SetIC3Prescaler                               .\externals\libs\libstm32f4xx_peripherals.a(stm32f4xx_tim.o)
TIM_SetIC4Prescaler                               .\externals\libs\libstm32f4xx_peripherals.a(stm32f4xx_tim.o)
TIM_TIxExternalClockConfig                        .\externals\libs\libstm32f4xx_peripherals.a(stm32f4xx_tim.o)
TIM_TimeBaseInit                                  .\externals\libs\libstm32f4xx_peripherals.a(stm32f4xx_tim.o)
                                                  obj\.\src\usb_bsp.o
                                                  obj\.\src\TFT_Display.o
TIM_TimeBaseStructInit                            .\externals\libs\libstm32f4xx_peripherals.a(stm32f4xx_tim.o)
TIM_TimeBaseStructure                             obj\.\src\TFT_Display.o
TIM_UpdateDisableConfig                           .\externals\libs\libstm32f4xx_peripherals.a(stm32f4xx_tim.o)
TIM_UpdateRequestConfig                           .\externals\libs\libstm32f4xx_peripherals.a(stm32f4xx_tim.o)
TP_GetAdXY                                        obj\.\src\touch_pad.o
T_lgain                                           obj\.\src\touch_pad.o
                                                  obj\.\src\main.o
                                                  obj\.\src\Encoder_2.o
                                                  obj\.\src\DMA_IRQ_Handler.o
                                                  obj\.\src\ChangeOver.o
T_xgain                                           obj\.\src\touch_pad.o
                                                  obj\.\src\main.o
                                                  obj\.\src\Encoder_2.o
                                                  obj\.\src\DMA_IRQ_Handler.o
                                                  obj\.\src\ChangeOver.o
Tab_State_Machine                                 obj\.\externals\SM32F4-Discovery\USB\src\usbh_core.o
Tab_State_Machine_incr                            obj\.\externals\SM32F4-Discovery\USB\src\usbh_core.o
TextColor                                         obj\.\src\TFT_Display.o
Timeout                                           obj\.\src\Init_I2C.o
TimerPeriod                                       obj\.\src\TFT_Display.o
TouchCount                                        obj\.\src\touch_pad.o
TouchFlag                                         obj\.\src\User_Button.o
                                                  obj\.\src\touch_pad.o
                                                  obj\.\src\TFT_Display.o
                                                  obj\.\src\main.o
TouchPanel_Calibrate                              obj\.\src\touch_pad.o
Turn_Off_Bias                                     obj\.\src\Codec_Gains.o
                                                  obj\.\src\Encoder_2.o
Turn_On_Bias                                      obj\.\src\Codec_Gains.o
                                                  obj\.\src\Encoder_2.o
Tx0BufferDMA                                      obj\.\src\PSK_Det.o
                                                  obj\.\src\main.o
                                                  obj\.\src\Init_DMA.o
                                                  obj\.\src\DSP_Processing.o
                                                  obj\.\src\DMA_IRQ_Handler.o
Tx1BufferDMA                                      obj\.\src\PSK_Det.o
                                                  obj\.\src\main.o
                                                  obj\.\src\Init_DMA.o
                                                  obj\.\src\DSP_Processing.o
                                                  obj\.\src\DMA_IRQ_Handler.o
Tx_Flag                                           obj\.\src\touch_pad.o
                                                  obj\.\src\main.o
                                                  obj\.\src\Encoder_2.o
                                                  obj\.\src\DMA_IRQ_Handler.o
                                                  obj\.\src\ChangeOver.o
UART4_IRQHandler                                  obj\.\startup\startup_stm32f4xx.o
UART5_IRQHandler                                  obj\.\startup\startup_stm32f4xx.o
USART1_IRQHandler                                 obj\.\startup\startup_stm32f4xx.o
USART2_IRQHandler                                 obj\.\src\uart.o
                                                  obj\.\startup\startup_stm32f4xx.o
USART3_IRQHandler                                 obj\.\startup\startup_stm32f4xx.o
USART6_IRQHandler                                 obj\.\startup\startup_stm32f4xx.o
USART_ClearFlag                                   .\externals\libs\libstm32f4xx_peripherals.a(stm32f4xx_usart.o)
USART_ClearITPendingBit                           .\externals\libs\libstm32f4xx_peripherals.a(stm32f4xx_usart.o)
USART_ClockInit                                   .\externals\libs\libstm32f4xx_peripherals.a(stm32f4xx_usart.o)
USART_ClockStructInit                             .\externals\libs\libstm32f4xx_peripherals.a(stm32f4xx_usart.o)
USART_Cmd                                         .\externals\libs\libstm32f4xx_peripherals.a(stm32f4xx_usart.o)
                                                  obj\.\src\uart.o
USART_DMACmd                                      .\externals\libs\libstm32f4xx_peripherals.a(stm32f4xx_usart.o)
USART_DeInit                                      .\externals\libs\libstm32f4xx_peripherals.a(stm32f4xx_usart.o)
USART_GetFlagStatus                               .\externals\libs\libstm32f4xx_peripherals.a(stm32f4xx_usart.o)
                                                  obj\.\src\uart.o
USART_GetITStatus                                 .\externals\libs\libstm32f4xx_peripherals.a(stm32f4xx_usart.o)
                                                  obj\.\src\uart.o
USART_HalfDuplexCmd                               .\externals\libs\libstm32f4xx_peripherals.a(stm32f4xx_usart.o)
USART_ITConfig                                    .\externals\libs\libstm32f4xx_peripherals.a(stm32f4xx_usart.o)
                                                  obj\.\src\uart.o
USART_Init                                        .\externals\libs\libstm32f4xx_peripherals.a(stm32f4xx_usart.o)
                                                  obj\.\src\uart.o
USART_IrDACmd                                     .\externals\libs\libstm32f4xx_peripherals.a(stm32f4xx_usart.o)
USART_IrDAConfig                                  .\externals\libs\libstm32f4xx_peripherals.a(stm32f4xx_usart.o)
USART_LINBreakDetectLengthConfig                  .\externals\libs\libstm32f4xx_peripherals.a(stm32f4xx_usart.o)
USART_LINCmd                                      .\externals\libs\libstm32f4xx_peripherals.a(stm32f4xx_usart.o)
USART_OneBitMethodCmd                             .\externals\libs\libstm32f4xx_peripherals.a(stm32f4xx_usart.o)
USART_OverSampling8Cmd                            .\externals\libs\libstm32f4xx_peripherals.a(stm32f4xx_usart.o)
USART_ReceiveData                                 .\externals\libs\libstm32f4xx_peripherals.a(stm32f4xx_usart.o)
USART_ReceiverWakeUpCmd                           .\externals\libs\libstm32f4xx_peripherals.a(stm32f4xx_usart.o)
USART_SendBreak                                   .\externals\libs\libstm32f4xx_peripherals.a(stm32f4xx_usart.o)
USART_SendData                                    .\externals\libs\libstm32f4xx_peripherals.a(stm32f4xx_usart.o)
                                                  obj\.\src\uart.o
USART_SetAddress                                  .\externals\libs\libstm32f4xx_peripherals.a(stm32f4xx_usart.o)
USART_SetGuardTime                                .\externals\libs\libstm32f4xx_peripherals.a(stm32f4xx_usart.o)
USART_SetPrescaler                                .\externals\libs\libstm32f4xx_peripherals.a(stm32f4xx_usart.o)
USART_SmartCardCmd                                .\externals\libs\libstm32f4xx_peripherals.a(stm32f4xx_usart.o)
USART_SmartCardNACKCmd                            .\externals\libs\libstm32f4xx_peripherals.a(stm32f4xx_usart.o)
USART_StructInit                                  .\externals\libs\libstm32f4xx_peripherals.a(stm32f4xx_usart.o)
USART_WakeUpConfig                                .\externals\libs\libstm32f4xx_peripherals.a(stm32f4xx_usart.o)
USBH_Alloc_Channel                                obj\.\externals\SM32F4-Discovery\USB\src\usbh_hcs.o
                                                  obj\.\externals\SM32F4-Discovery\USB\src\usbh_hid_core.o
                                                  obj\.\externals\SM32F4-Discovery\USB\src\usbh_core.o
USBH_BulkReceiveData                              obj\.\externals\SM32F4-Discovery\USB\src\usbh_ioreq.o
USBH_BulkSendData                                 obj\.\externals\SM32F4-Discovery\USB\src\usbh_ioreq.o
USBH_CfgDesc                                      obj\.\externals\SM32F4-Discovery\USB\src\usbh_stdreq.o
USBH_ClrFeature                                   obj\.\externals\SM32F4-Discovery\USB\src\usbh_stdreq.o
                                                  obj\.\externals\SM32F4-Discovery\USB\src\usbh_hid_core.o
USBH_Connected                                    obj\.\externals\SM32F4-Discovery\USB\src\usbh_core.o
USBH_CtlReceiveData                               obj\.\externals\SM32F4-Discovery\USB\src\usbh_ioreq.o
                                                  obj\.\externals\SM32F4-Discovery\USB\src\usbh_core.o
USBH_CtlReq                                       obj\.\externals\SM32F4-Discovery\USB\src\usbh_ioreq.o
                                                  obj\.\externals\SM32F4-Discovery\USB\src\usbh_stdreq.o
                                                  obj\.\externals\SM32F4-Discovery\USB\src\usbh_hid_core.o
USBH_CtlSendData                                  obj\.\externals\SM32F4-Discovery\USB\src\usbh_ioreq.o
                                                  obj\.\externals\SM32F4-Discovery\USB\src\usbh_core.o
USBH_CtlSendSetup                                 obj\.\externals\SM32F4-Discovery\USB\src\usbh_ioreq.o
                                                  obj\.\externals\SM32F4-Discovery\USB\src\usbh_core.o
USBH_DeAllocate_AllChannel                        obj\.\externals\SM32F4-Discovery\USB\src\usbh_hcs.o
                                                  obj\.\externals\SM32F4-Discovery\USB\src\usbh_core.o
USBH_DeInit                                       obj\.\externals\SM32F4-Discovery\USB\src\usbh_core.o
USBH_Disconnected                                 obj\.\externals\SM32F4-Discovery\USB\src\usbh_core.o
USBH_ErrorHandle                                  obj\.\externals\SM32F4-Discovery\USB\src\usbh_core.o
USBH_Free_Channel                                 obj\.\externals\SM32F4-Discovery\USB\src\usbh_hcs.o
                                                  obj\.\externals\SM32F4-Discovery\USB\src\usbh_hid_core.o
                                                  obj\.\externals\SM32F4-Discovery\USB\src\usbh_core.o
USBH_GetDescriptor                                obj\.\externals\SM32F4-Discovery\USB\src\usbh_stdreq.o
                                                  obj\.\externals\SM32F4-Discovery\USB\src\usbh_hid_core.o
USBH_GetNextDesc                                  obj\.\externals\SM32F4-Discovery\USB\src\usbh_stdreq.o
USBH_Get_CfgDesc                                  obj\.\externals\SM32F4-Discovery\USB\src\usbh_stdreq.o
                                                  obj\.\externals\SM32F4-Discovery\USB\src\usbh_core.o
USBH_Get_DevDesc                                  obj\.\externals\SM32F4-Discovery\USB\src\usbh_stdreq.o
                                                  obj\.\externals\SM32F4-Discovery\USB\src\usbh_core.o
USBH_Get_StringDesc                               obj\.\externals\SM32F4-Discovery\USB\src\usbh_stdreq.o
                                                  obj\.\externals\SM32F4-Discovery\USB\src\usbh_core.o
USBH_HCD_INT_cb                                   obj\.\externals\SM32F4-Discovery\USB\src\usbh_core.o
USBH_HCD_INT_fops                                 obj\.\externals\SM32F4-Discovery\USB\src\usbh_core.o
                                                  obj\.\externals\SM32F4-Discovery\USB\src\usb_hcd_int.o
USBH_HandleControl                                obj\.\externals\SM32F4-Discovery\USB\src\usbh_core.o
USBH_Init                                         obj\.\externals\SM32F4-Discovery\USB\src\usbh_core.o
                                                  obj\.\src\main.o
USBH_InterruptReceiveData                         obj\.\externals\SM32F4-Discovery\USB\src\usbh_ioreq.o
                                                  obj\.\externals\SM32F4-Discovery\USB\src\usbh_hid_core.o
USBH_InterruptSendData                            obj\.\externals\SM32F4-Discovery\USB\src\usbh_ioreq.o
USBH_IsocReceiveData                              obj\.\externals\SM32F4-Discovery\USB\src\usbh_ioreq.o
USBH_IsocSendData                                 obj\.\externals\SM32F4-Discovery\USB\src\usbh_ioreq.o
USBH_Modify_Channel                               obj\.\externals\SM32F4-Discovery\USB\src\usbh_hcs.o
                                                  obj\.\externals\SM32F4-Discovery\USB\src\usbh_core.o
USBH_OTG_ISR_Handler                              obj\.\externals\SM32F4-Discovery\USB\src\usb_hcd_int.o
                                                  obj\.\src\stm32f4xx_it.o
USBH_Open_Channel                                 obj\.\externals\SM32F4-Discovery\USB\src\usbh_hcs.o
                                                  obj\.\externals\SM32F4-Discovery\USB\src\usbh_hid_core.o
                                                  obj\.\externals\SM32F4-Discovery\USB\src\usbh_core.o
USBH_Process                                      obj\.\externals\SM32F4-Discovery\USB\src\usbh_core.o
                                                  obj\.\src\main.o
USBH_SOF                                          obj\.\externals\SM32F4-Discovery\USB\src\usbh_core.o
USBH_SetAddress                                   obj\.\externals\SM32F4-Discovery\USB\src\usbh_stdreq.o
                                                  obj\.\externals\SM32F4-Discovery\USB\src\usbh_core.o
USBH_SetCfg                                       obj\.\externals\SM32F4-Discovery\USB\src\usbh_stdreq.o
                                                  obj\.\externals\SM32F4-Discovery\USB\src\usbh_core.o
USBH_SetInterface                                 obj\.\externals\SM32F4-Discovery\USB\src\usbh_stdreq.o
USBH_Set_Report                                   obj\.\externals\SM32F4-Discovery\USB\src\usbh_hid_core.o
USBH_USR_Configuration_DescAvailable              obj\.\src\usbh_usr.o
USBH_USR_DeInit                                   obj\.\src\usbh_usr.o
USBH_USR_DeviceAddressAssigned                    obj\.\src\usbh_usr.o
USBH_USR_DeviceAttached                           obj\.\src\usbh_usr.o
USBH_USR_DeviceDisconnected                       obj\.\src\usbh_usr.o
USBH_USR_DeviceNotSupported                       obj\.\src\usbh_usr.o
USBH_USR_DeviceSpeedDetected                      obj\.\src\usbh_usr.o
USBH_USR_Device_DescAvailable                     obj\.\src\usbh_usr.o
USBH_USR_EnumerationDone                          obj\.\src\usbh_usr.o
USBH_USR_Init                                     obj\.\src\usbh_usr.o
USBH_USR_Manufacturer_String                      obj\.\src\usbh_usr.o
USBH_USR_OverCurrentDetected                      obj\.\src\usbh_usr.o
USBH_USR_Product_String                           obj\.\src\usbh_usr.o
USBH_USR_ResetDevice                              obj\.\src\usbh_usr.o
USBH_USR_SerialNum_String                         obj\.\src\usbh_usr.o
USBH_USR_UnrecoveredError                         obj\.\src\usbh_usr.o
USBH_USR_UserInput                                obj\.\src\usbh_usr.o
USB_Host                                          obj\.\src\stm32f4xx_it.o
                                                  obj\.\src\main.o
USB_OTG_BSP_ConfigVBUS                            obj\.\src\usb_bsp.o
                                                  obj\.\externals\SM32F4-Discovery\USB\src\usbh_core.o
                                                  obj\.\externals\SM32F4-Discovery\USB\src\usb_core.o
USB_OTG_BSP_DriveVBUS                             obj\.\src\usb_bsp.o
                                                  obj\.\externals\SM32F4-Discovery\USB\src\usb_core.o
USB_OTG_BSP_EnableInterrupt                       obj\.\src\usb_bsp.o
                                                  obj\.\externals\SM32F4-Discovery\USB\src\usbh_core.o
USB_OTG_BSP_Init                                  obj\.\src\usb_bsp.o
                                                  obj\.\externals\SM32F4-Discovery\USB\src\usbh_core.o
USB_OTG_BSP_TimerIRQ                              obj\.\src\usb_bsp.o
                                                  obj\.\src\stm32f4xx_it.o
USB_OTG_BSP_mDelay                                obj\.\src\usb_bsp.o
                                                  obj\.\externals\SM32F4-Discovery\USB\src\usbh_core.o
                                                  obj\.\externals\SM32F4-Discovery\USB\src\usb_core.o
USB_OTG_BSP_uDelay                                obj\.\src\usb_bsp.o
                                                  obj\.\externals\SM32F4-Discovery\USB\src\usb_core.o
USB_OTG_CoreInit                                  obj\.\externals\SM32F4-Discovery\USB\src\usb_core.o
                                                  obj\.\externals\SM32F4-Discovery\USB\src\usb_hcd.o
USB_OTG_CoreInitHost                              obj\.\externals\SM32F4-Discovery\USB\src\usb_core.o
                                                  obj\.\externals\SM32F4-Discovery\USB\src\usb_hcd.o
USB_OTG_Core_dev                                  obj\.\src\stm32f4xx_it.o
                                                  obj\.\src\main.o
USB_OTG_DisableGlobalInt                          obj\.\externals\SM32F4-Discovery\USB\src\usb_core.o
                                                  obj\.\externals\SM32F4-Discovery\USB\src\usb_hcd.o
USB_OTG_DriveVbus                                 obj\.\externals\SM32F4-Discovery\USB\src\usb_core.o
USB_OTG_EnableGlobalInt                           obj\.\externals\SM32F4-Discovery\USB\src\usb_core.o
                                                  obj\.\externals\SM32F4-Discovery\USB\src\usb_hcd.o
USB_OTG_EnableHostInt                             obj\.\externals\SM32F4-Discovery\USB\src\usb_core.o
USB_OTG_FlushRxFifo                               obj\.\externals\SM32F4-Discovery\USB\src\usb_core.o
USB_OTG_FlushTxFifo                               obj\.\externals\SM32F4-Discovery\USB\src\usb_core.o
USB_OTG_GetMode                                   obj\.\externals\SM32F4-Discovery\USB\src\usb_core.o
USB_OTG_HC_DoPing                                 obj\.\externals\SM32F4-Discovery\USB\src\usb_core.o
                                                  obj\.\externals\SM32F4-Discovery\USB\src\usb_hcd_int.o
USB_OTG_HC_Halt                                   obj\.\externals\SM32F4-Discovery\USB\src\usb_core.o
                                                  obj\.\externals\SM32F4-Discovery\USB\src\usbh_hid_core.o
                                                  obj\.\externals\SM32F4-Discovery\USB\src\usb_hcd_int.o
USB_OTG_HC_Init                                   obj\.\externals\SM32F4-Discovery\USB\src\usb_core.o
                                                  obj\.\externals\SM32F4-Discovery\USB\src\usbh_hcs.o
                                                  obj\.\externals\SM32F4-Discovery\USB\src\usb_hcd.o
USB_OTG_HC_StartXfer                              obj\.\externals\SM32F4-Discovery\USB\src\usb_core.o
                                                  obj\.\externals\SM32F4-Discovery\USB\src\usb_hcd.o
USB_OTG_InitFSLSPClkSel                           obj\.\externals\SM32F4-Discovery\USB\src\usb_core.o
                                                  obj\.\externals\SM32F4-Discovery\USB\src\usb_hcd_int.o
USB_OTG_IsDeviceMode                              obj\.\externals\SM32F4-Discovery\USB\src\usb_core.o
USB_OTG_IsEvenFrame                               obj\.\externals\SM32F4-Discovery\USB\src\usb_core.o
                                                  obj\.\externals\SM32F4-Discovery\USB\src\usbh_hid_core.o
USB_OTG_IsHostMode                                obj\.\externals\SM32F4-Discovery\USB\src\usb_core.o
                                                  obj\.\externals\SM32F4-Discovery\USB\src\usb_hcd_int.o
USB_OTG_ReadCoreItr                               obj\.\externals\SM32F4-Discovery\USB\src\usb_core.o
                                                  obj\.\externals\SM32F4-Discovery\USB\src\usb_hcd_int.o
USB_OTG_ReadHPRT0                                 obj\.\externals\SM32F4-Discovery\USB\src\usb_core.o
USB_OTG_ReadHostAllChannels_intr                  obj\.\externals\SM32F4-Discovery\USB\src\usb_core.o
                                                  obj\.\externals\SM32F4-Discovery\USB\src\usb_hcd_int.o
USB_OTG_ReadOtgItr                                obj\.\externals\SM32F4-Discovery\USB\src\usb_core.o
USB_OTG_ReadPacket                                obj\.\externals\SM32F4-Discovery\USB\src\usb_core.o
                                                  obj\.\externals\SM32F4-Discovery\USB\src\usb_hcd_int.o
USB_OTG_ResetPort                                 obj\.\externals\SM32F4-Discovery\USB\src\usb_core.o
                                                  obj\.\externals\SM32F4-Discovery\USB\src\usb_hcd_int.o
                                                  obj\.\externals\SM32F4-Discovery\USB\src\usb_hcd.o
USB_OTG_SelectCore                                obj\.\externals\SM32F4-Discovery\USB\src\usb_core.o
                                                  obj\.\externals\SM32F4-Discovery\USB\src\usb_hcd.o
USB_OTG_SetCurrentMode                            obj\.\externals\SM32F4-Discovery\USB\src\usb_core.o
                                                  obj\.\externals\SM32F4-Discovery\USB\src\usb_hcd.o
USB_OTG_StopHost                                  obj\.\externals\SM32F4-Discovery\USB\src\usb_core.o
USB_OTG_WritePacket                               obj\.\externals\SM32F4-Discovery\USB\src\usb_core.o
                                                  obj\.\externals\SM32F4-Discovery\USB\src\usb_hcd_int.o
USB_Out                                           obj\.\src\PSK_Det.o
                                                  obj\.\src\main.o
                                                  obj\.\src\DSP_Processing.o
                                                  obj\.\src\DMA_IRQ_Handler.o
USB_debugEvent                                    obj\.\src\usbh_usr.o
USR_Callbacks                                     obj\.\src\usbh_usr.o
                                                  obj\.\src\main.o
USR_KEYBRD_Init                                   obj\.\src\usbh_usr.o
                                                  obj\.\externals\SM32F4-Discovery\USB\src\usbh_hid_keybd.o
USR_KEYBRD_ProcessData                            obj\.\src\usbh_usr.o
                                                  obj\.\externals\SM32F4-Discovery\USB\src\usbh_hid_keybd.o
Unpack_Si570_registers                            obj\.\src\Si570.o
Update_PSK                                        obj\.\src\PSKMod.o
                                                  obj\.\src\DMA_IRQ_Handler.o
UsageFault_Handler                                obj\.\src\stm32f4xx_it.o
                                                  obj\.\startup\startup_stm32f4xx.o
User_Button_Config                                obj\.\src\User_Button.o
                                                  obj\.\src\main.o
VARICODE_TABLE                                    obj\.\src\PSK_Det.o
                                                  obj\.\src\PSKMod.o
Vector_Table                                      obj\.\startup\startup_stm32f4xx.o
WWDG_IRQHandler                                   obj\.\startup\startup_stm32f4xx.o
Write_Int_EEProm                                  obj\.\src\eeprom.o
                                                  obj\.\src\Encoder_2.o
Write_Long_EEProm                                 obj\.\src\eeprom.o
                                                  obj\.\src\Encoder_1.o
Write_Si570_registers                             obj\.\src\Si570.o
X_Point                                           obj\.\src\User_Button.o
                                                  obj\.\src\touch_pad.o
                                                  obj\.\src\TFT_Display.o
                                                  obj\.\src\main.o
XmitBuffer                                        obj\.\src\PSKMod.o
Xmit_CW                                           obj\.\src\DMA_IRQ_Handler.o
Xmit_CW_Sequence                                  obj\.\src\ChangeOver.o
                                                  obj\.\src\touch_pad.o
Xmit_PSK                                          obj\.\src\DMA_IRQ_Handler.o
Xmit_PSK_Sequence                                 obj\.\src\ChangeOver.o
                                                  obj\.\src\touch_pad.o
Xmit_SSB                                          obj\.\src\DMA_IRQ_Handler.o
Xmit_SSB_Sequence                                 obj\.\src\ChangeOver.o
                                                  obj\.\src\touch_pad.o
Y_Point                                           obj\.\src\User_Button.o
                                                  obj\.\src\touch_pad.o
                                                  obj\.\src\TFT_Display.o
                                                  obj\.\src\main.o
__adddf3                                          c:/program files/gnu tools arm embedded/4.6 2012q2/bin/../lib/gcc/arm-none-eabi/4.6.2/armv7e-m/fpu\libgcc.a(_arm_addsubdf3.o)
__aeabi_cdcmpeq                                   c:/program files/gnu tools arm embedded/4.6 2012q2/bin/../lib/gcc/arm-none-eabi/4.6.2/armv7e-m/fpu\libgcc.a(_arm_cmpdf2.o)
__aeabi_cdcmple                                   c:/program files/gnu tools arm embedded/4.6 2012q2/bin/../lib/gcc/arm-none-eabi/4.6.2/armv7e-m/fpu\libgcc.a(_arm_cmpdf2.o)
__aeabi_cdrcmple                                  c:/program files/gnu tools arm embedded/4.6 2012q2/bin/../lib/gcc/arm-none-eabi/4.6.2/armv7e-m/fpu\libgcc.a(_arm_cmpdf2.o)
__aeabi_d2f                                       c:/program files/gnu tools arm embedded/4.6 2012q2/bin/../lib/gcc/arm-none-eabi/4.6.2/armv7e-m/fpu\libgcc.a(_arm_truncdfsf2.o)
                                                  obj\.\src\TFT_Display.o
__aeabi_d2iz                                      c:/program files/gnu tools arm embedded/4.6 2012q2/bin/../lib/gcc/arm-none-eabi/4.6.2/armv7e-m/fpu\libgcc.a(_arm_fixdfsi.o)
                                                  obj\.\src\touch_pad.o
                                                  obj\.\src\Si570.o
                                                  obj\.\src\PSK_Det.o
                                                  obj\.\src\DMA_IRQ_Handler.o
__aeabi_d2uiz                                     c:/program files/gnu tools arm embedded/4.6 2012q2/bin/../lib/gcc/arm-none-eabi/4.6.2/armv7e-m/fpu\libgcc.a(_arm_fixunsdfsi.o)
                                                  obj\.\src\Si570.o
                                                  obj\.\src\main.o
                                                  obj\.\src\Encoder_1.o
__aeabi_dadd                                      c:/program files/gnu tools arm embedded/4.6 2012q2/bin/../lib/gcc/arm-none-eabi/4.6.2/armv7e-m/fpu\libgcc.a(_arm_addsubdf3.o)
                                                  c:/program files/gnu tools arm embedded/4.6 2012q2/bin/../lib/gcc/arm-none-eabi/4.6.2/../../../../arm-none-eabi/lib/armv7e-m/fpu\libm.a(lib_a-s_atan.o)
                                                  c:/program files/gnu tools arm embedded/4.6 2012q2/bin/../lib/gcc/arm-none-eabi/4.6.2/../../../../arm-none-eabi/lib/armv7e-m/fpu\libm.a(lib_a-e_sqrt.o)
                                                  c:/program files/gnu tools arm embedded/4.6 2012q2/bin/../lib/gcc/arm-none-eabi/4.6.2/../../../../arm-none-eabi/lib/armv7e-m/fpu\libm.a(lib_a-e_log.o)
                                                  c:/program files/gnu tools arm embedded/4.6 2012q2/bin/../lib/gcc/arm-none-eabi/4.6.2/../../../../arm-none-eabi/lib/armv7e-m/fpu\libm.a(lib_a-e_atan2.o)
                                                  obj\.\src\Si570.o
                                                  obj\.\src\PSK_Det.o
__aeabi_dcmpeq                                    c:/program files/gnu tools arm embedded/4.6 2012q2/bin/../lib/gcc/arm-none-eabi/4.6.2/armv7e-m/fpu\libgcc.a(_arm_cmpdf2.o)
                                                  c:/program files/gnu tools arm embedded/4.6 2012q2/bin/../lib/gcc/arm-none-eabi/4.6.2/../../../../arm-none-eabi/lib/armv7e-m/fpu\libm.a(lib_a-e_log.o)
                                                  c:/program files/gnu tools arm embedded/4.6 2012q2/bin/../lib/gcc/arm-none-eabi/4.6.2/../../../../arm-none-eabi/lib/armv7e-m/fpu\libm.a(lib_a-w_log.o)
                                                  c:/program files/gnu tools arm embedded/4.6 2012q2/bin/../lib/gcc/arm-none-eabi/4.6.2/../../../../arm-none-eabi/lib/armv7e-m/fpu\libm.a(lib_a-w_fmod.o)
                                                  obj\.\src\Si570.o
                                                  obj\.\src\Encoder_1.o
__aeabi_dcmpge                                    c:/program files/gnu tools arm embedded/4.6 2012q2/bin/../lib/gcc/arm-none-eabi/4.6.2/armv7e-m/fpu\libgcc.a(_arm_cmpdf2.o)
                                                  obj\.\src\TFT_Display.o
                                                  obj\.\src\PSK_Det.o
__aeabi_dcmpgt                                    c:/program files/gnu tools arm embedded/4.6 2012q2/bin/../lib/gcc/arm-none-eabi/4.6.2/armv7e-m/fpu\libgcc.a(_arm_cmpdf2.o)
                                                  c:/program files/gnu tools arm embedded/4.6 2012q2/bin/../lib/gcc/arm-none-eabi/4.6.2/../../../../arm-none-eabi/lib/armv7e-m/fpu\libm.a(lib_a-s_atan.o)
                                                  c:/program files/gnu tools arm embedded/4.6 2012q2/bin/../lib/gcc/arm-none-eabi/4.6.2/../../../../arm-none-eabi/lib/armv7e-m/fpu\libm.a(lib_a-w_log.o)
                                                  obj\.\src\PSK_Det.o
__aeabi_dcmple                                    c:/program files/gnu tools arm embedded/4.6 2012q2/bin/../lib/gcc/arm-none-eabi/4.6.2/armv7e-m/fpu\libgcc.a(_arm_cmpdf2.o)
                                                  obj\.\src\Si570.o
                                                  obj\.\src\PSK_Det.o
__aeabi_dcmplt                                    c:/program files/gnu tools arm embedded/4.6 2012q2/bin/../lib/gcc/arm-none-eabi/4.6.2/armv7e-m/fpu\libgcc.a(_arm_cmpdf2.o)
                                                  c:/program files/gnu tools arm embedded/4.6 2012q2/bin/../lib/gcc/arm-none-eabi/4.6.2/../../../../arm-none-eabi/lib/armv7e-m/fpu\libm.a(lib_a-w_sqrt.o)
                                                  obj\.\src\TFT_Display.o
                                                  obj\.\src\Si570.o
                                                  obj\.\src\PSK_Det.o
__aeabi_ddiv                                      c:/program files/gnu tools arm embedded/4.6 2012q2/bin/../lib/gcc/arm-none-eabi/4.6.2/armv7e-m/fpu\libgcc.a(_arm_muldivdf3.o)
                                                  c:/program files/gnu tools arm embedded/4.6 2012q2/bin/../lib/gcc/arm-none-eabi/4.6.2/../../../../arm-none-eabi/lib/armv7e-m/fpu\libm.a(lib_a-s_atan.o)
                                                  c:/program files/gnu tools arm embedded/4.6 2012q2/bin/../lib/gcc/arm-none-eabi/4.6.2/../../../../arm-none-eabi/lib/armv7e-m/fpu\libm.a(lib_a-e_sqrt.o)
                                                  c:/program files/gnu tools arm embedded/4.6 2012q2/bin/../lib/gcc/arm-none-eabi/4.6.2/../../../../arm-none-eabi/lib/armv7e-m/fpu\libm.a(lib_a-e_log.o)
                                                  c:/program files/gnu tools arm embedded/4.6 2012q2/bin/../lib/gcc/arm-none-eabi/4.6.2/../../../../arm-none-eabi/lib/armv7e-m/fpu\libm.a(lib_a-e_fmod.o)
                                                  c:/program files/gnu tools arm embedded/4.6 2012q2/bin/../lib/gcc/arm-none-eabi/4.6.2/../../../../arm-none-eabi/lib/armv7e-m/fpu\libm.a(lib_a-e_atan2.o)
                                                  c:/program files/gnu tools arm embedded/4.6 2012q2/bin/../lib/gcc/arm-none-eabi/4.6.2/../../../../arm-none-eabi/lib/armv7e-m/fpu\libm.a(lib_a-w_sqrt.o)
                                                  c:/program files/gnu tools arm embedded/4.6 2012q2/bin/../lib/gcc/arm-none-eabi/4.6.2/../../../../arm-none-eabi/lib/armv7e-m/fpu\libm.a(lib_a-w_fmod.o)
                                                  obj\.\src\touch_pad.o
                                                  obj\.\src\Si570.o
                                                  obj\.\src\PSK_Det.o
                                                  obj\.\src\DMA_IRQ_Handler.o
__aeabi_dmul                                      c:/program files/gnu tools arm embedded/4.6 2012q2/bin/../lib/gcc/arm-none-eabi/4.6.2/armv7e-m/fpu\libgcc.a(_arm_muldivdf3.o)
                                                  c:/program files/gnu tools arm embedded/4.6 2012q2/bin/../lib/gcc/arm-none-eabi/4.6.2/../../../../arm-none-eabi/lib/armv7e-m/fpu\libm.a(lib_a-s_atan.o)
                                                  c:/program files/gnu tools arm embedded/4.6 2012q2/bin/../lib/gcc/arm-none-eabi/4.6.2/../../../../arm-none-eabi/lib/armv7e-m/fpu\libm.a(lib_a-e_sqrt.o)
                                                  c:/program files/gnu tools arm embedded/4.6 2012q2/bin/../lib/gcc/arm-none-eabi/4.6.2/../../../../arm-none-eabi/lib/armv7e-m/fpu\libm.a(lib_a-e_log.o)
                                                  c:/program files/gnu tools arm embedded/4.6 2012q2/bin/../lib/gcc/arm-none-eabi/4.6.2/../../../../arm-none-eabi/lib/armv7e-m/fpu\libm.a(lib_a-e_fmod.o)
                                                  obj\.\src\touch_pad.o
                                                  obj\.\src\Si570.o
                                                  obj\.\src\PSK_Det.o
                                                  obj\.\src\main.o
                                                  obj\.\src\DMA_IRQ_Handler.o
__aeabi_drsub                                     c:/program files/gnu tools arm embedded/4.6 2012q2/bin/../lib/gcc/arm-none-eabi/4.6.2/armv7e-m/fpu\libgcc.a(_arm_addsubdf3.o)
__aeabi_dsub                                      c:/program files/gnu tools arm embedded/4.6 2012q2/bin/../lib/gcc/arm-none-eabi/4.6.2/armv7e-m/fpu\libgcc.a(_arm_addsubdf3.o)
                                                  c:/program files/gnu tools arm embedded/4.6 2012q2/bin/../lib/gcc/arm-none-eabi/4.6.2/../../../../arm-none-eabi/lib/armv7e-m/fpu\libm.a(lib_a-s_atan.o)
                                                  c:/program files/gnu tools arm embedded/4.6 2012q2/bin/../lib/gcc/arm-none-eabi/4.6.2/../../../../arm-none-eabi/lib/armv7e-m/fpu\libm.a(lib_a-e_sqrt.o)
                                                  c:/program files/gnu tools arm embedded/4.6 2012q2/bin/../lib/gcc/arm-none-eabi/4.6.2/../../../../arm-none-eabi/lib/armv7e-m/fpu\libm.a(lib_a-e_log.o)
                                                  c:/program files/gnu tools arm embedded/4.6 2012q2/bin/../lib/gcc/arm-none-eabi/4.6.2/../../../../arm-none-eabi/lib/armv7e-m/fpu\libm.a(lib_a-e_atan2.o)
                                                  obj\.\src\TFT_Display.o
                                                  obj\.\src\Si570.o
                                                  obj\.\src\PSK_Det.o
__aeabi_f2d                                       c:/program files/gnu tools arm embedded/4.6 2012q2/bin/../lib/gcc/arm-none-eabi/4.6.2/armv7e-m/fpu\libgcc.a(_arm_addsubdf3.o)
                                                  obj\.\src\touch_pad.o
                                                  obj\.\src\Si570.o
                                                  obj\.\src\PSK_Det.o
                                                  obj\.\src\main.o
                                                  obj\.\src\DMA_IRQ_Handler.o
__aeabi_i2d                                       c:/program files/gnu tools arm embedded/4.6 2012q2/bin/../lib/gcc/arm-none-eabi/4.6.2/armv7e-m/fpu\libgcc.a(_arm_addsubdf3.o)
                                                  c:/program files/gnu tools arm embedded/4.6 2012q2/bin/../lib/gcc/arm-none-eabi/4.6.2/../../../../arm-none-eabi/lib/armv7e-m/fpu\libm.a(lib_a-e_log.o)
                                                  obj\.\src\TFT_Display.o
                                                  obj\.\src\Si570.o
                                                  obj\.\src\PSK_Det.o
__aeabi_l2d                                       c:/program files/gnu tools arm embedded/4.6 2012q2/bin/../lib/gcc/arm-none-eabi/4.6.2/armv7e-m/fpu\libgcc.a(_arm_addsubdf3.o)
__aeabi_ui2d                                      c:/program files/gnu tools arm embedded/4.6 2012q2/bin/../lib/gcc/arm-none-eabi/4.6.2/armv7e-m/fpu\libgcc.a(_arm_addsubdf3.o)
                                                  obj\.\src\TFT_Display.o
                                                  obj\.\src\Si570.o
                                                  obj\.\src\Encoder_1.o
__aeabi_ul2d                                      c:/program files/gnu tools arm embedded/4.6 2012q2/bin/../lib/gcc/arm-none-eabi/4.6.2/armv7e-m/fpu\libgcc.a(_arm_addsubdf3.o)
__cmpdf2                                          c:/program files/gnu tools arm embedded/4.6 2012q2/bin/../lib/gcc/arm-none-eabi/4.6.2/armv7e-m/fpu\libgcc.a(_arm_cmpdf2.o)
__divdf3                                          c:/program files/gnu tools arm embedded/4.6 2012q2/bin/../lib/gcc/arm-none-eabi/4.6.2/armv7e-m/fpu\libgcc.a(_arm_muldivdf3.o)
__eqdf2                                           c:/program files/gnu tools arm embedded/4.6 2012q2/bin/../lib/gcc/arm-none-eabi/4.6.2/armv7e-m/fpu\libgcc.a(_arm_cmpdf2.o)
__errno                                           c:/program files/gnu tools arm embedded/4.6 2012q2/bin/../lib/gcc/arm-none-eabi/4.6.2/../../../../arm-none-eabi/lib/armv7e-m/fpu\libc.a(lib_a-errno.o)
                                                  c:/program files/gnu tools arm embedded/4.6 2012q2/bin/../lib/gcc/arm-none-eabi/4.6.2/../../../../arm-none-eabi/lib/armv7e-m/fpu\libm.a(lib_a-w_sqrt.o)
                                                  c:/program files/gnu tools arm embedded/4.6 2012q2/bin/../lib/gcc/arm-none-eabi/4.6.2/../../../../arm-none-eabi/lib/armv7e-m/fpu\libm.a(lib_a-w_log.o)
                                                  c:/program files/gnu tools arm embedded/4.6 2012q2/bin/../lib/gcc/arm-none-eabi/4.6.2/../../../../arm-none-eabi/lib/armv7e-m/fpu\libm.a(lib_a-w_fmod.o)
__extendsfdf2                                     c:/program files/gnu tools arm embedded/4.6 2012q2/bin/../lib/gcc/arm-none-eabi/4.6.2/armv7e-m/fpu\libgcc.a(_arm_addsubdf3.o)
__fdlib_version                                   c:/program files/gnu tools arm embedded/4.6 2012q2/bin/../lib/gcc/arm-none-eabi/4.6.2/../../../../arm-none-eabi/lib/armv7e-m/fpu\libm.a(lib_a-s_lib_ver.o)
                                                  c:/program files/gnu tools arm embedded/4.6 2012q2/bin/../lib/gcc/arm-none-eabi/4.6.2/../../../../arm-none-eabi/lib/armv7e-m/fpu\libm.a(lib_a-w_sqrt.o)
                                                  c:/program files/gnu tools arm embedded/4.6 2012q2/bin/../lib/gcc/arm-none-eabi/4.6.2/../../../../arm-none-eabi/lib/armv7e-m/fpu\libm.a(lib_a-w_log.o)
                                                  c:/program files/gnu tools arm embedded/4.6 2012q2/bin/../lib/gcc/arm-none-eabi/4.6.2/../../../../arm-none-eabi/lib/armv7e-m/fpu\libm.a(lib_a-w_fmod.o)
__fixdfsi                                         c:/program files/gnu tools arm embedded/4.6 2012q2/bin/../lib/gcc/arm-none-eabi/4.6.2/armv7e-m/fpu\libgcc.a(_arm_fixdfsi.o)
__fixunsdfsi                                      c:/program files/gnu tools arm embedded/4.6 2012q2/bin/../lib/gcc/arm-none-eabi/4.6.2/armv7e-m/fpu\libgcc.a(_arm_fixunsdfsi.o)
__floatdidf                                       c:/program files/gnu tools arm embedded/4.6 2012q2/bin/../lib/gcc/arm-none-eabi/4.6.2/armv7e-m/fpu\libgcc.a(_arm_addsubdf3.o)
__floatsidf                                       c:/program files/gnu tools arm embedded/4.6 2012q2/bin/../lib/gcc/arm-none-eabi/4.6.2/armv7e-m/fpu\libgcc.a(_arm_addsubdf3.o)
__floatundidf                                     c:/program files/gnu tools arm embedded/4.6 2012q2/bin/../lib/gcc/arm-none-eabi/4.6.2/armv7e-m/fpu\libgcc.a(_arm_addsubdf3.o)
__floatunsidf                                     c:/program files/gnu tools arm embedded/4.6 2012q2/bin/../lib/gcc/arm-none-eabi/4.6.2/armv7e-m/fpu\libgcc.a(_arm_addsubdf3.o)
__fpclassifyd                                     c:/program files/gnu tools arm embedded/4.6 2012q2/bin/../lib/gcc/arm-none-eabi/4.6.2/../../../../arm-none-eabi/lib/armv7e-m/fpu\libm.a(lib_a-s_fpclassify.o)
                                                  c:/program files/gnu tools arm embedded/4.6 2012q2/bin/../lib/gcc/arm-none-eabi/4.6.2/../../../../arm-none-eabi/lib/armv7e-m/fpu\libm.a(lib_a-w_sqrt.o)
                                                  c:/program files/gnu tools arm embedded/4.6 2012q2/bin/../lib/gcc/arm-none-eabi/4.6.2/../../../../arm-none-eabi/lib/armv7e-m/fpu\libm.a(lib_a-w_log.o)
                                                  c:/program files/gnu tools arm embedded/4.6 2012q2/bin/../lib/gcc/arm-none-eabi/4.6.2/../../../../arm-none-eabi/lib/armv7e-m/fpu\libm.a(lib_a-w_fmod.o)
__gedf2                                           c:/program files/gnu tools arm embedded/4.6 2012q2/bin/../lib/gcc/arm-none-eabi/4.6.2/armv7e-m/fpu\libgcc.a(_arm_cmpdf2.o)
__gtdf2                                           c:/program files/gnu tools arm embedded/4.6 2012q2/bin/../lib/gcc/arm-none-eabi/4.6.2/armv7e-m/fpu\libgcc.a(_arm_cmpdf2.o)
__ieee754_atan2                                   c:/program files/gnu tools arm embedded/4.6 2012q2/bin/../lib/gcc/arm-none-eabi/4.6.2/../../../../arm-none-eabi/lib/armv7e-m/fpu\libm.a(lib_a-e_atan2.o)
                                                  c:/program files/gnu tools arm embedded/4.6 2012q2/bin/../lib/gcc/arm-none-eabi/4.6.2/../../../../arm-none-eabi/lib/armv7e-m/fpu\libm.a(lib_a-w_atan2.o)
__ieee754_fmod                                    c:/program files/gnu tools arm embedded/4.6 2012q2/bin/../lib/gcc/arm-none-eabi/4.6.2/../../../../arm-none-eabi/lib/armv7e-m/fpu\libm.a(lib_a-e_fmod.o)
                                                  c:/program files/gnu tools arm embedded/4.6 2012q2/bin/../lib/gcc/arm-none-eabi/4.6.2/../../../../arm-none-eabi/lib/armv7e-m/fpu\libm.a(lib_a-w_fmod.o)
__ieee754_log                                     c:/program files/gnu tools arm embedded/4.6 2012q2/bin/../lib/gcc/arm-none-eabi/4.6.2/../../../../arm-none-eabi/lib/armv7e-m/fpu\libm.a(lib_a-e_log.o)
                                                  c:/program files/gnu tools arm embedded/4.6 2012q2/bin/../lib/gcc/arm-none-eabi/4.6.2/../../../../arm-none-eabi/lib/armv7e-m/fpu\libm.a(lib_a-w_log.o)
__ieee754_sqrt                                    c:/program files/gnu tools arm embedded/4.6 2012q2/bin/../lib/gcc/arm-none-eabi/4.6.2/../../../../arm-none-eabi/lib/armv7e-m/fpu\libm.a(lib_a-e_sqrt.o)
                                                  c:/program files/gnu tools arm embedded/4.6 2012q2/bin/../lib/gcc/arm-none-eabi/4.6.2/../../../../arm-none-eabi/lib/armv7e-m/fpu\libm.a(lib_a-w_sqrt.o)
__ledf2                                           c:/program files/gnu tools arm embedded/4.6 2012q2/bin/../lib/gcc/arm-none-eabi/4.6.2/armv7e-m/fpu\libgcc.a(_arm_cmpdf2.o)
__ltdf2                                           c:/program files/gnu tools arm embedded/4.6 2012q2/bin/../lib/gcc/arm-none-eabi/4.6.2/armv7e-m/fpu\libgcc.a(_arm_cmpdf2.o)
__muldf3                                          c:/program files/gnu tools arm embedded/4.6 2012q2/bin/../lib/gcc/arm-none-eabi/4.6.2/armv7e-m/fpu\libgcc.a(_arm_muldivdf3.o)
__nedf2                                           c:/program files/gnu tools arm embedded/4.6 2012q2/bin/../lib/gcc/arm-none-eabi/4.6.2/armv7e-m/fpu\libgcc.a(_arm_cmpdf2.o)
__subdf3                                          c:/program files/gnu tools arm embedded/4.6 2012q2/bin/../lib/gcc/arm-none-eabi/4.6.2/armv7e-m/fpu\libgcc.a(_arm_addsubdf3.o)
__truncdfsf2                                      c:/program files/gnu tools arm embedded/4.6 2012q2/bin/../lib/gcc/arm-none-eabi/4.6.2/armv7e-m/fpu\libgcc.a(_arm_truncdfsf2.o)
_ebss                                             obj\.\startup\startup_stm32f4xx.o
_edata                                            obj\.\startup\startup_stm32f4xx.o
_global_impure_ptr                                c:/program files/gnu tools arm embedded/4.6 2012q2/bin/../lib/gcc/arm-none-eabi/4.6.2/../../../../arm-none-eabi/lib/armv7e-m/fpu\libc.a(lib_a-impure.o)
_impure_ptr                                       c:/program files/gnu tools arm embedded/4.6 2012q2/bin/../lib/gcc/arm-none-eabi/4.6.2/../../../../arm-none-eabi/lib/armv7e-m/fpu\libc.a(lib_a-impure.o)
                                                  c:/program files/gnu tools arm embedded/4.6 2012q2/bin/../lib/gcc/arm-none-eabi/4.6.2/../../../../arm-none-eabi/lib/armv7e-m/fpu\libc.a(lib_a-errno.o)
_sbss                                             obj\.\startup\startup_stm32f4xx.o
_sdata                                            obj\.\startup\startup_stm32f4xx.o
_sidata                                           obj\.\startup\startup_stm32f4xx.o
armBitRevTable                                    .\externals\libs\libstm32f4xx_math.a(arm_common_tables.o)
                                                  .\externals\libs\libstm32f4xx_math.a(arm_cfft_radix4_init_q15.o)
armRecipTableQ15                                  .\externals\libs\libstm32f4xx_math.a(arm_common_tables.o)
armRecipTableQ31                                  .\externals\libs\libstm32f4xx_math.a(arm_common_tables.o)
arm_bitreversal_q15                               .\externals\libs\libstm32f4xx_math.a(arm_cfft_radix4_q15.o)
arm_cfft_radix4_init_q15                          .\externals\libs\libstm32f4xx_math.a(arm_cfft_radix4_init_q15.o)
                                                  obj\.\src\DSP_Processing.o
arm_cfft_radix4_q15                               .\externals\libs\libstm32f4xx_math.a(arm_cfft_radix4_q15.o)
                                                  obj\.\src\DSP_Processing.o
arm_cmplx_mag_squared_q15                         .\externals\libs\libstm32f4xx_math.a(arm_cmplx_mag_squared_q15.o)
                                                  obj\.\src\DSP_Processing.o
arm_fir_decimate_q15                              .\externals\libs\libstm32f4xx_math.a(arm_fir_decimate_q15.o)
                                                  obj\.\src\PSK_Det.o
arm_fir_q15                                       .\externals\libs\libstm32f4xx_math.a(arm_fir_q15.o)
                                                  obj\.\src\PSK_Det.o
                                                  obj\.\src\DSP_Processing.o
arm_radix4_butterfly_inverse_q15                  .\externals\libs\libstm32f4xx_math.a(arm_cfft_radix4_q15.o)
arm_radix4_butterfly_q15                          .\externals\libs\libstm32f4xx_math.a(arm_cfft_radix4_q15.o)
arm_shift_q15                                     .\externals\libs\libstm32f4xx_math.a(arm_shift_q15.o)
                                                  obj\.\src\DSP_Processing.o
asciisize                                         obj\.\src\TFT_Display.o
atan                                              c:/program files/gnu tools arm embedded/4.6 2012q2/bin/../lib/gcc/arm-none-eabi/4.6.2/../../../../arm-none-eabi/lib/armv7e-m/fpu\libm.a(lib_a-s_atan.o)
                                                  c:/program files/gnu tools arm embedded/4.6 2012q2/bin/../lib/gcc/arm-none-eabi/4.6.2/../../../../arm-none-eabi/lib/armv7e-m/fpu\libm.a(lib_a-e_atan2.o)
atan2                                             c:/program files/gnu tools arm embedded/4.6 2012q2/bin/../lib/gcc/arm-none-eabi/4.6.2/../../../../arm-none-eabi/lib/armv7e-m/fpu\libm.a(lib_a-w_atan2.o)
                                                  obj\.\src\PSK_Det.o
char_count                                        obj\.\src\PSK_Det.o
check_SS1                                         obj\.\src\Encoder_1.o
                                                  obj\.\src\main.o
                                                  obj\.\src\Encoder_2.o
check_SS2                                         obj\.\src\Encoder_2.o
                                                  obj\.\src\main.o
coeff_fir_I                                       obj\.\src\FIR_Coefficients.o
                                                  obj\.\src\DSP_Processing.o
coeff_fir_Q                                       obj\.\src\FIR_Coefficients.o
                                                  obj\.\src\DSP_Processing.o
count                                             obj\.\src\PSK_Det.o
displaySplashScreen                               obj\.\src\main.o
fabs                                              c:/program files/gnu tools arm embedded/4.6 2012q2/bin/../lib/gcc/arm-none-eabi/4.6.2/../../../../arm-none-eabi/lib/armv7e-m/fpu\libm.a(lib_a-s_fabs.o)
                                                  c:/program files/gnu tools arm embedded/4.6 2012q2/bin/../lib/gcc/arm-none-eabi/4.6.2/../../../../arm-none-eabi/lib/armv7e-m/fpu\libm.a(lib_a-s_atan.o)
                                                  c:/program files/gnu tools arm embedded/4.6 2012q2/bin/../lib/gcc/arm-none-eabi/4.6.2/../../../../arm-none-eabi/lib/armv7e-m/fpu\libm.a(lib_a-e_atan2.o)
fmod                                              c:/program files/gnu tools arm embedded/4.6 2012q2/bin/../lib/gcc/arm-none-eabi/4.6.2/../../../../arm-none-eabi/lib/armv7e-m/fpu\libm.a(lib_a-w_fmod.o)
                                                  obj\.\src\PSK_Det.o
i                                                 obj\.\src\uart.o
                                                  obj\.\src\DMA_IRQ_Handler.o
init_encoder1                                     obj\.\src\Encoder_1.o
                                                  obj\.\src\main.o
init_encoder2                                     obj\.\src\Encoder_2.o
                                                  obj\.\src\main.o
initializeHardware                                obj\.\src\main.o
key                                               obj\.\src\DMA_IRQ_Handler.o
kybd_addCharacter                                 obj\.\src\Keyboard_Input.o
                                                  obj\.\src\usbh_usr.o
kybd_dispFunctionKey                              obj\.\src\Keyboard_Input.o
                                                  obj\.\src\usbh_usr.o
kybd_string                                       obj\.\src\Keyboard_Input.o
log                                               c:/program files/gnu tools arm embedded/4.6 2012q2/bin/../lib/gcc/arm-none-eabi/4.6.2/../../../../arm-none-eabi/lib/armv7e-m/fpu\libm.a(lib_a-w_log.o)
                                                  obj\.\src\main.o
m_2PI                                             obj\.\src\PSKMod.o
                                                  obj\.\src\PSK_Det.o
                                                  obj\.\src\Keyboard_Input.o
                                                  obj\.\src\DMA_IRQ_Handler.o
                                                  obj\.\src\ChangeOver.o
m_AFCCaptureOn                                    obj\.\src\User_Button.o
                                                  obj\.\src\touch_pad.o
                                                  obj\.\src\TFT_Display.o
                                                  obj\.\src\Sine_table.o
                                                  obj\.\src\PSKMod.o
                                                  obj\.\src\PSK_Det.o
                                                  obj\.\src\main.o
                                                  obj\.\src\DSP_Processing.o
                                                  obj\.\src\DMA_IRQ_Handler.o
m_AFCTimer                                        obj\.\src\User_Button.o
                                                  obj\.\src\touch_pad.o
                                                  obj\.\src\TFT_Display.o
                                                  obj\.\src\Sine_table.o
                                                  obj\.\src\PSKMod.o
                                                  obj\.\src\PSK_Det.o
                                                  obj\.\src\main.o
                                                  obj\.\src\DSP_Processing.o
                                                  obj\.\src\DMA_IRQ_Handler.o
m_AFClimit                                        obj\.\src\User_Button.o
                                                  obj\.\src\touch_pad.o
                                                  obj\.\src\TFT_Display.o
                                                  obj\.\src\Sine_table.o
                                                  obj\.\src\PSKMod.o
                                                  obj\.\src\PSK_Det.o
                                                  obj\.\src\main.o
                                                  obj\.\src\DSP_Processing.o
                                                  obj\.\src\DMA_IRQ_Handler.o
m_AFCmax                                          obj\.\src\User_Button.o
                                                  obj\.\src\touch_pad.o
                                                  obj\.\src\TFT_Display.o
                                                  obj\.\src\Sine_table.o
                                                  obj\.\src\PSKMod.o
                                                  obj\.\src\PSK_Det.o
                                                  obj\.\src\main.o
                                                  obj\.\src\DSP_Processing.o
                                                  obj\.\src\DMA_IRQ_Handler.o
m_AFCmin                                          obj\.\src\User_Button.o
                                                  obj\.\src\touch_pad.o
                                                  obj\.\src\TFT_Display.o
                                                  obj\.\src\Sine_table.o
                                                  obj\.\src\PSKMod.o
                                                  obj\.\src\PSK_Det.o
                                                  obj\.\src\main.o
                                                  obj\.\src\DSP_Processing.o
                                                  obj\.\src\DMA_IRQ_Handler.o
m_AFCmode                                         obj\.\src\User_Button.o
                                                  obj\.\src\touch_pad.o
                                                  obj\.\src\TFT_Display.o
                                                  obj\.\src\Sine_table.o
                                                  obj\.\src\PSKMod.o
                                                  obj\.\src\PSK_Det.o
                                                  obj\.\src\main.o
                                                  obj\.\src\DSP_Processing.o
                                                  obj\.\src\DMA_IRQ_Handler.o
m_AGCave                                          obj\.\src\User_Button.o
                                                  obj\.\src\touch_pad.o
                                                  obj\.\src\TFT_Display.o
                                                  obj\.\src\Sine_table.o
                                                  obj\.\src\PSKMod.o
                                                  obj\.\src\PSK_Det.o
                                                  obj\.\src\main.o
                                                  obj\.\src\DSP_Processing.o
                                                  obj\.\src\DMA_IRQ_Handler.o
m_AddEndingZero                                   obj\.\src\PSKMod.o
                                                  obj\.\src\PSK_Det.o
                                                  obj\.\src\Keyboard_Input.o
                                                  obj\.\src\DMA_IRQ_Handler.o
                                                  obj\.\src\ChangeOver.o
m_BitAcc                                          obj\.\src\User_Button.o
                                                  obj\.\src\touch_pad.o
                                                  obj\.\src\TFT_Display.o
                                                  obj\.\src\Sine_table.o
                                                  obj\.\src\PSKMod.o
                                                  obj\.\src\PSK_Det.o
                                                  obj\.\src\main.o
                                                  obj\.\src\DSP_Processing.o
                                                  obj\.\src\DMA_IRQ_Handler.o
m_BitPhaseInc                                     obj\.\src\User_Button.o
                                                  obj\.\src\touch_pad.o
                                                  obj\.\src\TFT_Display.o
                                                  obj\.\src\Sine_table.o
                                                  obj\.\src\PSKMod.o
                                                  obj\.\src\PSK_Det.o
                                                  obj\.\src\main.o
                                                  obj\.\src\DSP_Processing.o
                                                  obj\.\src\DMA_IRQ_Handler.o
m_BitPhasePos                                     obj\.\src\User_Button.o
                                                  obj\.\src\touch_pad.o
                                                  obj\.\src\TFT_Display.o
                                                  obj\.\src\Sine_table.o
                                                  obj\.\src\PSKMod.o
                                                  obj\.\src\PSK_Det.o
                                                  obj\.\src\main.o
                                                  obj\.\src\DSP_Processing.o
                                                  obj\.\src\DMA_IRQ_Handler.o
m_BitPos                                          obj\.\src\User_Button.o
                                                  obj\.\src\touch_pad.o
                                                  obj\.\src\TFT_Display.o
                                                  obj\.\src\Sine_table.o
                                                  obj\.\src\PSKMod.o
                                                  obj\.\src\PSK_Det.o
                                                  obj\.\src\main.o
                                                  obj\.\src\DSP_Processing.o
                                                  obj\.\src\DMA_IRQ_Handler.o
m_BitSignal                                       obj\.\src\User_Button.o
                                                  obj\.\src\touch_pad.o
                                                  obj\.\src\TFT_Display.o
                                                  obj\.\src\Sine_table.o
                                                  obj\.\src\PSKMod.o
                                                  obj\.\src\PSK_Det.o
                                                  obj\.\src\main.o
                                                  obj\.\src\DSP_Processing.o
                                                  obj\.\src\DMA_IRQ_Handler.o
m_ClkErrCounter                                   obj\.\src\User_Button.o
                                                  obj\.\src\touch_pad.o
                                                  obj\.\src\TFT_Display.o
                                                  obj\.\src\Sine_table.o
                                                  obj\.\src\PSKMod.o
                                                  obj\.\src\PSK_Det.o
                                                  obj\.\src\main.o
                                                  obj\.\src\DSP_Processing.o
                                                  obj\.\src\DMA_IRQ_Handler.o
m_ClkErrTimer                                     obj\.\src\User_Button.o
                                                  obj\.\src\touch_pad.o
                                                  obj\.\src\TFT_Display.o
                                                  obj\.\src\Sine_table.o
                                                  obj\.\src\PSKMod.o
                                                  obj\.\src\PSK_Det.o
                                                  obj\.\src\main.o
                                                  obj\.\src\DSP_Processing.o
                                                  obj\.\src\DMA_IRQ_Handler.o
m_ClkError                                        obj\.\src\User_Button.o
                                                  obj\.\src\touch_pad.o
                                                  obj\.\src\TFT_Display.o
                                                  obj\.\src\Sine_table.o
                                                  obj\.\src\PSKMod.o
                                                  obj\.\src\PSK_Det.o
                                                  obj\.\src\main.o
                                                  obj\.\src\DSP_Processing.o
                                                  obj\.\src\DMA_IRQ_Handler.o
m_DevAve                                          obj\.\src\User_Button.o
                                                  obj\.\src\touch_pad.o
                                                  obj\.\src\TFT_Display.o
                                                  obj\.\src\Sine_table.o
                                                  obj\.\src\PSKMod.o
                                                  obj\.\src\PSK_Det.o
                                                  obj\.\src\main.o
                                                  obj\.\src\DSP_Processing.o
                                                  obj\.\src\DMA_IRQ_Handler.o
m_FastAFCMode                                     obj\.\src\User_Button.o
                                                  obj\.\src\touch_pad.o
                                                  obj\.\src\TFT_Display.o
                                                  obj\.\src\Sine_table.o
                                                  obj\.\src\PSKMod.o
                                                  obj\.\src\PSK_Det.o
                                                  obj\.\src\main.o
                                                  obj\.\src\DSP_Processing.o
                                                  obj\.\src\DMA_IRQ_Handler.o
m_FferrAve                                        obj\.\src\User_Button.o
                                                  obj\.\src\touch_pad.o
                                                  obj\.\src\TFT_Display.o
                                                  obj\.\src\Sine_table.o
                                                  obj\.\src\PSKMod.o
                                                  obj\.\src\PSK_Det.o
                                                  obj\.\src\main.o
                                                  obj\.\src\DSP_Processing.o
                                                  obj\.\src\DMA_IRQ_Handler.o
m_FperrAve                                        obj\.\src\User_Button.o
                                                  obj\.\src\touch_pad.o
                                                  obj\.\src\TFT_Display.o
                                                  obj\.\src\Sine_table.o
                                                  obj\.\src\PSKMod.o
                                                  obj\.\src\PSK_Det.o
                                                  obj\.\src\main.o
                                                  obj\.\src\DSP_Processing.o
                                                  obj\.\src\DMA_IRQ_Handler.o
m_FreqError                                       obj\.\src\User_Button.o
                                                  obj\.\src\touch_pad.o
                                                  obj\.\src\TFT_Display.o
                                                  obj\.\src\Sine_table.o
                                                  obj\.\src\PSKMod.o
                                                  obj\.\src\PSK_Det.o
                                                  obj\.\src\main.o
                                                  obj\.\src\DSP_Processing.o
                                                  obj\.\src\DMA_IRQ_Handler.o
m_FreqSignal                                      obj\.\src\User_Button.o
                                                  obj\.\src\touch_pad.o
                                                  obj\.\src\TFT_Display.o
                                                  obj\.\src\Sine_table.o
                                                  obj\.\src\PSKMod.o
                                                  obj\.\src\PSK_Det.o
                                                  obj\.\src\main.o
                                                  obj\.\src\DSP_Processing.o
                                                  obj\.\src\DMA_IRQ_Handler.o
m_I0                                              obj\.\src\User_Button.o
                                                  obj\.\src\touch_pad.o
                                                  obj\.\src\TFT_Display.o
                                                  obj\.\src\Sine_table.o
                                                  obj\.\src\PSKMod.o
                                                  obj\.\src\PSK_Det.o
                                                  obj\.\src\main.o
                                                  obj\.\src\DSP_Processing.o
                                                  obj\.\src\DMA_IRQ_Handler.o
m_I1                                              obj\.\src\User_Button.o
                                                  obj\.\src\touch_pad.o
                                                  obj\.\src\TFT_Display.o
                                                  obj\.\src\Sine_table.o
                                                  obj\.\src\PSKMod.o
                                                  obj\.\src\PSK_Det.o
                                                  obj\.\src\main.o
                                                  obj\.\src\DSP_Processing.o
                                                  obj\.\src\DMA_IRQ_Handler.o
m_IMDValid                                        obj\.\src\User_Button.o
                                                  obj\.\src\touch_pad.o
                                                  obj\.\src\TFT_Display.o
                                                  obj\.\src\Sine_table.o
                                                  obj\.\src\PSKMod.o
                                                  obj\.\src\PSK_Det.o
                                                  obj\.\src\main.o
                                                  obj\.\src\DSP_Processing.o
                                                  obj\.\src\DMA_IRQ_Handler.o
m_IQPhaseArray                                    obj\.\src\User_Button.o
                                                  obj\.\src\touch_pad.o
                                                  obj\.\src\TFT_Display.o
                                                  obj\.\src\Sine_table.o
                                                  obj\.\src\PSKMod.o
                                                  obj\.\src\PSK_Det.o
                                                  obj\.\src\main.o
                                                  obj\.\src\DSP_Processing.o
                                                  obj\.\src\DMA_IRQ_Handler.o
m_IQPhzIndex                                      obj\.\src\User_Button.o
                                                  obj\.\src\touch_pad.o
                                                  obj\.\src\TFT_Display.o
                                                  obj\.\src\Sine_table.o
                                                  obj\.\src\PSKMod.o
                                                  obj\.\src\PSK_Det.o
                                                  obj\.\src\main.o
                                                  obj\.\src\DSP_Processing.o
                                                  obj\.\src\DMA_IRQ_Handler.o
m_LastBitZero                                     obj\.\src\User_Button.o
                                                  obj\.\src\touch_pad.o
                                                  obj\.\src\TFT_Display.o
                                                  obj\.\src\Sine_table.o
                                                  obj\.\src\PSKMod.o
                                                  obj\.\src\PSK_Det.o
                                                  obj\.\src\main.o
                                                  obj\.\src\DSP_Processing.o
                                                  obj\.\src\DMA_IRQ_Handler.o
m_LastPkPos                                       obj\.\src\User_Button.o
                                                  obj\.\src\touch_pad.o
                                                  obj\.\src\TFT_Display.o
                                                  obj\.\src\Sine_table.o
                                                  obj\.\src\PSKMod.o
                                                  obj\.\src\PSK_Det.o
                                                  obj\.\src\main.o
                                                  obj\.\src\DSP_Processing.o
                                                  obj\.\src\DMA_IRQ_Handler.o
m_NCOphzinc                                       obj\.\src\User_Button.o
                                                  obj\.\src\touch_pad.o
                                                  obj\.\src\TFT_Display.o
                                                  obj\.\src\Sine_table.o
                                                  obj\.\src\PSKMod.o
                                                  obj\.\src\PSK_Det.o
                                                  obj\.\src\main.o
                                                  obj\.\src\DSP_Processing.o
                                                  obj\.\src\DMA_IRQ_Handler.o
m_NLPk                                            obj\.\src\User_Button.o
                                                  obj\.\src\touch_pad.o
                                                  obj\.\src\TFT_Display.o
                                                  obj\.\src\Sine_table.o
                                                  obj\.\src\PSKMod.o
                                                  obj\.\src\PSK_Det.o
                                                  obj\.\src\main.o
                                                  obj\.\src\DSP_Processing.o
                                                  obj\.\src\DMA_IRQ_Handler.o
m_Ncnt                                            obj\.\src\User_Button.o
                                                  obj\.\src\touch_pad.o
                                                  obj\.\src\TFT_Display.o
                                                  obj\.\src\Sine_table.o
                                                  obj\.\src\PSKMod.o
                                                  obj\.\src\PSK_Det.o
                                                  obj\.\src\main.o
                                                  obj\.\src\DSP_Processing.o
                                                  obj\.\src\DMA_IRQ_Handler.o
m_NewPkPos                                        obj\.\src\User_Button.o
                                                  obj\.\src\touch_pad.o
                                                  obj\.\src\TFT_Display.o
                                                  obj\.\src\Sine_table.o
                                                  obj\.\src\PSKMod.o
                                                  obj\.\src\PSK_Det.o
                                                  obj\.\src\main.o
                                                  obj\.\src\DSP_Processing.o
                                                  obj\.\src\DMA_IRQ_Handler.o
m_OffCount                                        obj\.\src\User_Button.o
                                                  obj\.\src\touch_pad.o
                                                  obj\.\src\TFT_Display.o
                                                  obj\.\src\Sine_table.o
                                                  obj\.\src\PSKMod.o
                                                  obj\.\src\PSK_Det.o
                                                  obj\.\src\main.o
                                                  obj\.\src\DSP_Processing.o
                                                  obj\.\src\DMA_IRQ_Handler.o
m_OnCount                                         obj\.\src\User_Button.o
                                                  obj\.\src\touch_pad.o
                                                  obj\.\src\TFT_Display.o
                                                  obj\.\src\Sine_table.o
                                                  obj\.\src\PSKMod.o
                                                  obj\.\src\PSK_Det.o
                                                  obj\.\src\main.o
                                                  obj\.\src\DSP_Processing.o
                                                  obj\.\src\DMA_IRQ_Handler.o
m_PSKPeriodUpdate                                 obj\.\src\PSK_Det.o
m_PSKmode                                         obj\.\src\User_Button.o
                                                  obj\.\src\touch_pad.o
                                                  obj\.\src\TFT_Display.o
                                                  obj\.\src\Sine_table.o
                                                  obj\.\src\PSKMod.o
                                                  obj\.\src\PSK_Det.o
                                                  obj\.\src\main.o
                                                  obj\.\src\DSP_Processing.o
                                                  obj\.\src\DMA_IRQ_Handler.o
m_Pcnt                                            obj\.\src\User_Button.o
                                                  obj\.\src\touch_pad.o
                                                  obj\.\src\TFT_Display.o
                                                  obj\.\src\Sine_table.o
                                                  obj\.\src\PSKMod.o
                                                  obj\.\src\PSK_Det.o
                                                  obj\.\src\main.o
                                                  obj\.\src\DSP_Processing.o
                                                  obj\.\src\DMA_IRQ_Handler.o
m_PkPos                                           obj\.\src\User_Button.o
                                                  obj\.\src\touch_pad.o
                                                  obj\.\src\TFT_Display.o
                                                  obj\.\src\Sine_table.o
                                                  obj\.\src\PSKMod.o
                                                  obj\.\src\PSK_Det.o
                                                  obj\.\src\main.o
                                                  obj\.\src\DSP_Processing.o
                                                  obj\.\src\DMA_IRQ_Handler.o
m_Q0                                              obj\.\src\User_Button.o
                                                  obj\.\src\touch_pad.o
                                                  obj\.\src\TFT_Display.o
                                                  obj\.\src\Sine_table.o
                                                  obj\.\src\PSKMod.o
                                                  obj\.\src\PSK_Det.o
                                                  obj\.\src\main.o
                                                  obj\.\src\DSP_Processing.o
                                                  obj\.\src\DMA_IRQ_Handler.o
m_Q1                                              obj\.\src\User_Button.o
                                                  obj\.\src\touch_pad.o
                                                  obj\.\src\TFT_Display.o
                                                  obj\.\src\Sine_table.o
                                                  obj\.\src\PSKMod.o
                                                  obj\.\src\PSK_Det.o
                                                  obj\.\src\main.o
                                                  obj\.\src\DSP_Processing.o
                                                  obj\.\src\DMA_IRQ_Handler.o
m_QFreqError                                      obj\.\src\User_Button.o
                                                  obj\.\src\touch_pad.o
                                                  obj\.\src\TFT_Display.o
                                                  obj\.\src\Sine_table.o
                                                  obj\.\src\PSKMod.o
                                                  obj\.\src\PSK_Det.o
                                                  obj\.\src\main.o
                                                  obj\.\src\DSP_Processing.o
                                                  obj\.\src\DMA_IRQ_Handler.o
m_RMSConstant                                     obj\.\src\PSKMod.o
                                                  obj\.\src\PSK_Det.o
                                                  obj\.\src\Keyboard_Input.o
                                                  obj\.\src\DMA_IRQ_Handler.o
                                                  obj\.\src\ChangeOver.o
m_Ramp                                            obj\.\src\PSKMod.o
m_SQLevel                                         obj\.\src\User_Button.o
                                                  obj\.\src\touch_pad.o
                                                  obj\.\src\TFT_Display.o
                                                  obj\.\src\Sine_table.o
                                                  obj\.\src\PSKMod.o
                                                  obj\.\src\PSK_Det.o
                                                  obj\.\src\main.o
                                                  obj\.\src\DSP_Processing.o
                                                  obj\.\src\DMA_IRQ_Handler.o
m_SQOpen                                          obj\.\src\User_Button.o
                                                  obj\.\src\touch_pad.o
                                                  obj\.\src\TFT_Display.o
                                                  obj\.\src\Sine_table.o
                                                  obj\.\src\PSKMod.o
                                                  obj\.\src\PSK_Det.o
                                                  obj\.\src\main.o
                                                  obj\.\src\DSP_Processing.o
                                                  obj\.\src\DMA_IRQ_Handler.o
m_SQThresh                                        obj\.\src\User_Button.o
                                                  obj\.\src\touch_pad.o
                                                  obj\.\src\TFT_Display.o
                                                  obj\.\src\Sine_table.o
                                                  obj\.\src\PSKMod.o
                                                  obj\.\src\PSK_Det.o
                                                  obj\.\src\main.o
                                                  obj\.\src\DSP_Processing.o
                                                  obj\.\src\DMA_IRQ_Handler.o
m_SampCnt                                         obj\.\src\User_Button.o
                                                  obj\.\src\touch_pad.o
                                                  obj\.\src\TFT_Display.o
                                                  obj\.\src\Sine_table.o
                                                  obj\.\src\PSKMod.o
                                                  obj\.\src\PSK_Det.o
                                                  obj\.\src\main.o
                                                  obj\.\src\DSP_Processing.o
                                                  obj\.\src\DMA_IRQ_Handler.o
m_SampleClkAdj                                    obj\.\src\User_Button.o
                                                  obj\.\src\touch_pad.o
                                                  obj\.\src\TFT_Display.o
                                                  obj\.\src\Sine_table.o
                                                  obj\.\src\PSKMod.o
                                                  obj\.\src\PSK_Det.o
                                                  obj\.\src\main.o
                                                  obj\.\src\DSP_Processing.o
                                                  obj\.\src\DMA_IRQ_Handler.o
m_SampleFreq                                      obj\.\src\User_Button.o
                                                  obj\.\src\touch_pad.o
                                                  obj\.\src\TFT_Display.o
                                                  obj\.\src\Sine_table.o
                                                  obj\.\src\PSKMod.o
                                                  obj\.\src\PSK_Det.o
                                                  obj\.\src\main.o
                                                  obj\.\src\DSP_Processing.o
                                                  obj\.\src\DMA_IRQ_Handler.o
m_SquelchSpeed                                    obj\.\src\User_Button.o
                                                  obj\.\src\touch_pad.o
                                                  obj\.\src\TFT_Display.o
                                                  obj\.\src\Sine_table.o
                                                  obj\.\src\PSKMod.o
                                                  obj\.\src\PSK_Det.o
                                                  obj\.\src\main.o
                                                  obj\.\src\DSP_Processing.o
                                                  obj\.\src\DMA_IRQ_Handler.o
m_SymbolRate                                      obj\.\src\PSKMod.o
                                                  obj\.\src\PSK_Det.o
                                                  obj\.\src\Keyboard_Input.o
                                                  obj\.\src\DMA_IRQ_Handler.o
                                                  obj\.\src\ChangeOver.o
m_SyncArray                                       obj\.\src\User_Button.o
                                                  obj\.\src\touch_pad.o
                                                  obj\.\src\TFT_Display.o
                                                  obj\.\src\Sine_table.o
                                                  obj\.\src\PSKMod.o
                                                  obj\.\src\PSK_Det.o
                                                  obj\.\src\main.o
                                                  obj\.\src\DSP_Processing.o
                                                  obj\.\src\DMA_IRQ_Handler.o
m_SyncAve                                         obj\.\src\User_Button.o
                                                  obj\.\src\touch_pad.o
                                                  obj\.\src\TFT_Display.o
                                                  obj\.\src\Sine_table.o
                                                  obj\.\src\PSKMod.o
                                                  obj\.\src\PSK_Det.o
                                                  obj\.\src\main.o
                                                  obj\.\src\DSP_Processing.o
                                                  obj\.\src\DMA_IRQ_Handler.o
m_TxShiftReg                                      obj\.\src\PSKMod.o
                                                  obj\.\src\PSK_Det.o
                                                  obj\.\src\Keyboard_Input.o
                                                  obj\.\src\DMA_IRQ_Handler.o
                                                  obj\.\src\ChangeOver.o
m_VaricodeDecTbl                                  obj\.\src\User_Button.o
                                                  obj\.\src\touch_pad.o
                                                  obj\.\src\TFT_Display.o
                                                  obj\.\src\Sine_table.o
                                                  obj\.\src\PSKMod.o
                                                  obj\.\src\PSK_Det.o
                                                  obj\.\src\main.o
                                                  obj\.\src\DSP_Processing.o
                                                  obj\.\src\DMA_IRQ_Handler.o
m_VcoPhz                                          obj\.\src\User_Button.o
                                                  obj\.\src\touch_pad.o
                                                  obj\.\src\TFT_Display.o
                                                  obj\.\src\Sine_table.o
                                                  obj\.\src\PSKMod.o
                                                  obj\.\src\PSK_Det.o
                                                  obj\.\src\main.o
                                                  obj\.\src\DSP_Processing.o
                                                  obj\.\src\DMA_IRQ_Handler.o
m_pHead                                           obj\.\src\PSKMod.o
m_pTail                                           obj\.\src\PSKMod.o
m_z1                                              obj\.\src\User_Button.o
                                                  obj\.\src\touch_pad.o
                                                  obj\.\src\TFT_Display.o
                                                  obj\.\src\Sine_table.o
                                                  obj\.\src\PSKMod.o
                                                  obj\.\src\PSK_Det.o
                                                  obj\.\src\main.o
                                                  obj\.\src\DSP_Processing.o
                                                  obj\.\src\DMA_IRQ_Handler.o
m_z2                                              obj\.\src\User_Button.o
                                                  obj\.\src\touch_pad.o
                                                  obj\.\src\TFT_Display.o
                                                  obj\.\src\Sine_table.o
                                                  obj\.\src\PSKMod.o
                                                  obj\.\src\PSK_Det.o
                                                  obj\.\src\main.o
                                                  obj\.\src\DSP_Processing.o
                                                  obj\.\src\DMA_IRQ_Handler.o
main                                              obj\.\src\main.o
                                                  obj\.\startup\startup_stm32f4xx.o
main_delay                                        obj\.\src\main.o
matherr                                           c:/program files/gnu tools arm embedded/4.6 2012q2/bin/../lib/gcc/arm-none-eabi/4.6.2/../../../../arm-none-eabi/lib/armv7e-m/fpu\libm.a(lib_a-s_matherr.o)
                                                  c:/program files/gnu tools arm embedded/4.6 2012q2/bin/../lib/gcc/arm-none-eabi/4.6.2/../../../../arm-none-eabi/lib/armv7e-m/fpu\libm.a(lib_a-w_sqrt.o)
                                                  c:/program files/gnu tools arm embedded/4.6 2012q2/bin/../lib/gcc/arm-none-eabi/4.6.2/../../../../arm-none-eabi/lib/armv7e-m/fpu\libm.a(lib_a-w_log.o)
                                                  c:/program files/gnu tools arm embedded/4.6 2012q2/bin/../lib/gcc/arm-none-eabi/4.6.2/../../../../arm-none-eabi/lib/armv7e-m/fpu\libm.a(lib_a-w_fmod.o)
memcpy                                            c:/program files/gnu tools arm embedded/4.6 2012q2/bin/../lib/gcc/arm-none-eabi/4.6.2/../../../../arm-none-eabi/lib/armv7e-m/fpu\libc.a(lib_a-memcpy.o)
                                                  obj\.\src\TFT_Display.o
                                                  obj\.\src\AsciiLib.o
memset                                            c:/program files/gnu tools arm embedded/4.6 2012q2/bin/../lib/gcc/arm-none-eabi/4.6.2/../../../../arm-none-eabi/lib/armv7e-m/fpu\libc.a(lib_a-memset.o)
                                                  obj\.\src\touch_pad.o
nan                                               c:/program files/gnu tools arm embedded/4.6 2012q2/bin/../lib/gcc/arm-none-eabi/4.6.2/../../../../arm-none-eabi/lib/armv7e-m/fpu\libm.a(lib_a-s_nan.o)
                                                  c:/program files/gnu tools arm embedded/4.6 2012q2/bin/../lib/gcc/arm-none-eabi/4.6.2/../../../../arm-none-eabi/lib/armv7e-m/fpu\libm.a(lib_a-w_log.o)
newsamp                                           obj\.\src\User_Button.o
                                                  obj\.\src\touch_pad.o
                                                  obj\.\src\TFT_Display.o
                                                  obj\.\src\Sine_table.o
                                                  obj\.\src\PSKMod.o
                                                  obj\.\src\PSK_Det.o
                                                  obj\.\src\main.o
                                                  obj\.\src\DSP_Processing.o
                                                  obj\.\src\DMA_IRQ_Handler.o
numCharChangingByDial                             obj\.\src\TFT_Display.o
old_SS1_position                                  obj\.\src\main.o
old_SS2_position                                  obj\.\src\main.o
phase_adjust                                      obj\.\src\touch_pad.o
                                                  obj\.\src\main.o
                                                  obj\.\src\Encoder_2.o
                                                  obj\.\src\DMA_IRQ_Handler.o
                                                  obj\.\src\ChangeOver.o
process_SS1                                       obj\.\src\Encoder_1.o
                                                  obj\.\src\main.o
                                                  obj\.\src\Encoder_2.o
process_SS2                                       obj\.\src\Encoder_2.o
                                                  obj\.\src\main.o
process_encoder1                                  obj\.\src\Encoder_1.o
                                                  obj\.\src\main.o
process_encoder2                                  obj\.\src\Encoder_2.o
                                                  obj\.\src\main.o
put_dump                                          obj\.\src\xprintf.o
read_SS1                                          obj\.\src\touch_pad.o
                                                  obj\.\src\main.o
                                                  obj\.\src\Encoder_2.o
                                                  obj\.\src\Encoder_1.o
                                                  obj\.\src\eeprom.o
read_SS2                                          obj\.\src\touch_pad.o
                                                  obj\.\src\main.o
                                                  obj\.\src\Encoder_2.o
                                                  obj\.\src\eeprom.o
                                                  obj\.\src\ChangeOver.o
redrawFrequencyOnScreen                           obj\.\src\Encoder_1.o
                                                  obj\.\src\touch_pad.o
rgain                                             obj\.\src\touch_pad.o
                                                  obj\.\src\main.o
                                                  obj\.\src\Encoder_2.o
                                                  obj\.\src\DMA_IRQ_Handler.o
                                                  obj\.\src\ChangeOver.o
sample                                            obj\.\src\User_Button.o
                                                  obj\.\src\touch_pad.o
                                                  obj\.\src\TFT_Display.o
                                                  obj\.\src\Sine_table.o
                                                  obj\.\src\PSKMod.o
                                                  obj\.\src\PSK_Det.o
                                                  obj\.\src\main.o
                                                  obj\.\src\DSP_Processing.o
                                                  obj\.\src\DMA_IRQ_Handler.o
screen                                            obj\.\src\touch_pad.o
si570_read                                        obj\.\src\Si570.o
                                                  obj\.\src\main.o
                                                  obj\.\src\Encoder_2.o
                                                  obj\.\src\Encoder_1.o
sqrt                                              c:/program files/gnu tools arm embedded/4.6 2012q2/bin/../lib/gcc/arm-none-eabi/4.6.2/../../../../arm-none-eabi/lib/armv7e-m/fpu\libm.a(lib_a-w_sqrt.o)
                                                  obj\.\src\PSK_Det.o
start_toggle                                      obj\.\externals\SM32F4-Discovery\USB\src\usbh_hid_core.o
top_of_stack                                      obj\.\startup\startup_stm32f4xx.o
touch_init                                        obj\.\src\touch_pad.o
                                                  obj\.\src\main.o
touch_interrupt_init                              obj\.\src\touch_pad.o
                                                  obj\.\src\main.o
uart_deinit                                       obj\.\src\uart.o
uart_init                                         obj\.\src\uart.o
                                                  obj\.\src\main.o
uart_putc                                         obj\.\src\uart.o
writeNumberToBuffer                               obj\.\src\TFT_Display.o
x_NCOphzinc                                       obj\.\src\touch_pad.o
                                                  obj\.\src\main.o
                                                  obj\.\src\Encoder_2.o
                                                  obj\.\src\DMA_IRQ_Handler.o
                                                  obj\.\src\ChangeOver.o
xfprintf                                          obj\.\src\xprintf.o
xfputs                                            obj\.\src\xprintf.o
xfunc_out                                         obj\.\src\xprintf.o
                                                  obj\.\src\uart.o
xprintf                                           obj\.\src\xprintf.o
xputc                                             obj\.\src\xprintf.o
xputs                                             obj\.\src\xprintf.o
xsprintf                                          obj\.\src\xprintf.o
