Archive member included because of file (symbol)

.\externals\libs\libstm32f4xx_peripherals.a(stm32f4xx_dma.o)
                              obj\.\src\Init_DMA.o (DMA_DeInit)
.\externals\libs\libstm32f4xx_peripherals.a(stm32f4xx_exti.o)
                              obj\.\externals\SM32F4-Discovery\STEmbeddedGUI\src\TscHal.o (EXTI_DeInit)
.\externals\libs\libstm32f4xx_peripherals.a(stm32f4xx_flash.o)
                              obj\.\externals\SM32F4-Discovery\STEmbeddedGUI\src\TscHal.o (FLASH_Unlock)
.\externals\libs\libstm32f4xx_peripherals.a(stm32f4xx_fsmc.o)
                              obj\.\externals\SM32F4-Discovery\STEmbeddedGUI\src\LcdDriver_ILI9320.o (FSMC_NORSRAMInit)
.\externals\libs\libstm32f4xx_peripherals.a(stm32f4xx_gpio.o)
                              obj\.\src\CW_Mod.o (GPIO_Init)
.\externals\libs\libstm32f4xx_peripherals.a(stm32f4xx_i2c.o)
                              obj\.\src\Init_I2C.o (I2C_DeInit)
.\externals\libs\libstm32f4xx_peripherals.a(stm32f4xx_rcc.o)
                              obj\.\externals\SM32F4-Discovery\STEmbeddedGUI\src\main_GUI.o (RCC_GetClocksFreq)
.\externals\libs\libstm32f4xx_peripherals.a(stm32f4xx_spi.o)
                              obj\.\src\touch_pad.o (SPI_I2S_DeInit)
.\externals\libs\libstm32f4xx_peripherals.a(stm32f4xx_syscfg.o)
                              obj\.\src\Encoder_1.o (SYSCFG_EXTILineConfig)
.\externals\libs\libstm32f4xx_peripherals.a(stm32f4xx_tim.o)
                              obj\.\src\usb_bsp.o (TIM_TimeBaseInit)
.\externals\libs\libstm32f4xx_peripherals.a(stm32f4xx_usart.o)
                              obj\.\src\uart.o (USART_Init)
.\externals\libs\libstm32f4xx_math.a(arm_cmplx_mag_squared_q15.o)
                              obj\.\src\DSP_Processing.o (arm_cmplx_mag_squared_q15)
.\externals\libs\libstm32f4xx_math.a(arm_shift_q15.o)
                              obj\.\src\DSP_Processing.o (arm_shift_q15)
.\externals\libs\libstm32f4xx_math.a(arm_fir_decimate_q15.o)
                              obj\.\src\PSK_Det.o (arm_fir_decimate_q15)
.\externals\libs\libstm32f4xx_math.a(arm_fir_q15.o)
                              obj\.\src\DSP_Processing.o (arm_fir_q15)
.\externals\libs\libstm32f4xx_math.a(arm_cfft_radix4_q15.o)
                              obj\.\src\DSP_Processing.o (arm_cfft_radix4_q15)
.\externals\libs\libstm32f4xx_math.a(arm_cfft_radix4_init_q15.o)
                              obj\.\src\DSP_Processing.o (arm_cfft_radix4_init_q15)
.\externals\libs\libstm32f4xx_math.a(arm_common_tables.o)
                              .\externals\libs\libstm32f4xx_math.a(arm_cfft_radix4_init_q15.o) (armBitRevTable)
d:/program files (x86)/gnu tools arm embedded/4.6 2012q4/bin/../lib/gcc/arm-none-eabi/4.6.2/../../../../arm-none-eabi/lib/armv7e-m/fpu\libm.a(lib_a-w_atan2.o)
                              obj\.\src\PSK_Det.o (atan2)
d:/program files (x86)/gnu tools arm embedded/4.6 2012q4/bin/../lib/gcc/arm-none-eabi/4.6.2/../../../../arm-none-eabi/lib/armv7e-m/fpu\libm.a(lib_a-w_fmod.o)
                              obj\.\src\PSK_Det.o (fmod)
d:/program files (x86)/gnu tools arm embedded/4.6 2012q4/bin/../lib/gcc/arm-none-eabi/4.6.2/../../../../arm-none-eabi/lib/armv7e-m/fpu\libm.a(lib_a-w_sqrt.o)
                              obj\.\src\PSK_Det.o (sqrt)
d:/program files (x86)/gnu tools arm embedded/4.6 2012q4/bin/../lib/gcc/arm-none-eabi/4.6.2/../../../../arm-none-eabi/lib/armv7e-m/fpu\libm.a(lib_a-e_atan2.o)
                              d:/program files (x86)/gnu tools arm embedded/4.6 2012q4/bin/../lib/gcc/arm-none-eabi/4.6.2/../../../../arm-none-eabi/lib/armv7e-m/fpu\libm.a(lib_a-w_atan2.o) (__ieee754_atan2)
d:/program files (x86)/gnu tools arm embedded/4.6 2012q4/bin/../lib/gcc/arm-none-eabi/4.6.2/../../../../arm-none-eabi/lib/armv7e-m/fpu\libm.a(lib_a-e_fmod.o)
                              d:/program files (x86)/gnu tools arm embedded/4.6 2012q4/bin/../lib/gcc/arm-none-eabi/4.6.2/../../../../arm-none-eabi/lib/armv7e-m/fpu\libm.a(lib_a-w_fmod.o) (__ieee754_fmod)
d:/program files (x86)/gnu tools arm embedded/4.6 2012q4/bin/../lib/gcc/arm-none-eabi/4.6.2/../../../../arm-none-eabi/lib/armv7e-m/fpu\libm.a(lib_a-e_sqrt.o)
                              d:/program files (x86)/gnu tools arm embedded/4.6 2012q4/bin/../lib/gcc/arm-none-eabi/4.6.2/../../../../arm-none-eabi/lib/armv7e-m/fpu\libm.a(lib_a-w_sqrt.o) (__ieee754_sqrt)
d:/program files (x86)/gnu tools arm embedded/4.6 2012q4/bin/../lib/gcc/arm-none-eabi/4.6.2/../../../../arm-none-eabi/lib/armv7e-m/fpu\libm.a(lib_a-s_atan.o)
                              d:/program files (x86)/gnu tools arm embedded/4.6 2012q4/bin/../lib/gcc/arm-none-eabi/4.6.2/../../../../arm-none-eabi/lib/armv7e-m/fpu\libm.a(lib_a-e_atan2.o) (atan)
d:/program files (x86)/gnu tools arm embedded/4.6 2012q4/bin/../lib/gcc/arm-none-eabi/4.6.2/../../../../arm-none-eabi/lib/armv7e-m/fpu\libm.a(lib_a-s_fabs.o)
                              d:/program files (x86)/gnu tools arm embedded/4.6 2012q4/bin/../lib/gcc/arm-none-eabi/4.6.2/../../../../arm-none-eabi/lib/armv7e-m/fpu\libm.a(lib_a-e_atan2.o) (fabs)
d:/program files (x86)/gnu tools arm embedded/4.6 2012q4/bin/../lib/gcc/arm-none-eabi/4.6.2/../../../../arm-none-eabi/lib/armv7e-m/fpu\libm.a(lib_a-s_fpclassify.o)
                              d:/program files (x86)/gnu tools arm embedded/4.6 2012q4/bin/../lib/gcc/arm-none-eabi/4.6.2/../../../../arm-none-eabi/lib/armv7e-m/fpu\libm.a(lib_a-w_fmod.o) (__fpclassifyd)
d:/program files (x86)/gnu tools arm embedded/4.6 2012q4/bin/../lib/gcc/arm-none-eabi/4.6.2/../../../../arm-none-eabi/lib/armv7e-m/fpu\libm.a(lib_a-s_lib_ver.o)
                              d:/program files (x86)/gnu tools arm embedded/4.6 2012q4/bin/../lib/gcc/arm-none-eabi/4.6.2/../../../../arm-none-eabi/lib/armv7e-m/fpu\libm.a(lib_a-w_fmod.o) (__fdlib_version)
d:/program files (x86)/gnu tools arm embedded/4.6 2012q4/bin/../lib/gcc/arm-none-eabi/4.6.2/../../../../arm-none-eabi/lib/armv7e-m/fpu\libm.a(lib_a-s_matherr.o)
                              d:/program files (x86)/gnu tools arm embedded/4.6 2012q4/bin/../lib/gcc/arm-none-eabi/4.6.2/../../../../arm-none-eabi/lib/armv7e-m/fpu\libm.a(lib_a-w_fmod.o) (matherr)
d:/program files (x86)/gnu tools arm embedded/4.6 2012q4/bin/../lib/gcc/arm-none-eabi/4.6.2/armv7e-m/fpu\libgcc.a(_arm_addsubdf3.o)
                              obj\.\src\PSK_Det.o (__aeabi_dsub)
d:/program files (x86)/gnu tools arm embedded/4.6 2012q4/bin/../lib/gcc/arm-none-eabi/4.6.2/armv7e-m/fpu\libgcc.a(_arm_muldivdf3.o)
                              obj\.\src\DMA_IRQ_Handler.o (__aeabi_dmul)
d:/program files (x86)/gnu tools arm embedded/4.6 2012q4/bin/../lib/gcc/arm-none-eabi/4.6.2/armv7e-m/fpu\libgcc.a(_arm_cmpdf2.o)
                              obj\.\src\Encoder_1.o (__aeabi_dcmpeq)
d:/program files (x86)/gnu tools arm embedded/4.6 2012q4/bin/../lib/gcc/arm-none-eabi/4.6.2/armv7e-m/fpu\libgcc.a(_arm_fixdfsi.o)
                              obj\.\src\DMA_IRQ_Handler.o (__aeabi_d2iz)
d:/program files (x86)/gnu tools arm embedded/4.6 2012q4/bin/../lib/gcc/arm-none-eabi/4.6.2/armv7e-m/fpu\libgcc.a(_arm_fixunsdfsi.o)
                              obj\.\src\Encoder_1.o (__aeabi_d2uiz)
d:/program files (x86)/gnu tools arm embedded/4.6 2012q4/bin/../lib/gcc/arm-none-eabi/4.6.2/armv7e-m/fpu\libgcc.a(_arm_truncdfsf2.o)
                              obj\.\src\TFT_Display.o (__aeabi_d2f)
d:/program files (x86)/gnu tools arm embedded/4.6 2012q4/bin/../lib/gcc/arm-none-eabi/4.6.2/../../../../arm-none-eabi/lib/armv7e-m/fpu\libc.a(lib_a-errno.o)
                              d:/program files (x86)/gnu tools arm embedded/4.6 2012q4/bin/../lib/gcc/arm-none-eabi/4.6.2/../../../../arm-none-eabi/lib/armv7e-m/fpu\libm.a(lib_a-w_fmod.o) (__errno)
d:/program files (x86)/gnu tools arm embedded/4.6 2012q4/bin/../lib/gcc/arm-none-eabi/4.6.2/../../../../arm-none-eabi/lib/armv7e-m/fpu\libc.a(lib_a-impure.o)
                              d:/program files (x86)/gnu tools arm embedded/4.6 2012q4/bin/../lib/gcc/arm-none-eabi/4.6.2/../../../../arm-none-eabi/lib/armv7e-m/fpu\libc.a(lib_a-errno.o) (_impure_ptr)
d:/program files (x86)/gnu tools arm embedded/4.6 2012q4/bin/../lib/gcc/arm-none-eabi/4.6.2/../../../../arm-none-eabi/lib/armv7e-m/fpu\libc.a(lib_a-malloc.o)
                              obj\.\externals\SM32F4-Discovery\STEmbeddedGUI\src\graphicObject.o (malloc)
d:/program files (x86)/gnu tools arm embedded/4.6 2012q4/bin/../lib/gcc/arm-none-eabi/4.6.2/../../../../arm-none-eabi/lib/armv7e-m/fpu\libc.a(lib_a-mallocr.o)
                              d:/program files (x86)/gnu tools arm embedded/4.6 2012q4/bin/../lib/gcc/arm-none-eabi/4.6.2/../../../../arm-none-eabi/lib/armv7e-m/fpu\libc.a(lib_a-malloc.o) (_malloc_r)
d:/program files (x86)/gnu tools arm embedded/4.6 2012q4/bin/../lib/gcc/arm-none-eabi/4.6.2/../../../../arm-none-eabi/lib/armv7e-m/fpu\libc.a(lib_a-memcpy.o)
                              obj\.\externals\SM32F4-Discovery\STEmbeddedGUI\src\LcdDriver_ILI9320.o (memcpy)
d:/program files (x86)/gnu tools arm embedded/4.6 2012q4/bin/../lib/gcc/arm-none-eabi/4.6.2/../../../../arm-none-eabi/lib/armv7e-m/fpu\libc.a(lib_a-memset.o)
                              obj\.\src\touch_pad.o (memset)
d:/program files (x86)/gnu tools arm embedded/4.6 2012q4/bin/../lib/gcc/arm-none-eabi/4.6.2/../../../../arm-none-eabi/lib/armv7e-m/fpu\libc.a(lib_a-mlock.o)
                              d:/program files (x86)/gnu tools arm embedded/4.6 2012q4/bin/../lib/gcc/arm-none-eabi/4.6.2/../../../../arm-none-eabi/lib/armv7e-m/fpu\libc.a(lib_a-mallocr.o) (__malloc_lock)
d:/program files (x86)/gnu tools arm embedded/4.6 2012q4/bin/../lib/gcc/arm-none-eabi/4.6.2/../../../../arm-none-eabi/lib/armv7e-m/fpu\libc.a(lib_a-sbrkr.o)
                              d:/program files (x86)/gnu tools arm embedded/4.6 2012q4/bin/../lib/gcc/arm-none-eabi/4.6.2/../../../../arm-none-eabi/lib/armv7e-m/fpu\libc.a(lib_a-mallocr.o) (_sbrk_r)
d:/program files (x86)/gnu tools arm embedded/4.6 2012q4/bin/../lib/gcc/arm-none-eabi/4.6.2/../../../../arm-none-eabi/lib/armv7e-m/fpu\libc.a(lib_a-sprintf.o)
                              obj\.\externals\SM32F4-Discovery\STEmbeddedGUI\src\graphicObject.o (sprintf)
d:/program files (x86)/gnu tools arm embedded/4.6 2012q4/bin/../lib/gcc/arm-none-eabi/4.6.2/../../../../arm-none-eabi/lib/armv7e-m/fpu\libc.a(lib_a-strlen.o)
                              obj\.\externals\SM32F4-Discovery\STEmbeddedGUI\src\graphicObject.o (strlen)
d:/program files (x86)/gnu tools arm embedded/4.6 2012q4/bin/../lib/gcc/arm-none-eabi/4.6.2/../../../../arm-none-eabi/lib/armv7e-m/fpu\libc.a(lib_a-strncpy.o)
                              obj\.\externals\SM32F4-Discovery\STEmbeddedGUI\src\graphicObject.o (strncpy)
d:/program files (x86)/gnu tools arm embedded/4.6 2012q4/bin/../lib/gcc/arm-none-eabi/4.6.2/../../../../arm-none-eabi/lib/armv7e-m/fpu\libc.a(lib_a-svfprintf.o)
                              d:/program files (x86)/gnu tools arm embedded/4.6 2012q4/bin/../lib/gcc/arm-none-eabi/4.6.2/../../../../arm-none-eabi/lib/armv7e-m/fpu\libc.a(lib_a-sprintf.o) (_svfprintf_r)
d:/program files (x86)/gnu tools arm embedded/4.6 2012q4/bin/../lib/gcc/arm-none-eabi/4.6.2/../../../../arm-none-eabi/lib/armv7e-m/fpu\libc.a(lib_a-dtoa.o)
                              d:/program files (x86)/gnu tools arm embedded/4.6 2012q4/bin/../lib/gcc/arm-none-eabi/4.6.2/../../../../arm-none-eabi/lib/armv7e-m/fpu\libc.a(lib_a-svfprintf.o) (_dtoa_r)
d:/program files (x86)/gnu tools arm embedded/4.6 2012q4/bin/../lib/gcc/arm-none-eabi/4.6.2/../../../../arm-none-eabi/lib/armv7e-m/fpu\libc.a(lib_a-freer.o)
                              d:/program files (x86)/gnu tools arm embedded/4.6 2012q4/bin/../lib/gcc/arm-none-eabi/4.6.2/../../../../arm-none-eabi/lib/armv7e-m/fpu\libc.a(lib_a-malloc.o) (_free_r)
d:/program files (x86)/gnu tools arm embedded/4.6 2012q4/bin/../lib/gcc/arm-none-eabi/4.6.2/../../../../arm-none-eabi/lib/armv7e-m/fpu\libc.a(lib_a-locale.o)
                              d:/program files (x86)/gnu tools arm embedded/4.6 2012q4/bin/../lib/gcc/arm-none-eabi/4.6.2/../../../../arm-none-eabi/lib/armv7e-m/fpu\libc.a(lib_a-svfprintf.o) (_localeconv_r)
d:/program files (x86)/gnu tools arm embedded/4.6 2012q4/bin/../lib/gcc/arm-none-eabi/4.6.2/../../../../arm-none-eabi/lib/armv7e-m/fpu\libc.a(lib_a-memchr.o)
                              d:/program files (x86)/gnu tools arm embedded/4.6 2012q4/bin/../lib/gcc/arm-none-eabi/4.6.2/../../../../arm-none-eabi/lib/armv7e-m/fpu\libc.a(lib_a-svfprintf.o) (memchr)
d:/program files (x86)/gnu tools arm embedded/4.6 2012q4/bin/../lib/gcc/arm-none-eabi/4.6.2/../../../../arm-none-eabi/lib/armv7e-m/fpu\libc.a(lib_a-mprec.o)
                              d:/program files (x86)/gnu tools arm embedded/4.6 2012q4/bin/../lib/gcc/arm-none-eabi/4.6.2/../../../../arm-none-eabi/lib/armv7e-m/fpu\libc.a(lib_a-dtoa.o) (_Balloc)
d:/program files (x86)/gnu tools arm embedded/4.6 2012q4/bin/../lib/gcc/arm-none-eabi/4.6.2/../../../../arm-none-eabi/lib/armv7e-m/fpu\libc.a(lib_a-reent.o)
                              d:/program files (x86)/gnu tools arm embedded/4.6 2012q4/bin/../lib/gcc/arm-none-eabi/4.6.2/../../../../arm-none-eabi/lib/armv7e-m/fpu\libc.a(lib_a-sbrkr.o) (errno)
d:/program files (x86)/gnu tools arm embedded/4.6 2012q4/bin/../lib/gcc/arm-none-eabi/4.6.2/../../../../arm-none-eabi/lib/armv7e-m/fpu\libc.a(lib_a-strcmp.o)
                              d:/program files (x86)/gnu tools arm embedded/4.6 2012q4/bin/../lib/gcc/arm-none-eabi/4.6.2/../../../../arm-none-eabi/lib/armv7e-m/fpu\libc.a(lib_a-locale.o) (strcmp)
d:/program files (x86)/gnu tools arm embedded/4.6 2012q4/bin/../lib/gcc/arm-none-eabi/4.6.2/../../../../arm-none-eabi/lib/armv7e-m/fpu\libc.a(lib_a-svfiprintf.o)
                              d:/program files (x86)/gnu tools arm embedded/4.6 2012q4/bin/../lib/gcc/arm-none-eabi/4.6.2/../../../../arm-none-eabi/lib/armv7e-m/fpu\libc.a(lib_a-svfprintf.o) (__ssprint_r)
d:/program files (x86)/gnu tools arm embedded/4.6 2012q4/bin/../lib/gcc/arm-none-eabi/4.6.2/../../../../arm-none-eabi/lib/armv7e-m/fpu\libc.a(lib_a-callocr.o)
                              d:/program files (x86)/gnu tools arm embedded/4.6 2012q4/bin/../lib/gcc/arm-none-eabi/4.6.2/../../../../arm-none-eabi/lib/armv7e-m/fpu\libc.a(lib_a-mprec.o) (_calloc_r)
d:/program files (x86)/gnu tools arm embedded/4.6 2012q4/bin/../lib/gcc/arm-none-eabi/4.6.2/../../../../arm-none-eabi/lib/armv7e-m/fpu\libc.a(lib_a-memmove.o)
                              d:/program files (x86)/gnu tools arm embedded/4.6 2012q4/bin/../lib/gcc/arm-none-eabi/4.6.2/../../../../arm-none-eabi/lib/armv7e-m/fpu\libc.a(lib_a-svfiprintf.o) (memmove)
d:/program files (x86)/gnu tools arm embedded/4.6 2012q4/bin/../lib/gcc/arm-none-eabi/4.6.2/../../../../arm-none-eabi/lib/armv7e-m/fpu\libc.a(lib_a-reallocr.o)
                              d:/program files (x86)/gnu tools arm embedded/4.6 2012q4/bin/../lib/gcc/arm-none-eabi/4.6.2/../../../../arm-none-eabi/lib/armv7e-m/fpu\libc.a(lib_a-svfiprintf.o) (_realloc_r)
d:/program files (x86)/gnu tools arm embedded/4.6 2012q4/bin/../lib/gcc/arm-none-eabi/4.6.2/armv7e-m/fpu\libgcc.a(_aeabi_uldivmod.o)
                              d:/program files (x86)/gnu tools arm embedded/4.6 2012q4/bin/../lib/gcc/arm-none-eabi/4.6.2/../../../../arm-none-eabi/lib/armv7e-m/fpu\libc.a(lib_a-svfprintf.o) (__aeabi_uldivmod)
d:/program files (x86)/gnu tools arm embedded/4.6 2012q4/bin/../lib/gcc/arm-none-eabi/4.6.2/armv7e-m/fpu\libgcc.a(bpabi.o)
                              d:/program files (x86)/gnu tools arm embedded/4.6 2012q4/bin/../lib/gcc/arm-none-eabi/4.6.2/armv7e-m/fpu\libgcc.a(_aeabi_uldivmod.o) (__gnu_uldivmod_helper)
d:/program files (x86)/gnu tools arm embedded/4.6 2012q4/bin/../lib/gcc/arm-none-eabi/4.6.2/armv7e-m/fpu\libgcc.a(_dvmd_tls.o)
                              d:/program files (x86)/gnu tools arm embedded/4.6 2012q4/bin/../lib/gcc/arm-none-eabi/4.6.2/armv7e-m/fpu\libgcc.a(_aeabi_uldivmod.o) (__aeabi_ldiv0)
d:/program files (x86)/gnu tools arm embedded/4.6 2012q4/bin/../lib/gcc/arm-none-eabi/4.6.2/armv7e-m/fpu\libgcc.a(_divdi3.o)
                              d:/program files (x86)/gnu tools arm embedded/4.6 2012q4/bin/../lib/gcc/arm-none-eabi/4.6.2/armv7e-m/fpu\libgcc.a(bpabi.o) (__divdi3)
d:/program files (x86)/gnu tools arm embedded/4.6 2012q4/bin/../lib/gcc/arm-none-eabi/4.6.2/armv7e-m/fpu\libgcc.a(_udivdi3.o)
                              d:/program files (x86)/gnu tools arm embedded/4.6 2012q4/bin/../lib/gcc/arm-none-eabi/4.6.2/armv7e-m/fpu\libgcc.a(bpabi.o) (__udivdi3)

Allocating common symbols
Common symbol       size              file

m_PSKPeriodUpdate   0x8               obj\.\src\PSK_Det.o
LedCtrlScreen       0xa4              obj\.\externals\SM32F4-Discovery\STEmbeddedGUI\src\uiframework.o
RFREQ_FRAC          0x4               obj\.\src\Encoder_1.o
TSC_Value_X         0x4               obj\.\externals\SM32F4-Discovery\STEmbeddedGUI\src\touchscreen.o
Freq_Max            0x4               obj\.\src\Encoder_1.o
Filter_delay_I4     0x82              obj\.\src\DMA_IRQ_Handler.o
si570_read          0x6               obj\.\src\Encoder_1.o
m_FreqSignal        0x10              obj\.\src\DMA_IRQ_Handler.o
rgain               0x4               obj\.\src\ChangeOver.o
HID_Report          0x48              obj\.\externals\SM32F4-Discovery\USB\src\usbh_hid_core.o
HSEStartUpStatus    0x1               obj\.\src\usb_bsp.o
old_SS2_position    0x2               obj\.\src\main.o
Freq_Disp           0x4               obj\.\src\Encoder_1.o
Filter_delay_Q3     0x82              obj\.\src\DMA_IRQ_Handler.o
FFT_Test            0x400             obj\.\src\DSP_Processing.o
GL_TextColor        0x2               obj\.\externals\SM32F4-Discovery\STEmbeddedGUI\src\LcdHal.o
DataMax             0x20              obj\.\src\ChangeOver.o
Y_Point             0x2               obj\.\src\TFT_Display.o
FIR_I_Out           0x400             obj\.\src\DMA_IRQ_Handler.o
m_z2                0x10              obj\.\src\DMA_IRQ_Handler.o
m_z1                0x10              obj\.\src\DMA_IRQ_Handler.o
Sample_Frequency    0x4               obj\.\src\DMA_IRQ_Handler.o
EEProm_Value1       0x4               obj\.\src\Encoder_1.o
m_IQPhzIndex        0x4               obj\.\src\DMA_IRQ_Handler.o
LCD_buffer          0x28              obj\.\src\DMA_IRQ_Handler.o
errno               0x4               d:/program files (x86)/gnu tools arm embedded/4.6 2012q4/bin/../lib/gcc/arm-none-eabi/4.6.2/../../../../arm-none-eabi/lib/armv7e-m/fpu\libc.a(lib_a-reent.o)
ADC_Buffer          0x400             obj\.\src\DMA_IRQ_Handler.o
phase_adjust        0x4               obj\.\src\ChangeOver.o
FIR_State_I         0x4fe             obj\.\src\DSP_Processing.o
m_PSKmode           0x4               obj\.\src\DMA_IRQ_Handler.o
m_ClkErrCounter     0x4               obj\.\src\DMA_IRQ_Handler.o
m_BitPhaseInc       0x8               obj\.\src\DMA_IRQ_Handler.o
FFT_Magnitude       0x200             obj\.\src\DMA_IRQ_Handler.o
m_VcoPhz            0x8               obj\.\src\DMA_IRQ_Handler.o
m_BitSignal         0x10              obj\.\src\DMA_IRQ_Handler.o
screen              0x4               obj\.\src\touch_pad.o
Filter_delay_I3     0x82              obj\.\src\DMA_IRQ_Handler.o
m_IMDValid          0x4               obj\.\src\DMA_IRQ_Handler.o
NCO_Frequency       0x8               obj\.\src\DMA_IRQ_Handler.o
m_SquelchSpeed      0x4               obj\.\src\DMA_IRQ_Handler.o
USB_Out             0x400             obj\.\src\DMA_IRQ_Handler.o
FIR_I_In            0x400             obj\.\src\DMA_IRQ_Handler.o
xfunc_out           0x4               obj\.\src\xprintf.o
N1                  0x4               obj\.\src\Encoder_1.o
USBH_CfgDesc        0x200             obj\.\externals\SM32F4-Discovery\USB\src\usbh_stdreq.o
m_AFCCaptureOn      0x4               obj\.\src\DMA_IRQ_Handler.o
char_count          0x4               obj\.\src\PSK_Det.o
PSK_Gain            0x4               obj\.\src\DMA_IRQ_Handler.o
Tx_Flag             0x2               obj\.\src\ChangeOver.o
FXTAL               0x8               obj\.\src\Encoder_1.o
m_SyncAve           0xa8              obj\.\src\DMA_IRQ_Handler.o
m_SQThresh          0x4               obj\.\src\DMA_IRQ_Handler.o
RFREQ               0x8               obj\.\src\Encoder_1.o
IQ_Unit             0x20              obj\.\src\ChangeOver.o
USB_OTG_Core_dev    0x5ac             obj\.\src\main.o
FFT_Scale           0x400             obj\.\src\DSP_Processing.o
FFT_Output          0x80              obj\.\src\main.o
DIR2                0x1               obj\.\src\Encoder_2.o
ENC_Sens2           0x2               obj\.\src\Encoder_2.o
FFT_status          0x1               obj\.\src\DSP_Processing.o
IQ                  0x10              obj\.\src\DMA_IRQ_Handler.o
S1                  0x4               obj\.\src\ChangeOver.o
CW_Gain             0x4               obj\.\src\ChangeOver.o
LedControlExample   0xa4              obj\.\externals\SM32F4-Discovery\STEmbeddedGUI\src\uiframework.o
m_VaricodeDecTbl    0x800             obj\.\src\DMA_IRQ_Handler.o
DMA_RX_Memory       0x4               obj\.\src\DMA_IRQ_Handler.o
LSB_Out             0x400             obj\.\src\DMA_IRQ_Handler.o
T_lgain             0x4               obj\.\src\ChangeOver.o
CurrentScreen       0x4               obj\.\externals\SM32F4-Discovery\STEmbeddedGUI\src\uiframework.o
m_SymbolRate        0x8               obj\.\src\ChangeOver.o
FOUT                0x4               obj\.\src\Encoder_1.o
m_OffCount          0x4               obj\.\src\DMA_IRQ_Handler.o
PSK_Tx              0x4               obj\.\src\DMA_IRQ_Handler.o
m_LastPkPos         0x4               obj\.\src\DMA_IRQ_Handler.o
x_NCOphzinc         0x8               obj\.\src\ChangeOver.o
m_PkPos             0x4               obj\.\src\DMA_IRQ_Handler.o
m_NCOphzinc         0x8               obj\.\src\DMA_IRQ_Handler.o
m_2PI               0x8               obj\.\src\ChangeOver.o
m_AFClimit          0x8               obj\.\src\DMA_IRQ_Handler.o
m_FastAFCMode       0x4               obj\.\src\DMA_IRQ_Handler.o
F0                  0x8               obj\.\src\Encoder_1.o
DSP_Flag            0x2               obj\.\src\ChangeOver.o
old_SS1_position    0x2               obj\.\src\main.o
Samp                0x10              obj\.\src\DMA_IRQ_Handler.o
HS_DIV              0x4               obj\.\src\Encoder_1.o
EEProm_Value        0x4               obj\.\src\Encoder_1.o
m_SampleFreq        0x8               obj\.\src\DMA_IRQ_Handler.o
i                   0x2               obj\.\src\DMA_IRQ_Handler.o
FIR_Q_In            0x400             obj\.\src\DMA_IRQ_Handler.o
m_AddEndingZero     0x4               obj\.\src\ChangeOver.o
IQ_Disp             0x2               obj\.\src\ChangeOver.o
m_RMSConstant       0x4               obj\.\src\ChangeOver.o
m_SampCnt           0x4               obj\.\src\DMA_IRQ_Handler.o
HID_Machine         0x54              obj\.\externals\SM32F4-Discovery\USB\src\usbh_hid_core.o
m_LastBitZero       0x4               obj\.\src\DMA_IRQ_Handler.o
m_SQLevel           0x4               obj\.\src\DMA_IRQ_Handler.o
R_lgain             0x4               obj\.\src\ChangeOver.o
m_IQPhaseArray      0x50              obj\.\src\DMA_IRQ_Handler.o
Filter_delay_I2     0x4c              obj\.\src\DMA_IRQ_Handler.o
DMA_TX_Memory       0x4               obj\.\src\DMA_IRQ_Handler.o
m_BitAcc            0x4               obj\.\src\DMA_IRQ_Handler.o
Tx1BufferDMA        0x800             obj\.\src\DMA_IRQ_Handler.o
DataMin             0x20              obj\.\src\ChangeOver.o
Rx1BufferDMA        0x800             obj\.\src\DMA_IRQ_Handler.o
GL_BackColor        0x2               obj\.\externals\SM32F4-Discovery\STEmbeddedGUI\src\LcdHal.o
R_xgain             0x4               obj\.\src\ChangeOver.o
m_I1                0x8               obj\.\src\DMA_IRQ_Handler.o
Filter_delay_Q4     0x82              obj\.\src\DMA_IRQ_Handler.o
X_Point             0x2               obj\.\src\TFT_Display.o
SI570_Chk           0x1               obj\.\src\Encoder_1.o
m_QFreqError        0x8               obj\.\src\DMA_IRQ_Handler.o
Tx0BufferDMA        0x800             obj\.\src\DMA_IRQ_Handler.o
FFT_Display         0x100             obj\.\src\main.o
m_I0                0x8               obj\.\src\DMA_IRQ_Handler.o
PB_State            0x1               obj\.\src\User_Button.o
pLcdHwParam         0x28              obj\.\externals\SM32F4-Discovery\STEmbeddedGUI\src\LcdHal.o
RFREQ_INT           0x4               obj\.\src\Encoder_1.o
m_OnCount           0x4               obj\.\src\DMA_IRQ_Handler.o
ENC_Sens1           0x2               obj\.\src\Encoder_1.o
FIR_Q_Out           0x400             obj\.\src\DMA_IRQ_Handler.o
u32_TSXCoordinate   0x4               obj\.\externals\SM32F4-Discovery\STEmbeddedGUI\src\cursor.o
newsamp             0x10              obj\.\src\DMA_IRQ_Handler.o
m_AGCave            0x8               obj\.\src\DMA_IRQ_Handler.o
key                 0x4               obj\.\src\DMA_IRQ_Handler.o
m_Pcnt              0x4               obj\.\src\DMA_IRQ_Handler.o
Cursor              0x4               obj\.\externals\SM32F4-Discovery\STEmbeddedGUI\src\cursor.o
m_AFCmode           0x4               obj\.\src\DMA_IRQ_Handler.o
FIR_State_Q         0x4fe             obj\.\src\DSP_Processing.o
EEProm_Value2       0x2               obj\.\src\ChangeOver.o
count               0x4               obj\.\src\PSK_Det.o
TSC_FlashStatus     0x1               obj\.\externals\SM32F4-Discovery\STEmbeddedGUI\src\touchscreen.o
read_SS2            0x2               obj\.\src\ChangeOver.o
S2                  0x4               obj\.\src\ChangeOver.o
EEProm_Chk          0x1               obj\.\src\Encoder_1.o
pTscHwParam         0x54              obj\.\externals\SM32F4-Discovery\STEmbeddedGUI\src\TscHal.o
Filter_delay_Q2     0x4c              obj\.\src\DMA_IRQ_Handler.o
TSC_MemoryProgramStatus
                    0x1               obj\.\externals\SM32F4-Discovery\STEmbeddedGUI\src\touchscreen.o
m_FperrAve          0x8               obj\.\src\DMA_IRQ_Handler.o
Key_Down            0x1               obj\.\src\ChangeOver.o
m_Ncnt              0x4               obj\.\src\DMA_IRQ_Handler.o
m_FferrAve          0x8               obj\.\src\DMA_IRQ_Handler.o
m_SQOpen            0x4               obj\.\src\DMA_IRQ_Handler.o
HID_Desc            0xa               obj\.\externals\SM32F4-Discovery\USB\src\usbh_hid_core.o
read_SS1            0x2               obj\.\src\Encoder_1.o
u32_TSYCoordinate   0x4               obj\.\externals\SM32F4-Discovery\STEmbeddedGUI\src\cursor.o
Old_RFREQ           0x8               obj\.\src\Encoder_1.o
Freq_Min            0x4               obj\.\src\Encoder_1.o
S_CFFT              0x10              obj\.\src\DSP_Processing.o
m_Q0                0x8               obj\.\src\DMA_IRQ_Handler.o
m_NLPk              0x8               obj\.\src\DMA_IRQ_Handler.o
m_DevAve            0x8               obj\.\src\DMA_IRQ_Handler.o
Tab_State_Machine   0x64              obj\.\externals\SM32F4-Discovery\USB\src\usbh_core.o
m_AFCTimer          0x4               obj\.\src\DMA_IRQ_Handler.o
Freq_Set            0x40              obj\.\src\Encoder_1.o
T_xgain             0x4               obj\.\src\ChangeOver.o
Filter_delay_Q1     0x4c              obj\.\src\DMA_IRQ_Handler.o
PagesList           0xc8              obj\.\externals\SM32F4-Discovery\STEmbeddedGUI\src\graphicObject.o
m_NewPkPos          0x4               obj\.\src\DMA_IRQ_Handler.o
m_AFCmin            0x8               obj\.\src\DMA_IRQ_Handler.o
F_Mult              0x1               obj\.\src\Encoder_1.o
NVIC_InitStructure  0x4               obj\.\src\stm32f4_discovery.o
m_BitPos            0x4               obj\.\src\DMA_IRQ_Handler.o
IQData              0x20              obj\.\src\ChangeOver.o
m_SampleClkAdj      0x4               obj\.\src\DMA_IRQ_Handler.o
USB_Host            0x84              obj\.\src\main.o
m_BitPhasePos       0x8               obj\.\src\DMA_IRQ_Handler.o
EXTI_InitStructure  0x8               obj\.\src\Encoder_1.o
m_AFCmax            0x8               obj\.\src\DMA_IRQ_Handler.o
TouchFlag           0x2               obj\.\src\TFT_Display.o
Filter_delay_I1     0x4c              obj\.\src\DMA_IRQ_Handler.o
XmitBuffer          0x1a              obj\.\src\PSKMod.o
m_ClkErrTimer       0x4               obj\.\src\DMA_IRQ_Handler.o
m_Q1                0x8               obj\.\src\DMA_IRQ_Handler.o
m_SyncArray         0x50              obj\.\src\DMA_IRQ_Handler.o
Rx0BufferDMA        0x800             obj\.\src\DMA_IRQ_Handler.o
sample              0x10              obj\.\src\DMA_IRQ_Handler.o
DIR1                0x1               obj\.\src\Encoder_1.o
HID_Setup           0x8               obj\.\externals\SM32F4-Discovery\USB\src\usbh_hid_core.o
m_TxShiftReg        0x2               obj\.\src\ChangeOver.o
TSC_Value_Y         0x4               obj\.\externals\SM32F4-Discovery\STEmbeddedGUI\src\touchscreen.o
m_ClkError          0x4               obj\.\src\DMA_IRQ_Handler.o
FFT_Input           0x400             obj\.\src\DMA_IRQ_Handler.o
m_FreqError         0x8               obj\.\src\DMA_IRQ_Handler.o
Flag                0x4               obj\.\src\DMA_IRQ_Handler.o
received_string     0x28              obj\.\src\uart.o

Memory Configuration

Name             Origin             Length             Attributes
FLASH            0x08000000         0x00100000         xr
RAMCCM           0x10000000         0x00010000         xrw
RAM              0x20000000         0x00020000         xrw
*default*        0x00000000         0xffffffff

Linker script and memory map

LOAD obj\.\startup\startup_stm32f4xx.o
LOAD obj\.\src\AsciiLib.o
LOAD obj\.\src\CW_Mod.o
LOAD obj\.\src\ChangeOver.o
LOAD obj\.\src\Codec_Gains.o
LOAD obj\.\src\DMA_IRQ_Handler.o
LOAD obj\.\src\DMA_Test_Pins.o
LOAD obj\.\src\DSP_Processing.o
LOAD obj\.\src\Encoder_1.o
LOAD obj\.\src\Encoder_2.o
LOAD obj\.\src\FIR_Coefficients.o
LOAD obj\.\src\Init_Codec.o
LOAD obj\.\src\Init_DMA.o
LOAD obj\.\src\Init_I2C.o
LOAD obj\.\src\Init_I2S.o
LOAD obj\.\src\ModeSelect.o
LOAD obj\.\src\PSKMod.o
LOAD obj\.\src\PSK_Det.o
LOAD obj\.\src\Si570.o
LOAD obj\.\src\Sine_table.o
LOAD obj\.\src\TFT_Display.o
LOAD obj\.\src\User_Button.o
LOAD obj\.\src\eeprom.o
LOAD obj\.\src\main.o
LOAD obj\.\src\stm32f4_discovery.o
LOAD obj\.\src\stm32f4xx_it.o
LOAD obj\.\src\system_stm32f4xx.o
LOAD obj\.\src\touch_pad.o
LOAD obj\.\src\uart.o
LOAD obj\.\src\usb_bsp.o
LOAD obj\.\src\usbh_usr.o
LOAD obj\.\src\xprintf.o
LOAD obj\.\externals\SM32F4-Discovery\USB\src\misc.o
LOAD obj\.\externals\SM32F4-Discovery\USB\src\usb_core.o
LOAD obj\.\externals\SM32F4-Discovery\USB\src\usb_hcd.o
LOAD obj\.\externals\SM32F4-Discovery\USB\src\usb_hcd_int.o
LOAD obj\.\externals\SM32F4-Discovery\USB\src\usbh_core.o
LOAD obj\.\externals\SM32F4-Discovery\USB\src\usbh_hcs.o
LOAD obj\.\externals\SM32F4-Discovery\USB\src\usbh_hid_core.o
LOAD obj\.\externals\SM32F4-Discovery\USB\src\usbh_hid_keybd.o
LOAD obj\.\externals\SM32F4-Discovery\USB\src\usbh_ioreq.o
LOAD obj\.\externals\SM32F4-Discovery\USB\src\usbh_stdreq.o
LOAD obj\.\externals\SM32F4-Discovery\STEmbeddedGUI\src\JoyHal.o
LOAD obj\.\externals\SM32F4-Discovery\STEmbeddedGUI\src\LcdDriver_ILI9320.o
LOAD obj\.\externals\SM32F4-Discovery\STEmbeddedGUI\src\LcdHal.o
LOAD obj\.\externals\SM32F4-Discovery\STEmbeddedGUI\src\TscHal.o
LOAD obj\.\externals\SM32F4-Discovery\STEmbeddedGUI\src\cursor.o
LOAD obj\.\externals\SM32F4-Discovery\STEmbeddedGUI\src\gl_fonts.o
LOAD obj\.\externals\SM32F4-Discovery\STEmbeddedGUI\src\graphicObject.o
LOAD obj\.\externals\SM32F4-Discovery\STEmbeddedGUI\src\hw_config.o
LOAD obj\.\externals\SM32F4-Discovery\STEmbeddedGUI\src\images.o
LOAD obj\.\externals\SM32F4-Discovery\STEmbeddedGUI\src\main_GUI.o
LOAD obj\.\externals\SM32F4-Discovery\STEmbeddedGUI\src\pictures.o
LOAD obj\.\externals\SM32F4-Discovery\STEmbeddedGUI\src\smile_image.o
LOAD obj\.\externals\SM32F4-Discovery\STEmbeddedGUI\src\touchscreen.o
LOAD obj\.\externals\SM32F4-Discovery\STEmbeddedGUI\src\uiappuser.o
LOAD obj\.\externals\SM32F4-Discovery\STEmbeddedGUI\src\uiframework.o
LOAD .\externals\libs\libstm32f4xx_peripherals.a
LOAD .\externals\libs\libstm32f4xx_math.a
LOAD d:/program files (x86)/gnu tools arm embedded/4.6 2012q4/bin/../lib/gcc/arm-none-eabi/4.6.2/../../../../arm-none-eabi/lib/armv7e-m/fpu\libm.a
START GROUP
LOAD d:/program files (x86)/gnu tools arm embedded/4.6 2012q4/bin/../lib/gcc/arm-none-eabi/4.6.2/armv7e-m/fpu\libgcc.a
LOAD d:/program files (x86)/gnu tools arm embedded/4.6 2012q4/bin/../lib/gcc/arm-none-eabi/4.6.2/../../../../arm-none-eabi/lib/armv7e-m/fpu\libc.a
END GROUP
                0x20020000                top_of_stack = (ORIGIN (RAM) + 0x20000)
                0x00003e80                Heap_Size = 0x3e80
                0x00000400                Stack_Size = 0x400

.Vector_Table   0x08000000      0x188
                0x08000000                . = ALIGN (0x4)
 *(.Vector_Table)
 .Vector_Table  0x08000000      0x188 obj\.\startup\startup_stm32f4xx.o
                0x08000000                Vector_Table
                0x08000188                . = ALIGN (0x4)

.text           0x08000188    0x5e124
                0x08000188                . = ALIGN (0x4)
 *(.text)
 .text          0x08000188       0x14 obj\.\startup\startup_stm32f4xx.o
 .text          0x0800019c        0x0 obj\.\src\AsciiLib.o
 .text          0x0800019c       0x48 obj\.\src\CW_Mod.o
                0x0800019c                Init_CW_GPIO
 .text          0x080001e4      0x234 obj\.\src\ChangeOver.o
                0x080001e4                Receive_Sequence
                0x08000250                Xmit_SSB_Sequence
                0x080002b8                Xmit_CW_Sequence
                0x08000330                Xmit_PSK_Sequence
                0x08000398                Init_PTT_IO
 .text          0x08000418      0x36c obj\.\src\Codec_Gains.o
                0x08000418                Set_HP_Gain
                0x08000470                Set_LO_Gain
                0x080004c8                Set_PGA_Gain
                0x08000538                Set_DAC_DVC
                0x080005b8                Set_ADC_DVC
                0x08000638                Turn_On_Bias
                0x0800066c                Turn_Off_Bias
                0x080006a0                Disconnect_PGA
                0x080006ec                Mute_HP
                0x080006f8                Mute_LO
                0x08000704                Connect_IQ_Inputs
                0x08000750                Connect_Microphone_Input
 *fill*         0x08000784        0x4 00
 .text          0x08000788     0x1ad8 obj\.\src\DMA_IRQ_Handler.o
                0x08000788                DMA1_Stream0_IRQHandler
                0x08000894                Rcvr_DSP
                0x08000e00                Xmit_SSB
                0x08001354                Xmit_CW
                0x08001ae8                Xmit_PSK
 .text          0x08002260       0x4c obj\.\src\DMA_Test_Pins.o
                0x08002260                TEST_GPIO_Init
 .text          0x080022ac      0x188 obj\.\src\DSP_Processing.o
                0x080022ac                Process_FIR_I
                0x080022d0                Process_FIR_Q
                0x080022f4                Sideband_Demod
                0x080023b0                Process_FFT
 *fill*         0x08002434        0x4 00
 .text          0x08002438     0x2038 obj\.\src\Encoder_1.o
                0x08002438                Encoder1_GPIO_Config
                0x08002534                Set_Initial_SI570_Data
                0x08002654                init_encoder1
                0x080027b0                process_encoder1
                0x08003aa8                check_SS1
                0x08003ad4                process_SS1
                0x08004308                Increase_Step
                0x080043ac                Decrease_Step
                0x08004448                redrawFrequencyOnScreen
 .text          0x08004470     0x20f0 obj\.\src\Encoder_2.o
                0x08004470                Encoder2_GPIO_Config
                0x08004544                Set_Initial_IQ_Data
                0x08004628                Set_Minimums
                0x0800470c                Set_Maximums
                0x080047f0                Set_IQ_Units
                0x080048d4                init_encoder2
                0x08004a74                process_encoder2
                0x080060f0                check_SS2
                0x0800611c                process_SS2
                0x08006514                Store_Defaults
 .text          0x08006560        0x0 obj\.\src\FIR_Coefficients.o
 .text          0x08006560      0x4c0 obj\.\src\Init_Codec.o
                0x08006560                Codec_GPIO_Init
                0x080065ac                Codec_Reset
                0x080065e0                Codec_Init
 .text          0x08006a20      0x1f0 obj\.\src\Init_DMA.o
                0x08006a20                Audio_DMA_Init
                0x08006bf8                Audio_DMA_Start
 .text          0x08006c10      0xfa0 obj\.\src\Init_I2C.o
                0x08006c10                I2C_GPIO_Init
                0x08006c84                I2C_Cntrl_Init
                0x08006cf8                I2C_WriteRegister
                0x08006f20                I2C_WriteRegister_N
                0x08007170                I2C_ReadSlave
                0x080074f0                I2C_WriteEEProm
                0x08007794                I2C_ReadEEProm
                0x08007b84                Delay
 .text          0x08007bb0      0x13c obj\.\src\Init_I2S.o
                0x08007bb0                Codec_AudioInterface_Init
                0x08007c3c                I2S_GPIO_Init
 .text          0x08007cec       0xf4 obj\.\src\ModeSelect.o
                0x08007cec                Init_Mode
                0x08007d70                Set_Mode_Display
 .text          0x08007de0      0x3d8 obj\.\src\PSKMod.o
                0x08007de0                Update_PSK
                0x08007f08                InitPSKModulator
                0x08007fa0                GetNextBPSKSymbol
                0x0800806c                GetTxChar
                0x080080c4                PSK_addCharToTx
                0x08008144                PSK_isQueueFull
                0x08008194                PSK_isQueueEmpty
 .text          0x080081b8     0x2e40 obj\.\src\PSK_Det.o
                0x080081b8                ResetModem
                0x08008228                CPSKInitDet
                0x0800838c                InitPSK
                0x08008648                SetSampleClkAdj
                0x0800873c                SetRXFrequency
                0x080088b0                SetAFCLimit
                0x08008a78                ResetDetector
                0x08008b30                ProcPSKDet
                0x08009148                CalcFFreqError
                0x080095d8                CalcFreqError
                0x08009ac0                CalcAGC
                0x08009d10                SymbSync
                0x0800a188                DecodeSymb
                0x0800a6c0                CalcQuality
 .text          0x0800aff8      0xa18 obj\.\src\Si570.o
                0x0800aff8                Si570_StartUp
                0x0800b050                Output_Frequency
                0x0800b114                Compute_FXTAL
                0x0800b1a4                Recall_F0
                0x0800b214                Set_HS_DIV_N1
                0x0800b440                Pack_Si570_registers
                0x0800b670                Unpack_Si570_registers
                0x0800b7e8                Check_SI570
                0x0800b808                Read_Si570_registers
                0x0800b854                Write_Si570_registers
                0x0800b910                Large_RFREQ_Change
 .text          0x0800ba10        0x0 obj\.\src\Sine_table.o
 .text          0x0800ba10      0xe70 obj\.\src\TFT_Display.o
                0x0800ba10                LCD_SetColors
                0x0800ba44                LCD_GetColors
                0x0800ba70                LCD_CharSize
                0x0800ba8c                PutPixel
                0x0800bac4                Pixel
                0x0800bb14                LCD_StringLine
                0x0800bb40                LCD_DrawFFT
                0x0800bc84                LCD_DrawSquare
                0x0800bd68                LCD_DrawCircle
                0x0800bf58                LCD_DrawFullCircle
                0x0800c0d8                LCD_DrawFullRect
                0x0800c154                LCD_DrawFullSquare
                0x0800c1d4                LCD_DrawUniLine
                0x0800c408                LCD_PolyLine
                0x0800c548                LCD_ClosedPolyLine
                0x0800c59c                LCD_PolyLineRelative
                0x0800c5bc                LCD_ClosedPolyLineRelative
                0x0800c5dc                Plot_Integer
                0x0800c714                writeNumberToBuffer
                0x0800c794                numCharChangingByDial
                0x0800c7e4                Plot_Freq
 .text          0x0800c880      0x138 obj\.\src\User_Button.o
                0x0800c880                User_Button_Config
                0x0800c8d4                BT_Flag_Config
                0x0800c91c                Check_BT_Flag
                0x0800c940                IsBTConnected
                0x0800c958                EXTI0_IRQHandler
 .text          0x0800c9b8      0x32c obj\.\src\eeprom.o
                0x0800c9b8                Write_Int_EEProm
                0x0800ca3c                Read_Int_EEProm
                0x0800cabc                Write_Long_EEProm
                0x0800cb48                Read_Long_EEProm
                0x0800cbd4                Store_SI570_Data
                0x0800cc18                Read_SI570_Data
                0x0800cc5c                Store_IQ_Data
                0x0800cca0                Read_IQ_Data
 *fill*         0x0800cce4        0x4 00
 .text          0x0800cce8      0x220 obj\.\src\main.o
                0x0800cce8                main
                0x0800ccf4                initializeHardware
                0x0800ce90                displaySplashScreen
                0x0800cedc                main_delay
 .text          0x0800cf08      0x25c obj\.\src\stm32f4_discovery.o
                0x0800cf08                STM_EVAL_LEDInit
                0x0800cf7c                STM_EVAL_LEDOn
                0x0800cfac                STM_EVAL_LEDOff
                0x0800cfdc                STM_EVAL_LEDToggle
                0x0800d020                STM_EVAL_PBInit
                0x0800d128                STM_EVAL_PBGetState
 .text          0x0800d164       0x68 obj\.\src\stm32f4xx_it.o
                0x0800d164                NMI_Handler
                0x0800d168                HardFault_Handler
                0x0800d16c                MemManage_Handler
                0x0800d170                BusFault_Handler
                0x0800d174                UsageFault_Handler
                0x0800d178                SVC_Handler
                0x0800d17c                DebugMon_Handler
                0x0800d180                PendSV_Handler
                0x0800d184                SysTick_Handler
                0x0800d188                EXTI1_IRQHandler
                0x0800d1b4                TIM2_IRQHandler
                0x0800d1bc                OTG_FS_IRQHandler
 .text          0x0800d1cc      0x404 obj\.\src\system_stm32f4xx.o
                0x0800d1cc                SystemInit
                0x0800d294                SystemCoreClockUpdate
 .text          0x0800d5d0      0xd98 obj\.\src\touch_pad.o
                0x0800d5d0                touch_init
                0x0800d754                touch_interrupt_init
                0x0800d964                Read_X
                0x0800d9b0                Read_Y
                0x0800d9fc                TP_GetAdXY
                0x0800da2c                Read_Ads7846
                0x0800dd34                Draw_Touch_Point
                0x0800de4c                GetTouchPoint
                0x0800e2c8                EXTI9_5_IRQHandler
                0x0800e364                TouchPanel_Calibrate
 .text          0x0800e368      0x360 obj\.\src\uart.o
                0x0800e368                uart_init
                0x0800e568                uart_deinit
                0x0800e580                uart_putc
                0x0800e5bc                USART2_IRQHandler
                0x0800e5f4                uart_addRxCharacter
 .text          0x0800e6c8      0x3b0 obj\.\src\usb_bsp.o
                0x0800e6c8                BSP_Init
                0x0800e6d8                USB_OTG_BSP_Init
                0x0800e7c0                USB_OTG_BSP_EnableInterrupt
                0x0800e824                USB_OTG_BSP_DriveVBUS
                0x0800e860                USB_OTG_BSP_ConfigVBUS
                0x0800e914                USB_OTG_BSP_uDelay
                0x0800e928                USB_OTG_BSP_mDelay
                0x0800e93c                USB_OTG_BSP_TimerIRQ
 .text          0x0800ea78      0x174 obj\.\src\usbh_usr.o
                0x0800ea78                USB_debugEvent
                0x0800ea98                USBH_USR_Init
                0x0800eaa4                USBH_USR_DeviceAttached
                0x0800eab0                USBH_USR_UnrecoveredError
                0x0800eabc                USBH_USR_DeviceDisconnected
                0x0800eac8                USBH_USR_ResetDevice
                0x0800ead4                USBH_USR_DeviceSpeedDetected
                0x0800eaec                USBH_USR_Device_DescAvailable
                0x0800eb00                USBH_USR_DeviceAddressAssigned
                0x0800eb0c                USBH_USR_Configuration_DescAvailable
                0x0800eb24                USBH_USR_Manufacturer_String
                0x0800eb38                USBH_USR_Product_String
                0x0800eb4c                USBH_USR_SerialNum_String
                0x0800eb60                USBH_USR_EnumerationDone
                0x0800eb6c                USBH_USR_DeviceNotSupported
                0x0800eb78                USBH_USR_UserInput
                0x0800eba0                USBH_USR_OverCurrentDetected
                0x0800ebac                USR_KEYBRD_Init
                0x0800ebb8                USR_KEYBRD_ProcessData
                0x0800ebe0                USBH_USR_DeInit
 .text          0x0800ebec      0x664 obj\.\src\xprintf.o
                0x0800ebec                xputc
                0x0800ec58                xputs
                0x0800ec80                xfputs
                0x0800f098                xprintf
                0x0800f0b4                xsprintf
                0x0800f0fc                xfprintf
                0x0800f140                put_dump
 .text          0x0800f250      0x1d4 obj\.\externals\SM32F4-Discovery\USB\src\misc.o
                0x0800f250                NVIC_PriorityGroupConfig
                0x0800f26c                NVIC_Init
                0x0800f368                NVIC_SetVectorTable
                0x0800f38c                NVIC_SystemLPConfig
                0x0800f3e4                SysTick_CLKSourceConfig
 .text          0x0800f424     0x1260 obj\.\externals\SM32F4-Discovery\USB\src\usb_core.o
                0x0800f504                USB_OTG_WritePacket
                0x0800f58c                USB_OTG_ReadPacket
                0x0800f5ec                USB_OTG_SelectCore
                0x0800f7a0                USB_OTG_CoreInit
                0x0800f8ec                USB_OTG_EnableGlobalInt
                0x0800f924                USB_OTG_DisableGlobalInt
                0x0800f960                USB_OTG_FlushTxFifo
                0x0800f9dc                USB_OTG_FlushRxFifo
                0x0800fa44                USB_OTG_SetCurrentMode
                0x0800faac                USB_OTG_GetMode
                0x0800fac0                USB_OTG_IsDeviceMode
                0x0800fae0                USB_OTG_IsHostMode
                0x0800fb00                USB_OTG_ReadCoreItr
                0x0800fb28                USB_OTG_ReadOtgItr
                0x0800fb38                USB_OTG_CoreInitHost
                0x0800fc74                USB_OTG_IsEvenFrame
                0x0800fc94                USB_OTG_DriveVbus
                0x0800fd18                USB_OTG_EnableHostInt
                0x0800fda4                USB_OTG_InitFSLSPClkSel
                0x0800fdd4                USB_OTG_ReadHPRT0
                0x0800fe0c                USB_OTG_ReadHostAllChannels_intr
                0x0800fe1c                USB_OTG_ResetPort
                0x0800fe6c                USB_OTG_HC_Init
                0x08010160                USB_OTG_HC_StartXfer
                0x080104bc                USB_OTG_HC_Halt
                0x08010570                USB_OTG_HC_DoPing
                0x080105f8                USB_OTG_StopHost
 .text          0x08010684      0x1dc obj\.\externals\SM32F4-Discovery\USB\src\usb_hcd.o
                0x08010684                HCD_Init
                0x0801073c                HCD_GetCurrentSpeed
                0x08010758                HCD_ResetPort
                0x08010770                HCD_IsDeviceConnected
                0x08010780                HCD_GetCurrentFrame
                0x08010798                HCD_GetURB_State
                0x080107b8                HCD_GetXferCnt
                0x080107d8                HCD_GetHCState
                0x080107f8                HCD_HC_Init
                0x08010818                HCD_SubmitRequest
 .text          0x08010860     0x14f8 obj\.\externals\SM32F4-Discovery\USB\src\usb_hcd_int.o
                0x08010860                USBH_OTG_ISR_Handler
 .text          0x08011d58      0xb28 obj\.\externals\SM32F4-Discovery\USB\src\usbh_core.o
                0x08011d58                USBH_Connected
                0x08011d70                USBH_Disconnected
                0x08011d88                USBH_SOF
                0x08011d98                USBH_Init
                0x08011dec                USBH_DeInit
                0x08011e5c                USBH_Process
                0x08012128                USBH_ErrorHandle
                0x080124a4                USBH_HandleControl
 .text          0x08012880      0x31c obj\.\externals\SM32F4-Discovery\USB\src\usbh_hcs.o
                0x08012880                USBH_Open_Channel
                0x080129a8                USBH_Modify_Channel
                0x08012a60                USBH_Alloc_Channel
                0x08012ab4                USBH_Free_Channel
                0x08012b00                USBH_DeAllocate_AllChannel
 .text          0x08012b9c      0x810 obj\.\externals\SM32F4-Discovery\USB\src\usbh_hid_core.o
                0x08013274                USBH_Set_Report
 .text          0x080133ac      0x2dc obj\.\externals\SM32F4-Discovery\USB\src\usbh_hid_keybd.o
 .text          0x08013688      0x6f0 obj\.\externals\SM32F4-Discovery\USB\src\usbh_ioreq.o
                0x08013688                USBH_CtlReq
                0x08013730                USBH_CtlSendSetup
                0x080137b4                USBH_CtlSendData
                0x08013888                USBH_CtlReceiveData
                0x0801390c                USBH_BulkSendData
                0x080139c4                USBH_BulkReceiveData
                0x08013a7c                USBH_InterruptReceiveData
                0x08013b5c                USBH_InterruptSendData
                0x08013c78                USBH_IsocReceiveData
                0x08013cf8                USBH_IsocSendData
 .text          0x08013d78      0x794 obj\.\externals\SM32F4-Discovery\USB\src\usbh_stdreq.o
                0x08013d78                USBH_Get_DevDesc
                0x08013ddc                USBH_Get_CfgDesc
                0x08013e80                USBH_Get_StringDesc
                0x08013ee4                USBH_GetDescriptor
                0x08013f50                USBH_SetAddress
                0x08013fa0                USBH_SetCfg
                0x08013ff0                USBH_SetInterface
                0x08014044                USBH_ClrFeature
                0x080144e4                USBH_GetNextDesc
 .text          0x0801450c        0x0 obj\.\externals\SM32F4-Discovery\STEmbeddedGUI\src\JoyHal.o
 .text          0x0801450c     0x12d8 obj\.\externals\SM32F4-Discovery\STEmbeddedGUI\src\LcdDriver_ILI9320.o
                0x0801450c                __assert_func
                0x08014528                LCD_Init
                0x08014c44                LCD_BackLight
                0x08014de0                LCD_WriteRAMWord
                0x08014dfc                LCD_DrawColorBMP
                0x08014e10                LCD_WriteReg
                0x08014e3c                LCD_WriteRAM_Prepare
                0x08014e48                LCD_WriteRAM_PrepareDir
                0x08014ed8                LCD_WriteRAM
                0x08014efc                LCD_ReadReg
                0x08014f44                LCD_ReadRAM
                0x08014f54                LCD_SetDisplayWindow
                0x08015058                LCD_ResetDisplayWindow
                0x08015070                LCD_SetCursor
                0x080150a8                LCD_DisplayOn
                0x080150b8                LCD_DisplayOff
                0x080150c8                LCD_PutPixel
                0x08015100                LCD_GetPixel
                0x08015118                LCD_DrawBMP16Bit
                0x080151ac                LCD_DrawBMP1Bit
                0x080152d8                LCD_DrawBMP1BitTransparent
                0x080153ec                LCD_SetTextColor
                0x08015408                LCD_SetBackColor
                0x08015424                LCD_Clear
                0x08015488                LCD_DrawLine
                0x080154f0                LCD_DrawRect
                0x08015594                LCD_TestDisplayScreen
 .text          0x080157e4      0x6e0 obj\.\externals\SM32F4-Discovery\STEmbeddedGUI\src\LcdHal.o
                0x080157e4                NewLcdHwParamObj
                0x080157f0                GL_SetTextColor
                0x08015820                GL_SetBackColor
                0x08015850                GL_Clear
                0x08015868                GL_DisplayAdjStringLine
                0x08015898                GL_SetDisplayWindow
                0x080158c4                GL_DrawLine
                0x080158f0                GL_LCD_DrawRect
                0x08015920                GL_LCD_DrawCircle
                0x08015b3c                GL_BackLightSwitch
                0x08015b64                GL_LCD_Init
                0x08015b68                GL_LCD_WindowModeDisable
                0x08015b80                GL_LCD_CtrlLinesWrite
                0x08015b94                GL_SetFont
                0x08015c64                GL_GetFontLetterWidth
                0x08015c74                GL_GetFontLetterHeight
                0x08015c84                GL_PrintString
                0x08015cf0                GL_PrintChar
                0x08015dd0                GL_TestDisplayScreen
 .text          0x08015ec4      0x364 obj\.\externals\SM32F4-Discovery\STEmbeddedGUI\src\TscHal.o
                0x08015ec4                NewTscHwParamObj
                0x08015ed0                GL_GPIO_Init
                0x08015efc                GL_SPI_Init
                0x08015f5c                GL_NVIC_SetVectorTable
                0x08015f70                GL_NVIC_Init
                0x08015fa4                GL_NVIC_PriorityGroupConfig
                0x08015fb4                GL_NVIC_SystemHandlerPriorityConfig
                0x08015fc8                GL_EXTI_Init
                0x08015ff8                GL_GPIO_EXTILineConfig
                0x0801601c                GL_EXTI_DeInit
                0x08016024                GL_NVIC_DeInit
                0x08016028                GL_EXTI_TSC_IRQHandler
                0x0801602c                TSC_Init
                0x08016030                GL_TSC_Interface_Init
                0x08016038                TSC_NVIC_Configuration
                0x08016070                TSC_EXTI_Configuration
                0x080160c8                TSC_InterruptConfig
                0x0801614c                GL_RCC_APBPeriphClockCmd
                0x08016184                GL_RCC_AHBPeriphClockCmd
                0x08016194                TSC_WriteDataToNVM
                0x080161b0                TSC_FLASH_Unlock
                0x080161b8                TSC_FLASH_ClearFlag
                0x080161c8                TSC_FLASH_ErasePage
                0x080161e0                TSC_FLASH_ProgramWord
                0x080161f8                Set_LastFlashMemoryAddress
                0x08016224                TSC_Read
 .text          0x08016228       0x68 obj\.\externals\SM32F4-Discovery\STEmbeddedGUI\src\cursor.o
                0x08016228                CursorStepMove
                0x08016234                CursorPosition
                0x08016248                CursorReadJoystick
                0x08016254                CursorInit
                0x08016264                CursorShow
                0x08016278                CursorDraw
 .text          0x08016290        0x0 obj\.\externals\SM32F4-Discovery\STEmbeddedGUI\src\gl_fonts.o
 .text          0x08016290     0x6688 obj\.\externals\SM32F4-Discovery\STEmbeddedGUI\src\graphicObject.o
                0x08016444                GL_DrawFilledCircle
                0x0801685c                GL_Cross
                0x0801690c                GL_DrawButtonBMP
                0x080169c8                NewLabel
                0x08016a70                NewButton
                0x08016b10                NewCheckbox
                0x08016bb0                NewRadioButtonGrp
                0x08016be8                AddRadioOption
                0x08016cb0                NewComboBoxGrp
                0x08016d1c                AddComboOption
                0x08016db4                NewSwitch
                0x08016e68                NewIcon
                0x08016efc                NewSlidebar
                0x08016fe0                NewHistogram
                0x080170d4                NewGraphChart
                0x080171d0                AddPageControlObj
                0x080175c0                Set_Label
                0x08017650                Get_Label
                0x080176d8                Get_SlidebarValue
                0x080179bc                Create_PageObj
                0x08017a94                DestroyPageControl
                0x08018440                DestroyPage
                0x0801ae18                SetGraphChartPoints
                0x0801aef0                SetHistogramPoints
                0x0801b23c                GetObjStatus
                0x0801b348                GetComboOptionActive
                0x0801b3f0                ResetComboOptionActive
                0x0801b4a4                GetComboOptionLabel
                0x0801b550                SetComboOptionLabel
                0x0801b618                SetIconImage
                0x0801bb70                ShowPage
                0x0801bc60                RefreshPage
                0x0801bc80                RefreshPageControl
                0x0801bd0c                ChangePage
                0x0801c28c                ProcessInputData
                0x0801c5e8                NullFunc
                0x0801c718                CompareCoordinates
                0x0801c7b8                CompareJoyCoordinates
                0x0801c854                TimeOutCalculate
                0x0801c8cc                GL_Delay
                0x0801c8f0                TimingDelay_Decrement
 .text          0x0801c918        0x4 obj\.\externals\SM32F4-Discovery\STEmbeddedGUI\src\hw_config.o
                0x0801c918                HWConfig_SetHardwareParams
 .text          0x0801c91c        0x0 obj\.\externals\SM32F4-Discovery\STEmbeddedGUI\src\images.o
 .text          0x0801c91c      0x154 obj\.\externals\SM32F4-Discovery\STEmbeddedGUI\src\main_GUI.o
                0x0801c9d0                main_GUI
                0x0801ca60                CatchInputEvents
                0x0801ca6c                InputInterface_Init
 .text          0x0801ca70        0x0 obj\.\externals\SM32F4-Discovery\STEmbeddedGUI\src\pictures.o
 .text          0x0801ca70        0x0 obj\.\externals\SM32F4-Discovery\STEmbeddedGUI\src\smile_image.o
 .text          0x0801ca70     0x1a20 obj\.\externals\SM32F4-Discovery\STEmbeddedGUI\src\touchscreen.o
                0x0801ca70                TS_Calibration
                0x0801e27c                TS_CheckCalibration
                0x0801e350                getDisplayCoordinateX
                0x0801e3e0                getDisplayCoordinateY
                0x0801e470                TS_IsCalibrationDone
 .text          0x0801e490       0x70 obj\.\externals\SM32F4-Discovery\STEmbeddedGUI\src\uiappuser.o
                0x0801e490                LedControlExample_Start_button_Click
                0x0801e498                LedCtrlScreen_Led1_Switch_Toggle
                0x0801e49c                LedCtrlScreen_Led2_Switch_Toggle
                0x0801e4a0                LedCtrlScreen_Led3_Switch_Toggle
                0x0801e4a4                LedCtrlScreen_Led4_Switch_Toggle
                0x0801e4a8                LedCtrlScreen_Back_Button_Click
                0x0801e4b0                _sbrk
 .text          0x0801e500      0x24c obj\.\externals\SM32F4-Discovery\STEmbeddedGUI\src\uiframework.o
                0x0801e500                Create_LedControlExample
                0x0801e628                Create_LedCtrlScreen
                0x0801e62c                Show_LedControlExample
                0x0801e698                Show_LedCtrlScreen
                0x0801e704                Show_HomeScreen
 .text          0x0801e74c      0x330 .\externals\libs\libstm32f4xx_peripherals.a(stm32f4xx_dma.o)
                0x0801e74c                DMA_DeInit
                0x0801e864                DMA_Init
                0x0801e8b8                DMA_StructInit
                0x0801e8da                DMA_Cmd
                0x0801e8ec                DMA_PeriphIncOffsetSizeConfig
                0x0801e8fe                DMA_FlowControllerConfig
                0x0801e910                DMA_SetCurrDataCounter
                0x0801e914                DMA_GetCurrDataCounter
                0x0801e91a                DMA_DoubleBufferModeConfig
                0x0801e92e                DMA_DoubleBufferModeCmd
                0x0801e940                DMA_MemoryTargetConfig
                0x0801e94a                DMA_GetCurrentMemoryTarget
                0x0801e952                DMA_GetCmdStatus
                0x0801e95a                DMA_GetFIFOStatus
                0x0801e962                DMA_GetFlagStatus
                0x0801e998                DMA_ClearFlag
                0x0801e9c8                DMA_ITConfig
                0x0801e9f6                DMA_GetITStatus
                0x0801ea4c                DMA_ClearITPendingBit
 .text          0x0801ea7c       0xf8 .\externals\libs\libstm32f4xx_peripherals.a(stm32f4xx_exti.o)
                0x0801ea7c                EXTI_DeInit
                0x0801ea98                EXTI_Init
                0x0801eb10                EXTI_StructInit
                0x0801eb1e                EXTI_GenerateSWInterrupt
                0x0801eb2c                EXTI_GetFlagStatus
                0x0801eb40                EXTI_ClearFlag
                0x0801eb4c                EXTI_GetITStatus
                0x0801eb68                EXTI_ClearITPendingBit
 .text          0x0801eb74      0x3e0 .\externals\libs\libstm32f4xx_peripherals.a(stm32f4xx_flash.o)
                0x0801eb74                FLASH_SetLatency
                0x0801eb80                FLASH_PrefetchBufferCmd
                0x0801eb98                FLASH_InstructionCacheCmd
                0x0801ebb0                FLASH_DataCacheCmd
                0x0801ebc8                FLASH_InstructionCacheReset
                0x0801ebd8                FLASH_DataCacheReset
                0x0801ebe8                FLASH_Unlock
                0x0801ec04                FLASH_Lock
                0x0801ec14                FLASH_OB_Unlock
                0x0801ec30                FLASH_OB_Lock
                0x0801ec40                FLASH_OB_BORConfig
                0x0801ec58                FLASH_OB_GetUser
                0x0801ec68                FLASH_OB_GetWRP
                0x0801ec74                FLASH_OB_GetRDP
                0x0801ec84                FLASH_OB_GetBOR
                0x0801ec94                FLASH_ITConfig
                0x0801ecac                FLASH_GetFlagStatus
                0x0801ecc0                FLASH_ClearFlag
                0x0801eccc                FLASH_GetStatus
                0x0801ed00                FLASH_WaitForLastOperation
                0x0801ed1e                FLASH_OB_Launch
                0x0801ed30                FLASH_OB_UserConfig
                0x0801ed58                FLASH_OB_RDPConfig
                0x0801ed70                FLASH_OB_WRPConfig
                0x0801ed9c                FLASH_ProgramByte
                0x0801edd4                FLASH_ProgramHalfWord
                0x0801ee10                FLASH_ProgramWord
                0x0801ee4c                FLASH_ProgramDoubleWord
                0x0801ee8c                FLASH_EraseAllSectors
                0x0801eee8                FLASH_EraseSector
 .text          0x0801ef54      0x464 .\externals\libs\libstm32f4xx_peripherals.a(stm32f4xx_fsmc.o)
                0x0801ef54                FSMC_NORSRAMDeInit
                0x0801ef82                FSMC_NORSRAMInit
                0x0801f034                FSMC_NORSRAMStructInit
                0x0801f082                FSMC_NORSRAMCmd
                0x0801f0a4                FSMC_NANDDeInit
                0x0801f0cc                FSMC_NANDInit
                0x0801f134                FSMC_NANDStructInit
                0x0801f15e                FSMC_NANDCmd
                0x0801f190                FSMC_NANDECCCmd
                0x0801f1c4                FSMC_GetECC
                0x0801f1dc                FSMC_PCCARDDeInit
                0x0801f1f8                FSMC_PCCARDInit
                0x0801f260                FSMC_PCCARDStructInit
                0x0801f28a                FSMC_PCCARDCmd
                0x0801f2a8                FSMC_ITConfig
                0x0801f2f4                FSMC_GetFlagStatus
                0x0801f320                FSMC_ClearFlag
                0x0801f350                FSMC_GetITStatus
                0x0801f384                FSMC_ClearITPendingBit
 .text          0x0801f3b8      0x204 .\externals\libs\libstm32f4xx_peripherals.a(stm32f4xx_gpio.o)
                0x0801f3b8                GPIO_DeInit
                0x0801f490                GPIO_Init
                0x0801f518                GPIO_StructInit
                0x0801f52a                GPIO_PinLockConfig
                0x0801f54e                GPIO_ReadInputDataBit
                0x0801f55a                GPIO_ReadInputData
                0x0801f560                GPIO_ReadOutputDataBit
                0x0801f56c                GPIO_ReadOutputData
                0x0801f572                GPIO_SetBits
                0x0801f576                GPIO_ResetBits
                0x0801f57a                GPIO_WriteBit
                0x0801f584                GPIO_Write
                0x0801f588                GPIO_ToggleBits
                0x0801f590                GPIO_PinAFConfig
 .text          0x0801f5bc      0x3d4 .\externals\libs\libstm32f4xx_peripherals.a(stm32f4xx_i2c.o)
                0x0801f5bc                I2C_DeInit
                0x0801f618                I2C_Init
                0x0801f6e4                I2C_StructInit
                0x0801f700                I2C_Cmd
                0x0801f718                I2C_GenerateSTART
                0x0801f730                I2C_GenerateSTOP
                0x0801f748                I2C_Send7bitAddress
                0x0801f758                I2C_AcknowledgeConfig
                0x0801f770                I2C_OwnAddress2Config
                0x0801f782                I2C_DualAddressCmd
                0x0801f79a                I2C_GeneralCallCmd
                0x0801f7b2                I2C_SoftwareResetCmd
                0x0801f7ca                I2C_StretchClockCmd
                0x0801f7e2                I2C_FastModeDutyCycleConfig
                0x0801f7fe                I2C_NACKPositionConfig
                0x0801f81a                I2C_SMBusAlertConfig
                0x0801f836                I2C_ARPCmd
                0x0801f84e                I2C_SendData
                0x0801f852                I2C_ReceiveData
                0x0801f858                I2C_TransmitPEC
                0x0801f870                I2C_PECPositionConfig
                0x0801f88c                I2C_CalculatePEC
                0x0801f8a4                I2C_GetPEC
                0x0801f8ac                I2C_DMACmd
                0x0801f8c4                I2C_DMALastTransferCmd
                0x0801f8dc                I2C_ReadRegister
                0x0801f8f4                I2C_ITConfig
                0x0801f906                I2C_CheckEvent
                0x0801f920                I2C_GetLastEvent
                0x0801f930                I2C_GetFlagStatus
                0x0801f964                I2C_ClearFlag
                0x0801f96c                I2C_GetITStatus
                0x0801f988                I2C_ClearITPendingBit
 .text          0x0801f990      0x454 .\externals\libs\libstm32f4xx_peripherals.a(stm32f4xx_rcc.o)
                0x0801f990                RCC_DeInit
                0x0801f9c4                RCC_HSEConfig
                0x0801f9d4                RCC_AdjustHSICalibrationValue
                0x0801f9e8                RCC_HSICmd
                0x0801f9f4                RCC_LSEConfig
                0x0801fa14                RCC_LSICmd
                0x0801fa20                RCC_PLLConfig
                0x0801fa40                RCC_PLLCmd
                0x0801fa4c                RCC_PLLI2SConfig
                0x0801fa60                RCC_PLLI2SCmd
                0x0801fa6c                RCC_ClockSecuritySystemCmd
                0x0801fa78                RCC_MCO1Config
                0x0801fa8c                RCC_MCO2Config
                0x0801faa0                RCC_SYSCLKConfig
                0x0801fab4                RCC_GetSYSCLKSource
                0x0801fac4                RCC_HCLKConfig
                0x0801fad8                RCC_PCLK1Config
                0x0801faec                RCC_PCLK2Config
                0x0801fb00                RCC_GetClocksFreq
                0x0801fb8c                RCC_RTCCLKConfig
                0x0801fbbc                RCC_RTCCLKCmd
                0x0801fbc8                RCC_BackupResetCmd
                0x0801fbd4                RCC_I2SCLKConfig
                0x0801fbe0                RCC_AHB1PeriphClockCmd
                0x0801fbf8                RCC_AHB2PeriphClockCmd
                0x0801fc10                RCC_AHB3PeriphClockCmd
                0x0801fc28                RCC_APB1PeriphClockCmd
                0x0801fc40                RCC_APB2PeriphClockCmd
                0x0801fc58                RCC_AHB1PeriphResetCmd
                0x0801fc70                RCC_AHB2PeriphResetCmd
                0x0801fc88                RCC_AHB3PeriphResetCmd
                0x0801fca0                RCC_APB1PeriphResetCmd
                0x0801fcb8                RCC_APB2PeriphResetCmd
                0x0801fcd0                RCC_AHB1PeriphClockLPModeCmd
                0x0801fce8                RCC_AHB2PeriphClockLPModeCmd
                0x0801fd00                RCC_AHB3PeriphClockLPModeCmd
                0x0801fd18                RCC_APB1PeriphClockLPModeCmd
                0x0801fd30                RCC_APB2PeriphClockLPModeCmd
                0x0801fd48                RCC_ITConfig
                0x0801fd60                RCC_GetFlagStatus
                0x0801fd88                RCC_WaitForHSEStartUp
                0x0801fdb4                RCC_ClearFlag
                0x0801fdc4                RCC_GetITStatus
                0x0801fdd8                RCC_ClearITPendingBit
 .text          0x0801fde4      0x354 .\externals\libs\libstm32f4xx_peripherals.a(stm32f4xx_spi.o)
                0x0801fde4                SPI_I2S_DeInit
                0x0801fe48                SPI_Init
                0x0801fe86                I2S_Init
                0x0801ff54                SPI_StructInit
                0x0801ff6c                I2S_StructInit
                0x0801ff7e                SPI_Cmd
                0x0801ff96                I2S_Cmd
                0x0801ffae                SPI_DataSizeConfig
                0x0801ffc4                SPI_BiDirectionalLineConfig
                0x0801ffe0                SPI_NSSInternalSoftwareConfig
                0x0801fffe                SPI_SSOutputCmd
                0x08020016                SPI_TIModeCmd
                0x0802002e                I2S_FullDuplexConfig
                0x08020078                SPI_I2S_ReceiveData
                0x0802007e                SPI_I2S_SendData
                0x08020082                SPI_CalculateCRC
                0x0802009a                SPI_TransmitCRC
                0x080200a6                SPI_GetCRC
                0x080200b6                SPI_GetCRCPolynomial
                0x080200bc                SPI_I2S_DMACmd
                0x080200ce                SPI_I2S_ITConfig
                0x080200ec                SPI_I2S_GetFlagStatus
                0x080200f8                SPI_I2S_ClearFlag
                0x08020100                SPI_I2S_GetITStatus
                0x08020126                SPI_I2S_ClearITPendingBit
 .text          0x08020138       0x80 .\externals\libs\libstm32f4xx_peripherals.a(stm32f4xx_syscfg.o)
                0x08020138                SYSCFG_DeInit
                0x08020152                SYSCFG_MemoryRemapConfig
                0x0802015c                SYSCFG_EXTILineConfig
                0x08020190                SYSCFG_ETH_MediaInterfaceConfig
                0x0802019c                SYSCFG_CompensationCellCmd
                0x080201a8                SYSCFG_GetCompensationCellStatus
 .text          0x080201b8      0xb0c .\externals\libs\libstm32f4xx_peripherals.a(stm32f4xx_tim.o)
                0x08020224                TIM_DeInit
                0x08020378                TIM_TimeBaseInit
                0x080203f4                TIM_TimeBaseStructInit
                0x08020406                TIM_PrescalerConfig
                0x0802040c                TIM_CounterModeConfig
                0x0802041c                TIM_SetCounter
                0x08020420                TIM_SetAutoreload
                0x08020424                TIM_GetCounter
                0x08020428                TIM_GetPrescaler
                0x0802042e                TIM_UpdateDisableConfig
                0x08020446                TIM_UpdateRequestConfig
                0x0802045e                TIM_ARRPreloadConfig
                0x08020476                TIM_SelectOnePulseMode
                0x0802048c                TIM_SetClockDivision
                0x080204a2                TIM_Cmd
                0x080204ba                TIM_OC1Init
                0x0802052c                TIM_OC2Init
                0x080205b4                TIM_OC3Init
                0x08020638                TIM_OC4Init
                0x080206a0                TIM_OCStructInit
                0x080206b4                TIM_SelectOCxM
                0x080206fa                TIM_SetCompare1
                0x080206fe                TIM_SetCompare2
                0x08020702                TIM_SetCompare3
                0x08020706                TIM_SetCompare4
                0x0802070a                TIM_ForcedOC1Config
                0x0802071a                TIM_ForcedOC2Config
                0x0802072e                TIM_ForcedOC3Config
                0x0802073e                TIM_ForcedOC4Config
                0x08020752                TIM_OC1PreloadConfig
                0x08020762                TIM_OC2PreloadConfig
                0x08020776                TIM_OC3PreloadConfig
                0x08020786                TIM_OC4PreloadConfig
                0x0802079a                TIM_OC1FastConfig
                0x080207aa                TIM_OC2FastConfig
                0x080207be                TIM_OC3FastConfig
                0x080207ce                TIM_OC4FastConfig
                0x080207e2                TIM_ClearOC1Ref
                0x080207f2                TIM_ClearOC2Ref
                0x08020802                TIM_ClearOC3Ref
                0x08020812                TIM_ClearOC4Ref
                0x08020822                TIM_OC1PolarityConfig
                0x08020832                TIM_OC1NPolarityConfig
                0x08020842                TIM_OC2PolarityConfig
                0x08020856                TIM_OC2NPolarityConfig
                0x0802086a                TIM_OC3PolarityConfig
                0x0802087e                TIM_OC3NPolarityConfig
                0x08020892                TIM_OC4PolarityConfig
                0x080208a6                TIM_CCxCmd
                0x080208c4                TIM_CCxNCmd
                0x080208e2                TIM_ICStructInit
                0x080208f2                TIM_GetCapture1
                0x080208f6                TIM_GetCapture2
                0x080208fa                TIM_GetCapture3
                0x080208fe                TIM_GetCapture4
                0x08020902                TIM_SetIC1Prescaler
                0x08020918                TIM_SetIC2Prescaler
                0x08020932                TIM_PWMIConfig
                0x0802099c                TIM_SetIC3Prescaler
                0x080209b2                TIM_SetIC4Prescaler
                0x080209cc                TIM_ICInit
                0x08020a82                TIM_BDTRConfig
                0x08020aa4                TIM_BDTRStructInit
                0x08020ab6                TIM_CtrlPWMOutputs
                0x08020ad2                TIM_SelectCOM
                0x08020aea                TIM_CCPreloadControl
                0x08020b02                TIM_ITConfig
                0x08020b14                TIM_GenerateEvent
                0x08020b18                TIM_GetFlagStatus
                0x08020b24                TIM_ClearFlag
                0x08020b2c                TIM_GetITStatus
                0x08020b42                TIM_ClearITPendingBit
                0x08020b4a                TIM_DMAConfig
                0x08020b52                TIM_DMACmd
                0x08020b64                TIM_SelectCCDMA
                0x08020b7c                TIM_InternalClockConfig
                0x08020b8a                TIM_ITRxExternalClockConfig
                0x08020ba4                TIM_TIxExternalClockConfig
                0x08020bd6                TIM_SelectInputTrigger
                0x08020be6                TIM_SelectOutputTrigger
                0x08020bfc                TIM_SelectSlaveMode
                0x08020c12                TIM_SelectMasterSlaveMode
                0x08020c28                TIM_ETRConfig
                0x08020c3c                TIM_ETRClockMode2Config
                0x08020c50                TIM_ETRClockMode1Config
                0x08020c6a                TIM_EncoderInterfaceConfig
                0x08020ca6                TIM_SelectHallSensor
                0x08020cbe                TIM_RemapConfig
 .text          0x08020cc4      0x3b8 .\externals\libs\libstm32f4xx_peripherals.a(stm32f4xx_usart.o)
                0x08020cc4                USART_DeInit
                0x08020d6c                USART_Init
                0x08020e24                USART_StructInit
                0x08020e3a                USART_ClockInit
                0x08020e5a                USART_ClockStructInit
                0x08020e66                USART_Cmd
                0x08020e7e                USART_SetPrescaler
                0x08020e90                USART_OverSampling8Cmd
                0x08020ea8                USART_OneBitMethodCmd
                0x08020ec0                USART_SendData
                0x08020ec8                USART_ReceiveData
                0x08020ed0                USART_SetAddress
                0x08020ee6                USART_ReceiverWakeUpCmd
                0x08020efe                USART_WakeUpConfig
                0x08020f14                USART_LINBreakDetectLengthConfig
                0x08020f2a                USART_LINCmd
                0x08020f42                USART_SendBreak
                0x08020f4e                USART_HalfDuplexCmd
                0x08020f66                USART_SetGuardTime
                0x08020f78                USART_SmartCardCmd
                0x08020f90                USART_SmartCardNACKCmd
                0x08020fa8                USART_IrDAConfig
                0x08020fbe                USART_IrDACmd
                0x08020fd6                USART_DMACmd
                0x08020fe8                USART_ITConfig
                0x0802101a                USART_GetFlagStatus
                0x08021026                USART_ClearFlag
                0x0802102e                USART_GetITStatus
                0x0802106c                USART_ClearITPendingBit
 .text          0x0802107c       0xdc .\externals\libs\libstm32f4xx_math.a(arm_cmplx_mag_squared_q15.o)
                0x0802107c                arm_cmplx_mag_squared_q15
 .text          0x08021158      0x100 .\externals\libs\libstm32f4xx_math.a(arm_shift_q15.o)
                0x08021158                arm_shift_q15
 .text          0x08021258      0x164 .\externals\libs\libstm32f4xx_math.a(arm_fir_decimate_q15.o)
                0x08021258                arm_fir_decimate_q15
 .text          0x080213bc      0x376 .\externals\libs\libstm32f4xx_math.a(arm_fir_q15.o)
                0x080213bc                arm_fir_q15
 .text          0x08021732      0x7be .\externals\libs\libstm32f4xx_math.a(arm_cfft_radix4_q15.o)
                0x08021732                arm_radix4_butterfly_q15
                0x08021ac6                arm_radix4_butterfly_inverse_q15
                0x08021e5a                arm_bitreversal_q15
                0x08021ebc                arm_cfft_radix4_q15
 .text          0x08021ef0       0x6c .\externals\libs\libstm32f4xx_math.a(arm_cfft_radix4_init_q15.o)
                0x08021ef0                arm_cfft_radix4_init_q15
 .text          0x08021f5c        0x0 .\externals\libs\libstm32f4xx_math.a(arm_common_tables.o)
 .text          0x08021f5c        0x0 d:/program files (x86)/gnu tools arm embedded/4.6 2012q4/bin/../lib/gcc/arm-none-eabi/4.6.2/../../../../arm-none-eabi/lib/armv7e-m/fpu\libm.a(lib_a-w_atan2.o)
 .text          0x08021f5c        0x0 d:/program files (x86)/gnu tools arm embedded/4.6 2012q4/bin/../lib/gcc/arm-none-eabi/4.6.2/../../../../arm-none-eabi/lib/armv7e-m/fpu\libm.a(lib_a-w_fmod.o)
 .text          0x08021f5c        0x0 d:/program files (x86)/gnu tools arm embedded/4.6 2012q4/bin/../lib/gcc/arm-none-eabi/4.6.2/../../../../arm-none-eabi/lib/armv7e-m/fpu\libm.a(lib_a-w_sqrt.o)
 .text          0x08021f5c        0x0 d:/program files (x86)/gnu tools arm embedded/4.6 2012q4/bin/../lib/gcc/arm-none-eabi/4.6.2/../../../../arm-none-eabi/lib/armv7e-m/fpu\libm.a(lib_a-e_atan2.o)
 .text          0x08021f5c        0x0 d:/program files (x86)/gnu tools arm embedded/4.6 2012q4/bin/../lib/gcc/arm-none-eabi/4.6.2/../../../../arm-none-eabi/lib/armv7e-m/fpu\libm.a(lib_a-e_fmod.o)
 .text          0x08021f5c        0x0 d:/program files (x86)/gnu tools arm embedded/4.6 2012q4/bin/../lib/gcc/arm-none-eabi/4.6.2/../../../../arm-none-eabi/lib/armv7e-m/fpu\libm.a(lib_a-e_sqrt.o)
 .text          0x08021f5c        0x0 d:/program files (x86)/gnu tools arm embedded/4.6 2012q4/bin/../lib/gcc/arm-none-eabi/4.6.2/../../../../arm-none-eabi/lib/armv7e-m/fpu\libm.a(lib_a-s_atan.o)
 .text          0x08021f5c        0x0 d:/program files (x86)/gnu tools arm embedded/4.6 2012q4/bin/../lib/gcc/arm-none-eabi/4.6.2/../../../../arm-none-eabi/lib/armv7e-m/fpu\libm.a(lib_a-s_fabs.o)
 .text          0x08021f5c        0x0 d:/program files (x86)/gnu tools arm embedded/4.6 2012q4/bin/../lib/gcc/arm-none-eabi/4.6.2/../../../../arm-none-eabi/lib/armv7e-m/fpu\libm.a(lib_a-s_fpclassify.o)
 .text          0x08021f5c        0x0 d:/program files (x86)/gnu tools arm embedded/4.6 2012q4/bin/../lib/gcc/arm-none-eabi/4.6.2/../../../../arm-none-eabi/lib/armv7e-m/fpu\libm.a(lib_a-s_lib_ver.o)
 .text          0x08021f5c        0x0 d:/program files (x86)/gnu tools arm embedded/4.6 2012q4/bin/../lib/gcc/arm-none-eabi/4.6.2/../../../../arm-none-eabi/lib/armv7e-m/fpu\libm.a(lib_a-s_matherr.o)
 .text          0x08021f5c      0x370 d:/program files (x86)/gnu tools arm embedded/4.6 2012q4/bin/../lib/gcc/arm-none-eabi/4.6.2/armv7e-m/fpu\libgcc.a(_arm_addsubdf3.o)
                0x08021f5c                __aeabi_drsub
                0x08021f64                __aeabi_dsub
                0x08021f64                __subdf3
                0x08021f68                __aeabi_dadd
                0x08021f68                __adddf3
                0x080221e0                __floatunsidf
                0x080221e0                __aeabi_ui2d
                0x08022200                __floatsidf
                0x08022200                __aeabi_i2d
                0x08022224                __aeabi_f2d
                0x08022224                __extendsfdf2
                0x08022260                __floatundidf
                0x08022260                __aeabi_ul2d
                0x08022270                __floatdidf
                0x08022270                __aeabi_l2d
 .text          0x080222cc      0x424 d:/program files (x86)/gnu tools arm embedded/4.6 2012q4/bin/../lib/gcc/arm-none-eabi/4.6.2/armv7e-m/fpu\libgcc.a(_arm_muldivdf3.o)
                0x080222cc                __aeabi_dmul
                0x080222cc                __muldf3
                0x08022520                __divdf3
                0x08022520                __aeabi_ddiv
 .text          0x080226f0      0x110 d:/program files (x86)/gnu tools arm embedded/4.6 2012q4/bin/../lib/gcc/arm-none-eabi/4.6.2/armv7e-m/fpu\libgcc.a(_arm_cmpdf2.o)
                0x080226f0                __gtdf2
                0x080226f0                __gedf2
                0x080226f8                __ltdf2
                0x080226f8                __ledf2
                0x08022700                __nedf2
                0x08022700                __eqdf2
                0x08022700                __cmpdf2
                0x0802277c                __aeabi_cdrcmple
                0x0802278c                __aeabi_cdcmpeq
                0x0802278c                __aeabi_cdcmple
                0x0802279c                __aeabi_dcmpeq
                0x080227b0                __aeabi_dcmplt
                0x080227c4                __aeabi_dcmple
                0x080227d8                __aeabi_dcmpge
                0x080227ec                __aeabi_dcmpgt
 .text          0x08022800       0x50 d:/program files (x86)/gnu tools arm embedded/4.6 2012q4/bin/../lib/gcc/arm-none-eabi/4.6.2/armv7e-m/fpu\libgcc.a(_arm_fixdfsi.o)
                0x08022800                __aeabi_d2iz
                0x08022800                __fixdfsi
 .text          0x08022850       0x40 d:/program files (x86)/gnu tools arm embedded/4.6 2012q4/bin/../lib/gcc/arm-none-eabi/4.6.2/armv7e-m/fpu\libgcc.a(_arm_fixunsdfsi.o)
                0x08022850                __aeabi_d2uiz
                0x08022850                __fixunsdfsi
 .text          0x08022890       0xa0 d:/program files (x86)/gnu tools arm embedded/4.6 2012q4/bin/../lib/gcc/arm-none-eabi/4.6.2/armv7e-m/fpu\libgcc.a(_arm_truncdfsf2.o)
                0x08022890                __truncdfsf2
                0x08022890                __aeabi_d2f
 .text          0x08022930        0x0 d:/program files (x86)/gnu tools arm embedded/4.6 2012q4/bin/../lib/gcc/arm-none-eabi/4.6.2/../../../../arm-none-eabi/lib/armv7e-m/fpu\libc.a(lib_a-errno.o)
 .text          0x08022930        0x0 d:/program files (x86)/gnu tools arm embedded/4.6 2012q4/bin/../lib/gcc/arm-none-eabi/4.6.2/../../../../arm-none-eabi/lib/armv7e-m/fpu\libc.a(lib_a-impure.o)
 .text          0x08022930        0x0 d:/program files (x86)/gnu tools arm embedded/4.6 2012q4/bin/../lib/gcc/arm-none-eabi/4.6.2/../../../../arm-none-eabi/lib/armv7e-m/fpu\libc.a(lib_a-malloc.o)
 .text          0x08022930        0x0 d:/program files (x86)/gnu tools arm embedded/4.6 2012q4/bin/../lib/gcc/arm-none-eabi/4.6.2/../../../../arm-none-eabi/lib/armv7e-m/fpu\libc.a(lib_a-mallocr.o)
 .text          0x08022930        0x0 d:/program files (x86)/gnu tools arm embedded/4.6 2012q4/bin/../lib/gcc/arm-none-eabi/4.6.2/../../../../arm-none-eabi/lib/armv7e-m/fpu\libc.a(lib_a-memcpy.o)
 .text          0x08022930        0x0 d:/program files (x86)/gnu tools arm embedded/4.6 2012q4/bin/../lib/gcc/arm-none-eabi/4.6.2/../../../../arm-none-eabi/lib/armv7e-m/fpu\libc.a(lib_a-memset.o)
 .text          0x08022930        0x0 d:/program files (x86)/gnu tools arm embedded/4.6 2012q4/bin/../lib/gcc/arm-none-eabi/4.6.2/../../../../arm-none-eabi/lib/armv7e-m/fpu\libc.a(lib_a-mlock.o)
 .text          0x08022930        0x0 d:/program files (x86)/gnu tools arm embedded/4.6 2012q4/bin/../lib/gcc/arm-none-eabi/4.6.2/../../../../arm-none-eabi/lib/armv7e-m/fpu\libc.a(lib_a-sbrkr.o)
 .text          0x08022930        0x0 d:/program files (x86)/gnu tools arm embedded/4.6 2012q4/bin/../lib/gcc/arm-none-eabi/4.6.2/../../../../arm-none-eabi/lib/armv7e-m/fpu\libc.a(lib_a-sprintf.o)
 .text          0x08022930        0x0 d:/program files (x86)/gnu tools arm embedded/4.6 2012q4/bin/../lib/gcc/arm-none-eabi/4.6.2/../../../../arm-none-eabi/lib/armv7e-m/fpu\libc.a(lib_a-strlen.o)
 .text          0x08022930        0x0 d:/program files (x86)/gnu tools arm embedded/4.6 2012q4/bin/../lib/gcc/arm-none-eabi/4.6.2/../../../../arm-none-eabi/lib/armv7e-m/fpu\libc.a(lib_a-strncpy.o)
 .text          0x08022930        0x0 d:/program files (x86)/gnu tools arm embedded/4.6 2012q4/bin/../lib/gcc/arm-none-eabi/4.6.2/../../../../arm-none-eabi/lib/armv7e-m/fpu\libc.a(lib_a-svfprintf.o)
 .text          0x08022930        0x0 d:/program files (x86)/gnu tools arm embedded/4.6 2012q4/bin/../lib/gcc/arm-none-eabi/4.6.2/../../../../arm-none-eabi/lib/armv7e-m/fpu\libc.a(lib_a-dtoa.o)
 .text          0x08022930        0x0 d:/program files (x86)/gnu tools arm embedded/4.6 2012q4/bin/../lib/gcc/arm-none-eabi/4.6.2/../../../../arm-none-eabi/lib/armv7e-m/fpu\libc.a(lib_a-freer.o)
 .text          0x08022930        0x0 d:/program files (x86)/gnu tools arm embedded/4.6 2012q4/bin/../lib/gcc/arm-none-eabi/4.6.2/../../../../arm-none-eabi/lib/armv7e-m/fpu\libc.a(lib_a-locale.o)
 .text          0x08022930        0x0 d:/program files (x86)/gnu tools arm embedded/4.6 2012q4/bin/../lib/gcc/arm-none-eabi/4.6.2/../../../../arm-none-eabi/lib/armv7e-m/fpu\libc.a(lib_a-memchr.o)
 .text          0x08022930        0x0 d:/program files (x86)/gnu tools arm embedded/4.6 2012q4/bin/../lib/gcc/arm-none-eabi/4.6.2/../../../../arm-none-eabi/lib/armv7e-m/fpu\libc.a(lib_a-mprec.o)
 .text          0x08022930        0x0 d:/program files (x86)/gnu tools arm embedded/4.6 2012q4/bin/../lib/gcc/arm-none-eabi/4.6.2/../../../../arm-none-eabi/lib/armv7e-m/fpu\libc.a(lib_a-reent.o)
 .text          0x08022930        0x0 d:/program files (x86)/gnu tools arm embedded/4.6 2012q4/bin/../lib/gcc/arm-none-eabi/4.6.2/../../../../arm-none-eabi/lib/armv7e-m/fpu\libc.a(lib_a-strcmp.o)
 .text          0x08022930        0x0 d:/program files (x86)/gnu tools arm embedded/4.6 2012q4/bin/../lib/gcc/arm-none-eabi/4.6.2/../../../../arm-none-eabi/lib/armv7e-m/fpu\libc.a(lib_a-svfiprintf.o)
 .text          0x08022930        0x0 d:/program files (x86)/gnu tools arm embedded/4.6 2012q4/bin/../lib/gcc/arm-none-eabi/4.6.2/../../../../arm-none-eabi/lib/armv7e-m/fpu\libc.a(lib_a-callocr.o)
 .text          0x08022930        0x0 d:/program files (x86)/gnu tools arm embedded/4.6 2012q4/bin/../lib/gcc/arm-none-eabi/4.6.2/../../../../arm-none-eabi/lib/armv7e-m/fpu\libc.a(lib_a-memmove.o)
 .text          0x08022930        0x0 d:/program files (x86)/gnu tools arm embedded/4.6 2012q4/bin/../lib/gcc/arm-none-eabi/4.6.2/../../../../arm-none-eabi/lib/armv7e-m/fpu\libc.a(lib_a-reallocr.o)
 .text          0x08022930       0x2c d:/program files (x86)/gnu tools arm embedded/4.6 2012q4/bin/../lib/gcc/arm-none-eabi/4.6.2/armv7e-m/fpu\libgcc.a(_aeabi_uldivmod.o)
                0x08022930                __aeabi_uldivmod
 .text          0x0802295c       0x58 d:/program files (x86)/gnu tools arm embedded/4.6 2012q4/bin/../lib/gcc/arm-none-eabi/4.6.2/armv7e-m/fpu\libgcc.a(bpabi.o)
                0x0802295c                __gnu_ldivmod_helper
                0x08022988                __gnu_uldivmod_helper
 .text          0x080229b4        0x4 d:/program files (x86)/gnu tools arm embedded/4.6 2012q4/bin/../lib/gcc/arm-none-eabi/4.6.2/armv7e-m/fpu\libgcc.a(_dvmd_tls.o)
                0x080229b4                __aeabi_idiv0
                0x080229b4                __aeabi_ldiv0
 .text          0x080229b8      0x2c8 d:/program files (x86)/gnu tools arm embedded/4.6 2012q4/bin/../lib/gcc/arm-none-eabi/4.6.2/armv7e-m/fpu\libgcc.a(_divdi3.o)
                0x080229b8                __divdi3
 .text          0x08022c80      0x294 d:/program files (x86)/gnu tools arm embedded/4.6 2012q4/bin/../lib/gcc/arm-none-eabi/4.6.2/armv7e-m/fpu\libgcc.a(_udivdi3.o)
                0x08022c80                __udivdi3
 *(.text*)
 .text.Reset_Vector
                0x08022f14       0x44 obj\.\startup\startup_stm32f4xx.o
                0x08022f14                Reset_Vector
 .text.Default_Handler
                0x08022f58        0x2 obj\.\startup\startup_stm32f4xx.o
                0x08022f58                RTC_Alarm_IRQHandler
                0x08022f58                HASH_RNG_IRQHandler
                0x08022f58                EXTI2_IRQHandler
                0x08022f58                TIM8_CC_IRQHandler
                0x08022f58                TIM1_CC_IRQHandler
                0x08022f58                DMA2_Stream5_IRQHandler
                0x08022f58                DMA1_Stream5_IRQHandler
                0x08022f58                PVD_IRQHandler
                0x08022f58                SDIO_IRQHandler
                0x08022f58                TAMP_STAMP_IRQHandler
                0x08022f58                CAN2_RX1_IRQHandler
                0x08022f58                EXTI3_IRQHandler
                0x08022f58                TIM8_TRG_COM_TIM14_IRQHandler
                0x08022f58                TIM1_UP_TIM10_IRQHandler
                0x08022f58                TIM8_UP_TIM13_IRQHandler
                0x08022f58                I2C3_ER_IRQHandler
                0x08022f58                I2C2_EV_IRQHandler
                0x08022f58                DMA1_Stream2_IRQHandler
                0x08022f58                CAN1_RX0_IRQHandler
                0x08022f58                FPU_IRQHandler
                0x08022f58                OTG_HS_WKUP_IRQHandler
                0x08022f58                CAN2_SCE_IRQHandler
                0x08022f58                DMA2_Stream2_IRQHandler
                0x08022f58                SPI1_IRQHandler
                0x08022f58                TIM6_DAC_IRQHandler
                0x08022f58                TIM1_BRK_TIM9_IRQHandler
                0x08022f58                DCMI_IRQHandler
                0x08022f58                CAN2_RX0_IRQHandler
                0x08022f58                DMA2_Stream3_IRQHandler
                0x08022f58                USART6_IRQHandler
                0x08022f58                USART3_IRQHandler
                0x08022f58                CRYP_IRQHandler
                0x08022f58                CAN1_RX1_IRQHandler
                0x08022f58                UART5_IRQHandler
                0x08022f58                DMA2_Stream0_IRQHandler
                0x08022f58                TIM4_IRQHandler
                0x08022f58                I2C1_EV_IRQHandler
                0x08022f58                DMA1_Stream6_IRQHandler
                0x08022f58                DMA1_Stream1_IRQHandler
                0x08022f58                UART4_IRQHandler
                0x08022f58                TIM3_IRQHandler
                0x08022f58                RCC_IRQHandler
                0x08022f58                TIM8_BRK_TIM12_IRQHandler
                0x08022f58                EXTI15_10_IRQHandler
                0x08022f58                ADC_IRQHandler
                0x08022f58                DMA1_Stream7_IRQHandler
                0x08022f58                TIM7_IRQHandler
                0x08022f58                CAN2_TX_IRQHandler
                0x08022f58                TIM5_IRQHandler
                0x08022f58                DMA2_Stream7_IRQHandler
                0x08022f58                I2C3_EV_IRQHandler
                0x08022f58                RTC_WKUP_IRQHandler
                0x08022f58                ETH_WKUP_IRQHandler
                0x08022f58                SPI2_IRQHandler
                0x08022f58                OTG_HS_EP1_IN_IRQHandler
                0x08022f58                CAN1_TX_IRQHandler
                0x08022f58                EXTI4_IRQHandler
                0x08022f58                FSMC_IRQHandler
                0x08022f58                ETH_IRQHandler
                0x08022f58                OTG_HS_EP1_OUT_IRQHandler
                0x08022f58                WWDG_IRQHandler
                0x08022f58                OTG_FS_WKUP_IRQHandler
                0x08022f58                TIM1_TRG_COM_TIM11_IRQHandler
                0x08022f58                OTG_HS_IRQHandler
                0x08022f58                I2C2_ER_IRQHandler
                0x08022f58                DMA2_Stream1_IRQHandler
                0x08022f58                CAN1_SCE_IRQHandler
                0x08022f58                FLASH_IRQHandler
                0x08022f58                DMA2_Stream4_IRQHandler
                0x08022f58                USART1_IRQHandler
                0x08022f58                SPI3_IRQHandler
                0x08022f58                DMA1_Stream4_IRQHandler
                0x08022f58                I2C1_ER_IRQHandler
                0x08022f58                DMA2_Stream6_IRQHandler
                0x08022f58                DMA1_Stream3_IRQHandler
 *fill*         0x08022f5a        0x2 00
 .text.atan2    0x08022f5c        0x4 d:/program files (x86)/gnu tools arm embedded/4.6 2012q4/bin/../lib/gcc/arm-none-eabi/4.6.2/../../../../arm-none-eabi/lib/armv7e-m/fpu\libm.a(lib_a-w_atan2.o)
                0x08022f5c                atan2
 .text.fmod     0x08022f60       0xd0 d:/program files (x86)/gnu tools arm embedded/4.6 2012q4/bin/../lib/gcc/arm-none-eabi/4.6.2/../../../../arm-none-eabi/lib/armv7e-m/fpu\libm.a(lib_a-w_fmod.o)
                0x08022f60                fmod
 .text.sqrt     0x08023030       0xbc d:/program files (x86)/gnu tools arm embedded/4.6 2012q4/bin/../lib/gcc/arm-none-eabi/4.6.2/../../../../arm-none-eabi/lib/armv7e-m/fpu\libm.a(lib_a-w_sqrt.o)
                0x08023030                sqrt
 *fill*         0x080230ec        0x4 00
 .text.__ieee754_atan2
                0x080230f0      0x200 d:/program files (x86)/gnu tools arm embedded/4.6 2012q4/bin/../lib/gcc/arm-none-eabi/4.6.2/../../../../arm-none-eabi/lib/armv7e-m/fpu\libm.a(lib_a-e_atan2.o)
                0x080230f0                __ieee754_atan2
 .text.__ieee754_fmod
                0x080232f0      0x2b8 d:/program files (x86)/gnu tools arm embedded/4.6 2012q4/bin/../lib/gcc/arm-none-eabi/4.6.2/../../../../arm-none-eabi/lib/armv7e-m/fpu\libm.a(lib_a-e_fmod.o)
                0x080232f0                __ieee754_fmod
 .text.__ieee754_sqrt
                0x080235a8      0x1c4 d:/program files (x86)/gnu tools arm embedded/4.6 2012q4/bin/../lib/gcc/arm-none-eabi/4.6.2/../../../../arm-none-eabi/lib/armv7e-m/fpu\libm.a(lib_a-e_sqrt.o)
                0x080235a8                __ieee754_sqrt
 *fill*         0x0802376c        0x4 00
 .text.atan     0x08023770      0x388 d:/program files (x86)/gnu tools arm embedded/4.6 2012q4/bin/../lib/gcc/arm-none-eabi/4.6.2/../../../../arm-none-eabi/lib/armv7e-m/fpu\libm.a(lib_a-s_atan.o)
                0x08023770                atan
 .text.fabs     0x08023af8       0x14 d:/program files (x86)/gnu tools arm embedded/4.6 2012q4/bin/../lib/gcc/arm-none-eabi/4.6.2/../../../../arm-none-eabi/lib/armv7e-m/fpu\libm.a(lib_a-s_fabs.o)
                0x08023af8                fabs
 .text.__fpclassifyd
                0x08023b0c       0x70 d:/program files (x86)/gnu tools arm embedded/4.6 2012q4/bin/../lib/gcc/arm-none-eabi/4.6.2/../../../../arm-none-eabi/lib/armv7e-m/fpu\libm.a(lib_a-s_fpclassify.o)
                0x08023b0c                __fpclassifyd
 .text.matherr  0x08023b7c        0x4 d:/program files (x86)/gnu tools arm embedded/4.6 2012q4/bin/../lib/gcc/arm-none-eabi/4.6.2/../../../../arm-none-eabi/lib/armv7e-m/fpu\libm.a(lib_a-s_matherr.o)
                0x08023b7c                matherr
 .text.__errno  0x08023b80        0xc d:/program files (x86)/gnu tools arm embedded/4.6 2012q4/bin/../lib/gcc/arm-none-eabi/4.6.2/../../../../arm-none-eabi/lib/armv7e-m/fpu\libc.a(lib_a-errno.o)
                0x08023b80                __errno
 .text.malloc   0x08023b8c       0x10 d:/program files (x86)/gnu tools arm embedded/4.6 2012q4/bin/../lib/gcc/arm-none-eabi/4.6.2/../../../../arm-none-eabi/lib/armv7e-m/fpu\libc.a(lib_a-malloc.o)
                0x08023b8c                malloc
 .text.free     0x08023b9c       0x10 d:/program files (x86)/gnu tools arm embedded/4.6 2012q4/bin/../lib/gcc/arm-none-eabi/4.6.2/../../../../arm-none-eabi/lib/armv7e-m/fpu\libc.a(lib_a-malloc.o)
                0x08023b9c                free
 .text._malloc_r
                0x08023bac      0x540 d:/program files (x86)/gnu tools arm embedded/4.6 2012q4/bin/../lib/gcc/arm-none-eabi/4.6.2/../../../../arm-none-eabi/lib/armv7e-m/fpu\libc.a(lib_a-mallocr.o)
                0x08023bac                _malloc_r
 .text.memcpy   0x080240ec       0x84 d:/program files (x86)/gnu tools arm embedded/4.6 2012q4/bin/../lib/gcc/arm-none-eabi/4.6.2/../../../../arm-none-eabi/lib/armv7e-m/fpu\libc.a(lib_a-memcpy.o)
                0x080240ec                memcpy
 .text.memset   0x08024170       0x90 d:/program files (x86)/gnu tools arm embedded/4.6 2012q4/bin/../lib/gcc/arm-none-eabi/4.6.2/../../../../arm-none-eabi/lib/armv7e-m/fpu\libc.a(lib_a-memset.o)
                0x08024170                memset
 .text.__malloc_lock
                0x08024200        0x4 d:/program files (x86)/gnu tools arm embedded/4.6 2012q4/bin/../lib/gcc/arm-none-eabi/4.6.2/../../../../arm-none-eabi/lib/armv7e-m/fpu\libc.a(lib_a-mlock.o)
                0x08024200                __malloc_lock
 .text.__malloc_unlock
                0x08024204        0x4 d:/program files (x86)/gnu tools arm embedded/4.6 2012q4/bin/../lib/gcc/arm-none-eabi/4.6.2/../../../../arm-none-eabi/lib/armv7e-m/fpu\libc.a(lib_a-mlock.o)
                0x08024204                __malloc_unlock
 .text._sbrk_r  0x08024208       0x24 d:/program files (x86)/gnu tools arm embedded/4.6 2012q4/bin/../lib/gcc/arm-none-eabi/4.6.2/../../../../arm-none-eabi/lib/armv7e-m/fpu\libc.a(lib_a-sbrkr.o)
                0x08024208                _sbrk_r
 .text._sprintf_r
                0x0802422c       0x44 d:/program files (x86)/gnu tools arm embedded/4.6 2012q4/bin/../lib/gcc/arm-none-eabi/4.6.2/../../../../arm-none-eabi/lib/armv7e-m/fpu\libc.a(lib_a-sprintf.o)
                0x0802422c                _sprintf_r
 .text.sprintf  0x08024270       0x50 d:/program files (x86)/gnu tools arm embedded/4.6 2012q4/bin/../lib/gcc/arm-none-eabi/4.6.2/../../../../arm-none-eabi/lib/armv7e-m/fpu\libc.a(lib_a-sprintf.o)
                0x08024270                sprintf
 .text.strlen   0x080242c0       0x60 d:/program files (x86)/gnu tools arm embedded/4.6 2012q4/bin/../lib/gcc/arm-none-eabi/4.6.2/../../../../arm-none-eabi/lib/armv7e-m/fpu\libc.a(lib_a-strlen.o)
                0x080242c0                strlen
 .text.strncpy  0x08024320       0x68 d:/program files (x86)/gnu tools arm embedded/4.6 2012q4/bin/../lib/gcc/arm-none-eabi/4.6.2/../../../../arm-none-eabi/lib/armv7e-m/fpu\libc.a(lib_a-strncpy.o)
                0x08024320                strncpy
 .text._svfprintf_r
                0x08024388     0x1428 d:/program files (x86)/gnu tools arm embedded/4.6 2012q4/bin/../lib/gcc/arm-none-eabi/4.6.2/../../../../arm-none-eabi/lib/armv7e-m/fpu\libc.a(lib_a-svfprintf.o)
                0x08024388                _svfprintf_r
 .text.quorem   0x080257b0      0x14c d:/program files (x86)/gnu tools arm embedded/4.6 2012q4/bin/../lib/gcc/arm-none-eabi/4.6.2/../../../../arm-none-eabi/lib/armv7e-m/fpu\libc.a(lib_a-dtoa.o)
 *fill*         0x080258fc        0x4 00
 .text._dtoa_r  0x08025900      0xe68 d:/program files (x86)/gnu tools arm embedded/4.6 2012q4/bin/../lib/gcc/arm-none-eabi/4.6.2/../../../../arm-none-eabi/lib/armv7e-m/fpu\libc.a(lib_a-dtoa.o)
                0x08025900                _dtoa_r
 .text._malloc_trim_r
                0x08026768       0xa0 d:/program files (x86)/gnu tools arm embedded/4.6 2012q4/bin/../lib/gcc/arm-none-eabi/4.6.2/../../../../arm-none-eabi/lib/armv7e-m/fpu\libc.a(lib_a-freer.o)
                0x08026768                _malloc_trim_r
 .text._free_r  0x08026808      0x190 d:/program files (x86)/gnu tools arm embedded/4.6 2012q4/bin/../lib/gcc/arm-none-eabi/4.6.2/../../../../arm-none-eabi/lib/armv7e-m/fpu\libc.a(lib_a-freer.o)
                0x08026808                _free_r
 .text._setlocale_r
                0x08026998       0x44 d:/program files (x86)/gnu tools arm embedded/4.6 2012q4/bin/../lib/gcc/arm-none-eabi/4.6.2/../../../../arm-none-eabi/lib/armv7e-m/fpu\libc.a(lib_a-locale.o)
                0x08026998                _setlocale_r
 .text.__locale_charset
                0x080269dc        0xc d:/program files (x86)/gnu tools arm embedded/4.6 2012q4/bin/../lib/gcc/arm-none-eabi/4.6.2/../../../../arm-none-eabi/lib/armv7e-m/fpu\libc.a(lib_a-locale.o)
                0x080269dc                __locale_charset
 .text.__locale_mb_cur_max
                0x080269e8        0xc d:/program files (x86)/gnu tools arm embedded/4.6 2012q4/bin/../lib/gcc/arm-none-eabi/4.6.2/../../../../arm-none-eabi/lib/armv7e-m/fpu\libc.a(lib_a-locale.o)
                0x080269e8                __locale_mb_cur_max
 .text.__locale_msgcharset
                0x080269f4        0xc d:/program files (x86)/gnu tools arm embedded/4.6 2012q4/bin/../lib/gcc/arm-none-eabi/4.6.2/../../../../arm-none-eabi/lib/armv7e-m/fpu\libc.a(lib_a-locale.o)
                0x080269f4                __locale_msgcharset
 .text.__locale_cjk_lang
                0x08026a00        0x4 d:/program files (x86)/gnu tools arm embedded/4.6 2012q4/bin/../lib/gcc/arm-none-eabi/4.6.2/../../../../arm-none-eabi/lib/armv7e-m/fpu\libc.a(lib_a-locale.o)
                0x08026a00                __locale_cjk_lang
 .text._localeconv_r
                0x08026a04        0xc d:/program files (x86)/gnu tools arm embedded/4.6 2012q4/bin/../lib/gcc/arm-none-eabi/4.6.2/../../../../arm-none-eabi/lib/armv7e-m/fpu\libc.a(lib_a-locale.o)
                0x08026a04                _localeconv_r
 .text.setlocale
                0x08026a10       0x14 d:/program files (x86)/gnu tools arm embedded/4.6 2012q4/bin/../lib/gcc/arm-none-eabi/4.6.2/../../../../arm-none-eabi/lib/armv7e-m/fpu\libc.a(lib_a-locale.o)
                0x08026a10                setlocale
 .text.localeconv
                0x08026a24        0xc d:/program files (x86)/gnu tools arm embedded/4.6 2012q4/bin/../lib/gcc/arm-none-eabi/4.6.2/../../../../arm-none-eabi/lib/armv7e-m/fpu\libc.a(lib_a-locale.o)
                0x08026a24                localeconv
 .text.memchr   0x08026a30       0x84 d:/program files (x86)/gnu tools arm embedded/4.6 2012q4/bin/../lib/gcc/arm-none-eabi/4.6.2/../../../../arm-none-eabi/lib/armv7e-m/fpu\libc.a(lib_a-memchr.o)
                0x08026a30                memchr
 .text._Balloc  0x08026ab4       0x4c d:/program files (x86)/gnu tools arm embedded/4.6 2012q4/bin/../lib/gcc/arm-none-eabi/4.6.2/../../../../arm-none-eabi/lib/armv7e-m/fpu\libc.a(lib_a-mprec.o)
                0x08026ab4                _Balloc
 .text._Bfree   0x08026b00       0x14 d:/program files (x86)/gnu tools arm embedded/4.6 2012q4/bin/../lib/gcc/arm-none-eabi/4.6.2/../../../../arm-none-eabi/lib/armv7e-m/fpu\libc.a(lib_a-mprec.o)
                0x08026b00                _Bfree
 .text.__multadd
                0x08026b14       0x84 d:/program files (x86)/gnu tools arm embedded/4.6 2012q4/bin/../lib/gcc/arm-none-eabi/4.6.2/../../../../arm-none-eabi/lib/armv7e-m/fpu\libc.a(lib_a-mprec.o)
                0x08026b14                __multadd
 .text.__s2b    0x08026b98       0x98 d:/program files (x86)/gnu tools arm embedded/4.6 2012q4/bin/../lib/gcc/arm-none-eabi/4.6.2/../../../../arm-none-eabi/lib/armv7e-m/fpu\libc.a(lib_a-mprec.o)
                0x08026b98                __s2b
 .text.__hi0bits
                0x08026c30       0x3c d:/program files (x86)/gnu tools arm embedded/4.6 2012q4/bin/../lib/gcc/arm-none-eabi/4.6.2/../../../../arm-none-eabi/lib/armv7e-m/fpu\libc.a(lib_a-mprec.o)
                0x08026c30                __hi0bits
 .text.__lo0bits
                0x08026c6c       0x5c d:/program files (x86)/gnu tools arm embedded/4.6 2012q4/bin/../lib/gcc/arm-none-eabi/4.6.2/../../../../arm-none-eabi/lib/armv7e-m/fpu\libc.a(lib_a-mprec.o)
                0x08026c6c                __lo0bits
 .text.__i2b    0x08026cc8       0x14 d:/program files (x86)/gnu tools arm embedded/4.6 2012q4/bin/../lib/gcc/arm-none-eabi/4.6.2/../../../../arm-none-eabi/lib/armv7e-m/fpu\libc.a(lib_a-mprec.o)
                0x08026cc8                __i2b
 .text.__multiply
                0x08026cdc      0x144 d:/program files (x86)/gnu tools arm embedded/4.6 2012q4/bin/../lib/gcc/arm-none-eabi/4.6.2/../../../../arm-none-eabi/lib/armv7e-m/fpu\libc.a(lib_a-mprec.o)
                0x08026cdc                __multiply
 .text.__pow5mult
                0x08026e20       0x98 d:/program files (x86)/gnu tools arm embedded/4.6 2012q4/bin/../lib/gcc/arm-none-eabi/4.6.2/../../../../arm-none-eabi/lib/armv7e-m/fpu\libc.a(lib_a-mprec.o)
                0x08026e20                __pow5mult
 .text.__lshift
                0x08026eb8       0xc0 d:/program files (x86)/gnu tools arm embedded/4.6 2012q4/bin/../lib/gcc/arm-none-eabi/4.6.2/../../../../arm-none-eabi/lib/armv7e-m/fpu\libc.a(lib_a-mprec.o)
                0x08026eb8                __lshift
 .text.__mcmp   0x08026f78       0x3c d:/program files (x86)/gnu tools arm embedded/4.6 2012q4/bin/../lib/gcc/arm-none-eabi/4.6.2/../../../../arm-none-eabi/lib/armv7e-m/fpu\libc.a(lib_a-mprec.o)
                0x08026f78                __mcmp
 .text.__mdiff  0x08026fb4       0xd8 d:/program files (x86)/gnu tools arm embedded/4.6 2012q4/bin/../lib/gcc/arm-none-eabi/4.6.2/../../../../arm-none-eabi/lib/armv7e-m/fpu\libc.a(lib_a-mprec.o)
                0x08026fb4                __mdiff
 .text.__ulp    0x0802708c       0x54 d:/program files (x86)/gnu tools arm embedded/4.6 2012q4/bin/../lib/gcc/arm-none-eabi/4.6.2/../../../../arm-none-eabi/lib/armv7e-m/fpu\libc.a(lib_a-mprec.o)
                0x0802708c                __ulp
 .text.__b2d    0x080270e0       0xb8 d:/program files (x86)/gnu tools arm embedded/4.6 2012q4/bin/../lib/gcc/arm-none-eabi/4.6.2/../../../../arm-none-eabi/lib/armv7e-m/fpu\libc.a(lib_a-mprec.o)
                0x080270e0                __b2d
 .text.__d2b    0x08027198       0xc8 d:/program files (x86)/gnu tools arm embedded/4.6 2012q4/bin/../lib/gcc/arm-none-eabi/4.6.2/../../../../arm-none-eabi/lib/armv7e-m/fpu\libc.a(lib_a-mprec.o)
                0x08027198                __d2b
 .text.__ratio  0x08027260       0x58 d:/program files (x86)/gnu tools arm embedded/4.6 2012q4/bin/../lib/gcc/arm-none-eabi/4.6.2/../../../../arm-none-eabi/lib/armv7e-m/fpu\libc.a(lib_a-mprec.o)
                0x08027260                __ratio
 .text._mprec_log10
                0x080272b8       0x3c d:/program files (x86)/gnu tools arm embedded/4.6 2012q4/bin/../lib/gcc/arm-none-eabi/4.6.2/../../../../arm-none-eabi/lib/armv7e-m/fpu\libc.a(lib_a-mprec.o)
                0x080272b8                _mprec_log10
 .text.__copybits
                0x080272f4       0x48 d:/program files (x86)/gnu tools arm embedded/4.6 2012q4/bin/../lib/gcc/arm-none-eabi/4.6.2/../../../../arm-none-eabi/lib/armv7e-m/fpu\libc.a(lib_a-mprec.o)
                0x080272f4                __copybits
 .text.__any_on
                0x0802733c       0x60 d:/program files (x86)/gnu tools arm embedded/4.6 2012q4/bin/../lib/gcc/arm-none-eabi/4.6.2/../../../../arm-none-eabi/lib/armv7e-m/fpu\libc.a(lib_a-mprec.o)
                0x0802733c                __any_on
 .text.cleanup_glue
                0x0802739c       0x1c d:/program files (x86)/gnu tools arm embedded/4.6 2012q4/bin/../lib/gcc/arm-none-eabi/4.6.2/../../../../arm-none-eabi/lib/armv7e-m/fpu\libc.a(lib_a-reent.o)
                0x0802739c                cleanup_glue
 .text._reclaim_reent
                0x080273b8       0x90 d:/program files (x86)/gnu tools arm embedded/4.6 2012q4/bin/../lib/gcc/arm-none-eabi/4.6.2/../../../../arm-none-eabi/lib/armv7e-m/fpu\libc.a(lib_a-reent.o)
                0x080273b8                _reclaim_reent
 .text._wrapup_reent
                0x08027448       0x40 d:/program files (x86)/gnu tools arm embedded/4.6 2012q4/bin/../lib/gcc/arm-none-eabi/4.6.2/../../../../arm-none-eabi/lib/armv7e-m/fpu\libc.a(lib_a-reent.o)
                0x08027448                _wrapup_reent
 .text.strcmp   0x08027488       0x80 d:/program files (x86)/gnu tools arm embedded/4.6 2012q4/bin/../lib/gcc/arm-none-eabi/4.6.2/../../../../arm-none-eabi/lib/armv7e-m/fpu\libc.a(lib_a-strcmp.o)
                0x08027488                strcmp
 .text.strcmp_unaligned
                0x08027508      0x15c d:/program files (x86)/gnu tools arm embedded/4.6 2012q4/bin/../lib/gcc/arm-none-eabi/4.6.2/../../../../arm-none-eabi/lib/armv7e-m/fpu\libc.a(lib_a-strcmp.o)
 .text.__ssprint_r
                0x08027664       0xfc d:/program files (x86)/gnu tools arm embedded/4.6 2012q4/bin/../lib/gcc/arm-none-eabi/4.6.2/../../../../arm-none-eabi/lib/armv7e-m/fpu\libc.a(lib_a-svfiprintf.o)
                0x08027664                __ssprint_r
 .text._svfiprintf_r
                0x08027760      0xa38 d:/program files (x86)/gnu tools arm embedded/4.6 2012q4/bin/../lib/gcc/arm-none-eabi/4.6.2/../../../../arm-none-eabi/lib/armv7e-m/fpu\libc.a(lib_a-svfiprintf.o)
                0x08027760                _svfiprintf_r
 .text._calloc_r
                0x08028198       0x60 d:/program files (x86)/gnu tools arm embedded/4.6 2012q4/bin/../lib/gcc/arm-none-eabi/4.6.2/../../../../arm-none-eabi/lib/armv7e-m/fpu\libc.a(lib_a-callocr.o)
                0x08028198                _calloc_r
 .text.memmove  0x080281f8       0xb0 d:/program files (x86)/gnu tools arm embedded/4.6 2012q4/bin/../lib/gcc/arm-none-eabi/4.6.2/../../../../arm-none-eabi/lib/armv7e-m/fpu\libc.a(lib_a-memmove.o)
                0x080281f8                memmove
 .text._realloc_r
                0x080282a8      0x3e0 d:/program files (x86)/gnu tools arm embedded/4.6 2012q4/bin/../lib/gcc/arm-none-eabi/4.6.2/../../../../arm-none-eabi/lib/armv7e-m/fpu\libc.a(lib_a-reallocr.o)
                0x080282a8                _realloc_r
 *(.rodata)
 .rodata        0x08028688        0xc obj\.\src\DMA_IRQ_Handler.o
                0x08028688                Amp0
                0x0802868c                A
                0x08028690                B
 .rodata        0x08028694       0xcc obj\.\src\Encoder_1.o
 .rodata        0x08028760       0xd4 obj\.\src\Encoder_2.o
 .rodata        0x08028834       0x28 obj\.\src\ModeSelect.o
 .rodata        0x0802885c     0x207c obj\.\src\PSKMod.o
                0x0802885c                PSKShapeTbl
                0x0802a860                PSKPhaseLookupTable
 .rodata        0x0802a8d8      0x440 obj\.\src\PSK_Det.o
                0x0802a8d8                HALF_TBL
                0x0802a918                VARICODE_TABLE
 .rodata        0x0802ad18        0xc obj\.\src\Si570.o
                0x0802ad18                HS_DIV_VALUE_char
                0x0802ad20                N1_VALUE_char
 .rodata        0x0802ad24     0x4000 obj\.\src\Sine_table.o
                0x0802ad24                Sine_table
 .rodata        0x0802ed24        0xc obj\.\src\TFT_Display.o
 .rodata        0x0802ed30       0x2c obj\.\src\main.o
                0x0802ed30                CODEC_FREQUENCY
 .rodata        0x0802ed5c       0x30 obj\.\src\stm32f4_discovery.o
                0x0802ed5c                GPIO_PIN
                0x0802ed64                GPIO_CLK
                0x0802ed74                BUTTON_PIN
                0x0802ed78                BUTTON_CLK
                0x0802ed7c                BUTTON_EXTI_LINE
                0x0802ed80                BUTTON_PORT_SOURCE
                0x0802ed84                BUTTON_PIN_SOURCE
                0x0802ed88                BUTTON_IRQn
 .rodata        0x0802ed8c       0x28 obj\.\src\touch_pad.o
 .rodata        0x0802edb4       0x18 obj\.\src\uart.o
                0x0802edb4                COM_USART_CLK
                0x0802edb8                COM_TX_PORT_CLK
                0x0802edbc                COM_RX_PORT_CLK
                0x0802edc0                COM_TX_PIN
                0x0802edc2                COM_RX_PIN
                0x0802edc4                COM_TX_PIN_SOURCE
                0x0802edc6                COM_RX_PIN_SOURCE
                0x0802edc8                COM_TX_AF
                0x0802edca                COM_RX_AF
 .rodata        0x0802edcc       0x20 obj\.\src\xprintf.o
 .rodata        0x0802edec        0x4 obj\.\externals\SM32F4-Discovery\USB\src\usbh_core.o
 .rodata        0x0802edf0      0x1f0 obj\.\externals\SM32F4-Discovery\USB\src\usbh_hid_keybd.o
 .rodata        0x0802efe0       0x9c obj\.\externals\SM32F4-Discovery\STEmbeddedGUI\src\LcdDriver_ILI9320.o
 .rodata        0x0802f07c       0x64 obj\.\externals\SM32F4-Discovery\STEmbeddedGUI\src\LcdHal.o
 .rodata        0x0802f0e0     0x4ab0 obj\.\externals\SM32F4-Discovery\STEmbeddedGUI\src\gl_fonts.o
                0x0802f0e0                GL_ASCII16x24_Table
                0x080302b0                GL_ASCII8x16_Table
                0x08030e90                GL_ASCII12x12_Table
                0x08031790                GL_ASCII8x12_Table
                0x08032090                GL_ASCII8x8_Table
                0x08032690                GL_ASCII8x12_bold_Table
 .rodata        0x08033b90       0x64 obj\.\externals\SM32F4-Discovery\STEmbeddedGUI\src\graphicObject.o
 .rodata        0x08033bf4     0x3820 obj\.\externals\SM32F4-Discovery\STEmbeddedGUI\src\images.o
                0x08033bf4                RButtonA
                0x08033f58                RButtonB
                0x080342bc                CheckBox1
                0x08034620                CheckBox2
                0x08034984                ArrowUpUntouched
                0x08034d90                ArrowUpTouched
                0x0803519c                ArrowDownUntouched
                0x080355a8                ArrowDownTouched
                0x080359b4                BtnNormalLeft
                0x08035b98                BtnNormalRight
                0x08035d7c                BtnNormal
                0x08035f60                BtnPressedLeft
                0x08036144                BtnPressedRight
                0x08036328                BtnPressed
                0x0803650c                SwitchNormalLeft
                0x080366f0                SwitchNormalRight
                0x080368d4                SwitchNormal
                0x08036ab8                SwitchPressedLeft
                0x08036c9c                SwitchPressedRight
                0x08036e80                SwitchPressed
                0x08037064                SlidebarLeft
                0x08037138                SlidebarRight
                0x0803720c                SlidebarCentral
                0x080372e0                SlidebarCursor
 .rodata        0x08037414    0x25828 obj\.\externals\SM32F4-Discovery\STEmbeddedGUI\src\smile_image.o
                0x08037428                gimp_image
 .rodata        0x0805cc3c       0x50 obj\.\externals\SM32F4-Discovery\STEmbeddedGUI\src\touchscreen.o
 .rodata        0x0805cc8c       0x70 obj\.\externals\SM32F4-Discovery\STEmbeddedGUI\src\uiframework.o
 .rodata        0x0805ccfc     0x1000 .\externals\libs\libstm32f4xx_math.a(arm_cfft_radix4_init_q15.o)
 .rodata        0x0805dcfc      0x380 .\externals\libs\libstm32f4xx_math.a(arm_common_tables.o)
                0x0805dcfc                armRecipTableQ31
                0x0805ddfc                armRecipTableQ15
                0x0805de7c                armBitRevTable
 *(.rodata*)
 .rodata.str1.4
                0x0805e07c        0x5 d:/program files (x86)/gnu tools arm embedded/4.6 2012q4/bin/../lib/gcc/arm-none-eabi/4.6.2/../../../../arm-none-eabi/lib/armv7e-m/fpu\libm.a(lib_a-w_fmod.o)
                                  0x8 (size before relaxing)
 *fill*         0x0805e081        0x3 00
 .rodata.str1.4
                0x0805e084        0x5 d:/program files (x86)/gnu tools arm embedded/4.6 2012q4/bin/../lib/gcc/arm-none-eabi/4.6.2/../../../../arm-none-eabi/lib/armv7e-m/fpu\libm.a(lib_a-w_sqrt.o)
                                  0x8 (size before relaxing)
 *fill*         0x0805e089        0x7 00
 .rodata.Zero   0x0805e090       0x10 d:/program files (x86)/gnu tools arm embedded/4.6 2012q4/bin/../lib/gcc/arm-none-eabi/4.6.2/../../../../arm-none-eabi/lib/armv7e-m/fpu\libm.a(lib_a-e_fmod.o)
 .rodata.atanlo
                0x0805e0a0       0x20 d:/program files (x86)/gnu tools arm embedded/4.6 2012q4/bin/../lib/gcc/arm-none-eabi/4.6.2/../../../../arm-none-eabi/lib/armv7e-m/fpu\libm.a(lib_a-s_atan.o)
 .rodata.atanhi
                0x0805e0c0       0x20 d:/program files (x86)/gnu tools arm embedded/4.6 2012q4/bin/../lib/gcc/arm-none-eabi/4.6.2/../../../../arm-none-eabi/lib/armv7e-m/fpu\libm.a(lib_a-s_atan.o)
 .rodata.str1.4
                0x0805e0e0        0x2 d:/program files (x86)/gnu tools arm embedded/4.6 2012q4/bin/../lib/gcc/arm-none-eabi/4.6.2/../../../../arm-none-eabi/lib/armv7e-m/fpu\libc.a(lib_a-impure.o)
                                  0x4 (size before relaxing)
 *fill*         0x0805e0e2        0x2 00
 .rodata._global_impure_ptr
                0x0805e0e4        0x4 d:/program files (x86)/gnu tools arm embedded/4.6 2012q4/bin/../lib/gcc/arm-none-eabi/4.6.2/../../../../arm-none-eabi/lib/armv7e-m/fpu\libc.a(lib_a-impure.o)
                0x0805e0e4                _global_impure_ptr
 .rodata.zeroes.6590
                0x0805e0e8       0x10 d:/program files (x86)/gnu tools arm embedded/4.6 2012q4/bin/../lib/gcc/arm-none-eabi/4.6.2/../../../../arm-none-eabi/lib/armv7e-m/fpu\libc.a(lib_a-svfprintf.o)
 .rodata.str1.4
                0x0805e0f8       0x42 d:/program files (x86)/gnu tools arm embedded/4.6 2012q4/bin/../lib/gcc/arm-none-eabi/4.6.2/../../../../arm-none-eabi/lib/armv7e-m/fpu\libc.a(lib_a-svfprintf.o)
                                 0x44 (size before relaxing)
 *fill*         0x0805e13a        0x2 00
 .rodata.blanks.6589
                0x0805e13c       0x10 d:/program files (x86)/gnu tools arm embedded/4.6 2012q4/bin/../lib/gcc/arm-none-eabi/4.6.2/../../../../arm-none-eabi/lib/armv7e-m/fpu\libc.a(lib_a-svfprintf.o)
 .rodata.str1.4
                0x0805e14c       0x10 d:/program files (x86)/gnu tools arm embedded/4.6 2012q4/bin/../lib/gcc/arm-none-eabi/4.6.2/../../../../arm-none-eabi/lib/armv7e-m/fpu\libc.a(lib_a-dtoa.o)
                                 0x14 (size before relaxing)
 .rodata.str1.4
                0x0805e15c        0xc d:/program files (x86)/gnu tools arm embedded/4.6 2012q4/bin/../lib/gcc/arm-none-eabi/4.6.2/../../../../arm-none-eabi/lib/armv7e-m/fpu\libc.a(lib_a-locale.o)
                                 0x14 (size before relaxing)
 .rodata.__mprec_tens
                0x0805e168       0xc8 d:/program files (x86)/gnu tools arm embedded/4.6 2012q4/bin/../lib/gcc/arm-none-eabi/4.6.2/../../../../arm-none-eabi/lib/armv7e-m/fpu\libc.a(lib_a-mprec.o)
                0x0805e168                __mprec_tens
 .rodata.__mprec_bigtens
                0x0805e230       0x28 d:/program files (x86)/gnu tools arm embedded/4.6 2012q4/bin/../lib/gcc/arm-none-eabi/4.6.2/../../../../arm-none-eabi/lib/armv7e-m/fpu\libc.a(lib_a-mprec.o)
                0x0805e230                __mprec_bigtens
 .rodata.__mprec_tinytens
                0x0805e258       0x28 d:/program files (x86)/gnu tools arm embedded/4.6 2012q4/bin/../lib/gcc/arm-none-eabi/4.6.2/../../../../arm-none-eabi/lib/armv7e-m/fpu\libc.a(lib_a-mprec.o)
                0x0805e258                __mprec_tinytens
 .rodata.p05.5111
                0x0805e280        0xc d:/program files (x86)/gnu tools arm embedded/4.6 2012q4/bin/../lib/gcc/arm-none-eabi/4.6.2/../../../../arm-none-eabi/lib/armv7e-m/fpu\libc.a(lib_a-mprec.o)
 .rodata.zeroes.6534
                0x0805e28c       0x10 d:/program files (x86)/gnu tools arm embedded/4.6 2012q4/bin/../lib/gcc/arm-none-eabi/4.6.2/../../../../arm-none-eabi/lib/armv7e-m/fpu\libc.a(lib_a-svfiprintf.o)
 .rodata.str1.4
                0x00000000       0x30 d:/program files (x86)/gnu tools arm embedded/4.6 2012q4/bin/../lib/gcc/arm-none-eabi/4.6.2/../../../../arm-none-eabi/lib/armv7e-m/fpu\libc.a(lib_a-svfiprintf.o)
 .rodata.blanks.6533
                0x0805e29c       0x10 d:/program files (x86)/gnu tools arm embedded/4.6 2012q4/bin/../lib/gcc/arm-none-eabi/4.6.2/../../../../arm-none-eabi/lib/armv7e-m/fpu\libc.a(lib_a-svfiprintf.o)
 *(.glue_7)
 .glue_7        0x00000000        0x0 linker stubs
 *(.glue_7t)
 .glue_7t       0x00000000        0x0 linker stubs
 *(.eh_frame)
 *(.init)
 *(.fini)
                0x0805e2ac                . = ALIGN (0x4)
                0x0805e2ac                _end_of_code = .

.vfp11_veneer   0x0805e2ac        0x0
 .vfp11_veneer  0x00000000        0x0 linker stubs

.v4_bx          0x0805e2ac        0x0
 .v4_bx         0x00000000        0x0 linker stubs

.ARM.extab      0x0805e2ac        0x0
 *(.ARM.extab* .gnu.linkonce.armextab.*)
 .ARM.extab     0x0805e2ac        0x0 d:/program files (x86)/gnu tools arm embedded/4.6 2012q4/bin/../lib/gcc/arm-none-eabi/4.6.2/armv7e-m/fpu\libgcc.a(_divdi3.o)
 .ARM.extab     0x0805e2ac        0x0 d:/program files (x86)/gnu tools arm embedded/4.6 2012q4/bin/../lib/gcc/arm-none-eabi/4.6.2/armv7e-m/fpu\libgcc.a(_udivdi3.o)

.ARM            0x0805e2ac        0x8
                0x0805e2ac                __exidx_start = .
 *(.ARM.exidx*)
 .ARM.exidx     0x0805e2ac        0x8 d:/program files (x86)/gnu tools arm embedded/4.6 2012q4/bin/../lib/gcc/arm-none-eabi/4.6.2/armv7e-m/fpu\libgcc.a(_divdi3.o)
 .ARM.exidx     0x0805e2b4        0x0 d:/program files (x86)/gnu tools arm embedded/4.6 2012q4/bin/../lib/gcc/arm-none-eabi/4.6.2/armv7e-m/fpu\libgcc.a(_udivdi3.o)
                                  0x8 (size before relaxing)
                0x0805e2b4                __exidx_end = .

.preinit_array  0x0805e2b4        0x0
                0x0805e2b4                PROVIDE (__preinit_array_start, .)
 *(.preinit_array*)
                0x0805e2b4                PROVIDE (__preinit_array_end, .)

.init_array     0x0805e2b4        0x0
                0x0805e2b4                PROVIDE (__init_array_start, .)
 *(SORT(.init_array.*))
 *(.init_array*)
                0x0805e2b4                PROVIDE (__init_array_end, .)

.fini_array     0x0805e2b4        0x0
                0x0805e2b4                PROVIDE (__fini_array_start, .)
 *(.fini_array*)
 *(SORT(.fini_array.*))
                0x0805e2b4                PROVIDE (__fini_array_end, .)
                0x0805e2b4                _sidata = .

.data           0x20000000      0xdd8 load address 0x0805e2b4
                0x20000000                . = ALIGN (0x4)
                0x20000000                _sdata = .
 *(.data)
 .data          0x20000000        0x0 obj\.\startup\startup_stm32f4xx.o
 .data          0x20000000        0x0 obj\.\src\AsciiLib.o
 .data          0x20000000        0x0 obj\.\src\CW_Mod.o
 .data          0x20000000        0x0 obj\.\src\ChangeOver.o
 .data          0x20000000        0x0 obj\.\src\Codec_Gains.o
 .data          0x20000000        0x0 obj\.\src\DMA_IRQ_Handler.o
 .data          0x20000000        0x0 obj\.\src\DMA_Test_Pins.o
 .data          0x20000000       0x7c obj\.\src\DSP_Processing.o
                0x20000000                Filter_I1
                0x2000000c                Filter_I2
                0x20000018                Filter_I3
                0x20000024                Filter_I4
                0x20000030                Filter_Q1
                0x2000003c                Filter_Q2
                0x20000048                Filter_Q3
                0x20000054                Filter_Q4
                0x20000060                FFT_Size
                0x20000064                S_FIR_I
                0x20000070                S_FIR_Q
 .data          0x2000007c       0x14 obj\.\src\Encoder_1.o
                0x2000007c                F_Unit
 .data          0x20000090       0x10 obj\.\src\Encoder_2.o
 .data          0x200000a0      0x350 obj\.\src\FIR_Coefficients.o
                0x200000a0                coeff_fir_I
                0x200001a0                coeff_fir_Q
                0x200002a0                Dec4LPCoef
                0x200002e8                FIRBitCoef
                0x2000036c                FIRFreqCoef
 .data          0x200003f0        0x0 obj\.\src\Init_Codec.o
 .data          0x200003f0        0x0 obj\.\src\Init_DMA.o
 .data          0x200003f0        0x4 obj\.\src\Init_I2C.o
                0x200003f0                Timeout
 .data          0x200003f4        0x0 obj\.\src\Init_I2S.o
 .data          0x200003f4        0x0 obj\.\src\ModeSelect.o
 .data          0x200003f4        0x0 obj\.\src\PSKMod.o
 .data          0x200003f4        0x0 obj\.\src\PSK_Det.o
 .data          0x200003f4        0x0 obj\.\src\Si570.o
 .data          0x200003f4        0x0 obj\.\src\Sine_table.o
 .data          0x200003f4        0x2 obj\.\src\TFT_Display.o
                0x200003f4                asciisize
 .data          0x200003f6        0x0 obj\.\src\User_Button.o
 .data          0x200003f6        0x0 obj\.\src\eeprom.o
 .data          0x200003f6        0x0 obj\.\src\main.o
 *fill*         0x200003f6        0x2 00
 .data          0x200003f8       0x14 obj\.\src\stm32f4_discovery.o
                0x200003f8                GPIO_PORT
                0x20000408                BUTTON_PORT
 .data          0x2000040c        0x0 obj\.\src\stm32f4xx_it.o
 .data          0x2000040c       0x14 obj\.\src\system_stm32f4xx.o
                0x2000040c                SystemCoreClock
                0x20000410                AHBPrescTable
 .data          0x20000420        0x0 obj\.\src\touch_pad.o
 .data          0x20000420        0xc obj\.\src\uart.o
                0x20000420                COM_USART
                0x20000424                COM_TX_PORT
                0x20000428                COM_RX_PORT
 .data          0x2000042c        0x0 obj\.\src\usb_bsp.o
 .data          0x2000042c       0x48 obj\.\src\usbh_usr.o
                0x2000042c                USR_Callbacks
 .data          0x20000474        0x0 obj\.\src\xprintf.o
 .data          0x20000474        0x0 obj\.\externals\SM32F4-Discovery\USB\src\misc.o
 .data          0x20000474        0x0 obj\.\externals\SM32F4-Discovery\USB\src\usb_core.o
 .data          0x20000474        0x0 obj\.\externals\SM32F4-Discovery\USB\src\usb_hcd.o
 .data          0x20000474        0x0 obj\.\externals\SM32F4-Discovery\USB\src\usb_hcd_int.o
 .data          0x20000474       0x14 obj\.\externals\SM32F4-Discovery\USB\src\usbh_core.o
                0x20000474                USBH_HCD_INT_cb
                0x20000480                USBH_HCD_INT_fops
                0x20000484                Previous_status
 .data          0x20000488        0x0 obj\.\externals\SM32F4-Discovery\USB\src\usbh_hcs.o
 .data          0x20000488       0x10 obj\.\externals\SM32F4-Discovery\USB\src\usbh_hid_core.o
                0x20000488                HID_cb
 .data          0x20000498        0x8 obj\.\externals\SM32F4-Discovery\USB\src\usbh_hid_keybd.o
                0x20000498                HID_KEYBRD_cb
 .data          0x200004a0        0x0 obj\.\externals\SM32F4-Discovery\USB\src\usbh_ioreq.o
 .data          0x200004a0        0x0 obj\.\externals\SM32F4-Discovery\USB\src\usbh_stdreq.o
 .data          0x200004a0        0x0 obj\.\externals\SM32F4-Discovery\STEmbeddedGUI\src\JoyHal.o
 .data          0x200004a0        0x8 obj\.\externals\SM32F4-Discovery\STEmbeddedGUI\src\LcdDriver_ILI9320.o
                0x200004a0                LCD_backColor
                0x200004a4                LCDType
 .data          0x200004a8        0x4 obj\.\externals\SM32F4-Discovery\STEmbeddedGUI\src\LcdHal.o
 .data          0x200004ac        0x0 obj\.\externals\SM32F4-Discovery\STEmbeddedGUI\src\TscHal.o
 .data          0x200004ac        0x0 obj\.\externals\SM32F4-Discovery\STEmbeddedGUI\src\cursor.o
 .data          0x200004ac       0x30 obj\.\externals\SM32F4-Discovery\STEmbeddedGUI\src\gl_fonts.o
                0x200004ac                GL_Font16x24
                0x200004b4                GL_Font8x16
                0x200004bc                GL_Font12x12
                0x200004c4                GL_Font8x12
                0x200004cc                GL_Font8x12_bold
                0x200004d4                GL_Font8x8
 .data          0x200004dc       0x2c obj\.\externals\SM32F4-Discovery\STEmbeddedGUI\src\graphicObject.o
                0x20000504                vu8_gTouchEnable
                0x20000505                vu8_gPowerSaveOption
 .data          0x20000508        0x0 obj\.\externals\SM32F4-Discovery\STEmbeddedGUI\src\hw_config.o
 .data          0x20000508        0x0 obj\.\externals\SM32F4-Discovery\STEmbeddedGUI\src\images.o
 .data          0x20000508        0x0 obj\.\externals\SM32F4-Discovery\STEmbeddedGUI\src\main_GUI.o
 .data          0x20000508        0x0 obj\.\externals\SM32F4-Discovery\STEmbeddedGUI\src\pictures.o
 .data          0x20000508        0x0 obj\.\externals\SM32F4-Discovery\STEmbeddedGUI\src\smile_image.o
 .data          0x20000508        0x0 obj\.\externals\SM32F4-Discovery\STEmbeddedGUI\src\touchscreen.o
 .data          0x20000508        0x0 obj\.\externals\SM32F4-Discovery\STEmbeddedGUI\src\uiappuser.o
 .data          0x20000508        0x0 obj\.\externals\SM32F4-Discovery\STEmbeddedGUI\src\uiframework.o
 .data          0x20000508        0x0 .\externals\libs\libstm32f4xx_peripherals.a(stm32f4xx_dma.o)
 .data          0x20000508        0x0 .\externals\libs\libstm32f4xx_peripherals.a(stm32f4xx_exti.o)
 .data          0x20000508        0x0 .\externals\libs\libstm32f4xx_peripherals.a(stm32f4xx_flash.o)
 .data          0x20000508        0x0 .\externals\libs\libstm32f4xx_peripherals.a(stm32f4xx_fsmc.o)
 .data          0x20000508        0x0 .\externals\libs\libstm32f4xx_peripherals.a(stm32f4xx_gpio.o)
 .data          0x20000508        0x0 .\externals\libs\libstm32f4xx_peripherals.a(stm32f4xx_i2c.o)
 .data          0x20000508       0x10 .\externals\libs\libstm32f4xx_peripherals.a(stm32f4xx_rcc.o)
 .data          0x20000518        0x0 .\externals\libs\libstm32f4xx_peripherals.a(stm32f4xx_spi.o)
 .data          0x20000518        0x0 .\externals\libs\libstm32f4xx_peripherals.a(stm32f4xx_syscfg.o)
 .data          0x20000518        0x0 .\externals\libs\libstm32f4xx_peripherals.a(stm32f4xx_tim.o)
 .data          0x20000518        0x0 .\externals\libs\libstm32f4xx_peripherals.a(stm32f4xx_usart.o)
 .data          0x20000518        0x0 .\externals\libs\libstm32f4xx_math.a(arm_cmplx_mag_squared_q15.o)
 .data          0x20000518        0x0 .\externals\libs\libstm32f4xx_math.a(arm_shift_q15.o)
 .data          0x20000518        0x0 .\externals\libs\libstm32f4xx_math.a(arm_fir_decimate_q15.o)
 .data          0x20000518        0x0 .\externals\libs\libstm32f4xx_math.a(arm_fir_q15.o)
 .data          0x20000518        0x0 .\externals\libs\libstm32f4xx_math.a(arm_cfft_radix4_q15.o)
 .data          0x20000518        0x0 .\externals\libs\libstm32f4xx_math.a(arm_cfft_radix4_init_q15.o)
 .data          0x20000518        0x0 .\externals\libs\libstm32f4xx_math.a(arm_common_tables.o)
 .data          0x20000518        0x0 d:/program files (x86)/gnu tools arm embedded/4.6 2012q4/bin/../lib/gcc/arm-none-eabi/4.6.2/../../../../arm-none-eabi/lib/armv7e-m/fpu\libm.a(lib_a-w_atan2.o)
 .data          0x20000518        0x0 d:/program files (x86)/gnu tools arm embedded/4.6 2012q4/bin/../lib/gcc/arm-none-eabi/4.6.2/../../../../arm-none-eabi/lib/armv7e-m/fpu\libm.a(lib_a-w_fmod.o)
 .data          0x20000518        0x0 d:/program files (x86)/gnu tools arm embedded/4.6 2012q4/bin/../lib/gcc/arm-none-eabi/4.6.2/../../../../arm-none-eabi/lib/armv7e-m/fpu\libm.a(lib_a-w_sqrt.o)
 .data          0x20000518        0x0 d:/program files (x86)/gnu tools arm embedded/4.6 2012q4/bin/../lib/gcc/arm-none-eabi/4.6.2/../../../../arm-none-eabi/lib/armv7e-m/fpu\libm.a(lib_a-e_atan2.o)
 .data          0x20000518        0x0 d:/program files (x86)/gnu tools arm embedded/4.6 2012q4/bin/../lib/gcc/arm-none-eabi/4.6.2/../../../../arm-none-eabi/lib/armv7e-m/fpu\libm.a(lib_a-e_fmod.o)
 .data          0x20000518        0x0 d:/program files (x86)/gnu tools arm embedded/4.6 2012q4/bin/../lib/gcc/arm-none-eabi/4.6.2/../../../../arm-none-eabi/lib/armv7e-m/fpu\libm.a(lib_a-e_sqrt.o)
 .data          0x20000518        0x0 d:/program files (x86)/gnu tools arm embedded/4.6 2012q4/bin/../lib/gcc/arm-none-eabi/4.6.2/../../../../arm-none-eabi/lib/armv7e-m/fpu\libm.a(lib_a-s_atan.o)
 .data          0x20000518        0x0 d:/program files (x86)/gnu tools arm embedded/4.6 2012q4/bin/../lib/gcc/arm-none-eabi/4.6.2/../../../../arm-none-eabi/lib/armv7e-m/fpu\libm.a(lib_a-s_fabs.o)
 .data          0x20000518        0x0 d:/program files (x86)/gnu tools arm embedded/4.6 2012q4/bin/../lib/gcc/arm-none-eabi/4.6.2/../../../../arm-none-eabi/lib/armv7e-m/fpu\libm.a(lib_a-s_fpclassify.o)
 .data          0x20000518        0x0 d:/program files (x86)/gnu tools arm embedded/4.6 2012q4/bin/../lib/gcc/arm-none-eabi/4.6.2/../../../../arm-none-eabi/lib/armv7e-m/fpu\libm.a(lib_a-s_lib_ver.o)
 .data          0x20000518        0x0 d:/program files (x86)/gnu tools arm embedded/4.6 2012q4/bin/../lib/gcc/arm-none-eabi/4.6.2/../../../../arm-none-eabi/lib/armv7e-m/fpu\libm.a(lib_a-s_matherr.o)
 .data          0x20000518        0x0 d:/program files (x86)/gnu tools arm embedded/4.6 2012q4/bin/../lib/gcc/arm-none-eabi/4.6.2/armv7e-m/fpu\libgcc.a(_arm_addsubdf3.o)
 .data          0x20000518        0x0 d:/program files (x86)/gnu tools arm embedded/4.6 2012q4/bin/../lib/gcc/arm-none-eabi/4.6.2/armv7e-m/fpu\libgcc.a(_arm_muldivdf3.o)
 .data          0x20000518        0x0 d:/program files (x86)/gnu tools arm embedded/4.6 2012q4/bin/../lib/gcc/arm-none-eabi/4.6.2/armv7e-m/fpu\libgcc.a(_arm_cmpdf2.o)
 .data          0x20000518        0x0 d:/program files (x86)/gnu tools arm embedded/4.6 2012q4/bin/../lib/gcc/arm-none-eabi/4.6.2/armv7e-m/fpu\libgcc.a(_arm_fixdfsi.o)
 .data          0x20000518        0x0 d:/program files (x86)/gnu tools arm embedded/4.6 2012q4/bin/../lib/gcc/arm-none-eabi/4.6.2/armv7e-m/fpu\libgcc.a(_arm_fixunsdfsi.o)
 .data          0x20000518        0x0 d:/program files (x86)/gnu tools arm embedded/4.6 2012q4/bin/../lib/gcc/arm-none-eabi/4.6.2/armv7e-m/fpu\libgcc.a(_arm_truncdfsf2.o)
 .data          0x20000518        0x0 d:/program files (x86)/gnu tools arm embedded/4.6 2012q4/bin/../lib/gcc/arm-none-eabi/4.6.2/../../../../arm-none-eabi/lib/armv7e-m/fpu\libc.a(lib_a-errno.o)
 .data          0x20000518        0x0 d:/program files (x86)/gnu tools arm embedded/4.6 2012q4/bin/../lib/gcc/arm-none-eabi/4.6.2/../../../../arm-none-eabi/lib/armv7e-m/fpu\libc.a(lib_a-impure.o)
 .data          0x20000518        0x0 d:/program files (x86)/gnu tools arm embedded/4.6 2012q4/bin/../lib/gcc/arm-none-eabi/4.6.2/../../../../arm-none-eabi/lib/armv7e-m/fpu\libc.a(lib_a-malloc.o)
 .data          0x20000518        0x0 d:/program files (x86)/gnu tools arm embedded/4.6 2012q4/bin/../lib/gcc/arm-none-eabi/4.6.2/../../../../arm-none-eabi/lib/armv7e-m/fpu\libc.a(lib_a-mallocr.o)
 .data          0x20000518        0x0 d:/program files (x86)/gnu tools arm embedded/4.6 2012q4/bin/../lib/gcc/arm-none-eabi/4.6.2/../../../../arm-none-eabi/lib/armv7e-m/fpu\libc.a(lib_a-memcpy.o)
 .data          0x20000518        0x0 d:/program files (x86)/gnu tools arm embedded/4.6 2012q4/bin/../lib/gcc/arm-none-eabi/4.6.2/../../../../arm-none-eabi/lib/armv7e-m/fpu\libc.a(lib_a-memset.o)
 .data          0x20000518        0x0 d:/program files (x86)/gnu tools arm embedded/4.6 2012q4/bin/../lib/gcc/arm-none-eabi/4.6.2/../../../../arm-none-eabi/lib/armv7e-m/fpu\libc.a(lib_a-mlock.o)
 .data          0x20000518        0x0 d:/program files (x86)/gnu tools arm embedded/4.6 2012q4/bin/../lib/gcc/arm-none-eabi/4.6.2/../../../../arm-none-eabi/lib/armv7e-m/fpu\libc.a(lib_a-sbrkr.o)
 .data          0x20000518        0x0 d:/program files (x86)/gnu tools arm embedded/4.6 2012q4/bin/../lib/gcc/arm-none-eabi/4.6.2/../../../../arm-none-eabi/lib/armv7e-m/fpu\libc.a(lib_a-sprintf.o)
 .data          0x20000518        0x0 d:/program files (x86)/gnu tools arm embedded/4.6 2012q4/bin/../lib/gcc/arm-none-eabi/4.6.2/../../../../arm-none-eabi/lib/armv7e-m/fpu\libc.a(lib_a-strlen.o)
 .data          0x20000518        0x0 d:/program files (x86)/gnu tools arm embedded/4.6 2012q4/bin/../lib/gcc/arm-none-eabi/4.6.2/../../../../arm-none-eabi/lib/armv7e-m/fpu\libc.a(lib_a-strncpy.o)
 .data          0x20000518        0x0 d:/program files (x86)/gnu tools arm embedded/4.6 2012q4/bin/../lib/gcc/arm-none-eabi/4.6.2/../../../../arm-none-eabi/lib/armv7e-m/fpu\libc.a(lib_a-svfprintf.o)
 .data          0x20000518        0x0 d:/program files (x86)/gnu tools arm embedded/4.6 2012q4/bin/../lib/gcc/arm-none-eabi/4.6.2/../../../../arm-none-eabi/lib/armv7e-m/fpu\libc.a(lib_a-dtoa.o)
 .data          0x20000518        0x0 d:/program files (x86)/gnu tools arm embedded/4.6 2012q4/bin/../lib/gcc/arm-none-eabi/4.6.2/../../../../arm-none-eabi/lib/armv7e-m/fpu\libc.a(lib_a-freer.o)
 .data          0x20000518        0x0 d:/program files (x86)/gnu tools arm embedded/4.6 2012q4/bin/../lib/gcc/arm-none-eabi/4.6.2/../../../../arm-none-eabi/lib/armv7e-m/fpu\libc.a(lib_a-locale.o)
 .data          0x20000518        0x0 d:/program files (x86)/gnu tools arm embedded/4.6 2012q4/bin/../lib/gcc/arm-none-eabi/4.6.2/../../../../arm-none-eabi/lib/armv7e-m/fpu\libc.a(lib_a-memchr.o)
 .data          0x20000518        0x0 d:/program files (x86)/gnu tools arm embedded/4.6 2012q4/bin/../lib/gcc/arm-none-eabi/4.6.2/../../../../arm-none-eabi/lib/armv7e-m/fpu\libc.a(lib_a-mprec.o)
 .data          0x20000518        0x0 d:/program files (x86)/gnu tools arm embedded/4.6 2012q4/bin/../lib/gcc/arm-none-eabi/4.6.2/../../../../arm-none-eabi/lib/armv7e-m/fpu\libc.a(lib_a-reent.o)
 .data          0x20000518        0x0 d:/program files (x86)/gnu tools arm embedded/4.6 2012q4/bin/../lib/gcc/arm-none-eabi/4.6.2/../../../../arm-none-eabi/lib/armv7e-m/fpu\libc.a(lib_a-strcmp.o)
 .data          0x20000518        0x0 d:/program files (x86)/gnu tools arm embedded/4.6 2012q4/bin/../lib/gcc/arm-none-eabi/4.6.2/../../../../arm-none-eabi/lib/armv7e-m/fpu\libc.a(lib_a-svfiprintf.o)
 .data          0x20000518        0x0 d:/program files (x86)/gnu tools arm embedded/4.6 2012q4/bin/../lib/gcc/arm-none-eabi/4.6.2/../../../../arm-none-eabi/lib/armv7e-m/fpu\libc.a(lib_a-callocr.o)
 .data          0x20000518        0x0 d:/program files (x86)/gnu tools arm embedded/4.6 2012q4/bin/../lib/gcc/arm-none-eabi/4.6.2/../../../../arm-none-eabi/lib/armv7e-m/fpu\libc.a(lib_a-memmove.o)
 .data          0x20000518        0x0 d:/program files (x86)/gnu tools arm embedded/4.6 2012q4/bin/../lib/gcc/arm-none-eabi/4.6.2/../../../../arm-none-eabi/lib/armv7e-m/fpu\libc.a(lib_a-reallocr.o)
 .data          0x20000518        0x0 d:/program files (x86)/gnu tools arm embedded/4.6 2012q4/bin/../lib/gcc/arm-none-eabi/4.6.2/armv7e-m/fpu\libgcc.a(_aeabi_uldivmod.o)
 .data          0x20000518        0x0 d:/program files (x86)/gnu tools arm embedded/4.6 2012q4/bin/../lib/gcc/arm-none-eabi/4.6.2/armv7e-m/fpu\libgcc.a(bpabi.o)
 .data          0x20000518        0x0 d:/program files (x86)/gnu tools arm embedded/4.6 2012q4/bin/../lib/gcc/arm-none-eabi/4.6.2/armv7e-m/fpu\libgcc.a(_dvmd_tls.o)
 .data          0x20000518        0x0 d:/program files (x86)/gnu tools arm embedded/4.6 2012q4/bin/../lib/gcc/arm-none-eabi/4.6.2/armv7e-m/fpu\libgcc.a(_divdi3.o)
 .data          0x20000518        0x0 d:/program files (x86)/gnu tools arm embedded/4.6 2012q4/bin/../lib/gcc/arm-none-eabi/4.6.2/armv7e-m/fpu\libgcc.a(_udivdi3.o)
 *(.data*)
 .data.__fdlib_version
                0x20000518        0x1 d:/program files (x86)/gnu tools arm embedded/4.6 2012q4/bin/../lib/gcc/arm-none-eabi/4.6.2/../../../../arm-none-eabi/lib/armv7e-m/fpu\libm.a(lib_a-s_lib_ver.o)
                0x20000518                __fdlib_version
 *fill*         0x20000519        0x7 00
 .data.impure_data
                0x20000520      0x428 d:/program files (x86)/gnu tools arm embedded/4.6 2012q4/bin/../lib/gcc/arm-none-eabi/4.6.2/../../../../arm-none-eabi/lib/armv7e-m/fpu\libc.a(lib_a-impure.o)
 .data._impure_ptr
                0x20000948        0x4 d:/program files (x86)/gnu tools arm embedded/4.6 2012q4/bin/../lib/gcc/arm-none-eabi/4.6.2/../../../../arm-none-eabi/lib/armv7e-m/fpu\libc.a(lib_a-impure.o)
                0x20000948                _impure_ptr
 .data.__malloc_av_
                0x2000094c      0x408 d:/program files (x86)/gnu tools arm embedded/4.6 2012q4/bin/../lib/gcc/arm-none-eabi/4.6.2/../../../../arm-none-eabi/lib/armv7e-m/fpu\libc.a(lib_a-mallocr.o)
                0x2000094c                __malloc_av_
 .data.__malloc_trim_threshold
                0x20000d54        0x4 d:/program files (x86)/gnu tools arm embedded/4.6 2012q4/bin/../lib/gcc/arm-none-eabi/4.6.2/../../../../arm-none-eabi/lib/armv7e-m/fpu\libc.a(lib_a-mallocr.o)
                0x20000d54                __malloc_trim_threshold
 .data.__malloc_sbrk_base
                0x20000d58        0x4 d:/program files (x86)/gnu tools arm embedded/4.6 2012q4/bin/../lib/gcc/arm-none-eabi/4.6.2/../../../../arm-none-eabi/lib/armv7e-m/fpu\libc.a(lib_a-mallocr.o)
                0x20000d58                __malloc_sbrk_base
 .data.lc_message_charset
                0x20000d5c       0x20 d:/program files (x86)/gnu tools arm embedded/4.6 2012q4/bin/../lib/gcc/arm-none-eabi/4.6.2/../../../../arm-none-eabi/lib/armv7e-m/fpu\libc.a(lib_a-locale.o)
 .data.lconv    0x20000d7c       0x38 d:/program files (x86)/gnu tools arm embedded/4.6 2012q4/bin/../lib/gcc/arm-none-eabi/4.6.2/../../../../arm-none-eabi/lib/armv7e-m/fpu\libc.a(lib_a-locale.o)
 .data.lc_ctype_charset
                0x20000db4       0x20 d:/program files (x86)/gnu tools arm embedded/4.6 2012q4/bin/../lib/gcc/arm-none-eabi/4.6.2/../../../../arm-none-eabi/lib/armv7e-m/fpu\libc.a(lib_a-locale.o)
 .data.__mb_cur_max
                0x20000dd4        0x4 d:/program files (x86)/gnu tools arm embedded/4.6 2012q4/bin/../lib/gcc/arm-none-eabi/4.6.2/../../../../arm-none-eabi/lib/armv7e-m/fpu\libc.a(lib_a-locale.o)
                0x20000dd4                __mb_cur_max
                0x20000dd8                . = ALIGN (0x4)
                0x20000dd8                _edata = .
                0x20000dd8                . = ALIGN (0x4)

.bss            0x20000dd8     0x738c load address 0x0805f090
                0x20000dd8                _sbss = .
                0x20000dd8                __bss_start__ = _sbss
 *(.bss)
 .bss           0x20000dd8        0x0 obj\.\startup\startup_stm32f4xx.o
 .bss           0x20000dd8        0x0 obj\.\src\AsciiLib.o
 .bss           0x20000dd8        0x0 obj\.\src\CW_Mod.o
 .bss           0x20000dd8        0x0 obj\.\src\ChangeOver.o
 .bss           0x20000dd8        0x0 obj\.\src\Codec_Gains.o
 .bss           0x20000dd8       0x18 obj\.\src\DMA_IRQ_Handler.o
 .bss           0x20000df0        0x0 obj\.\src\DMA_Test_Pins.o
 .bss           0x20000df0        0x0 obj\.\src\DSP_Processing.o
 .bss           0x20000df0        0x2 obj\.\src\Encoder_1.o
 .bss           0x20000df2        0x2 obj\.\src\Encoder_2.o
 .bss           0x20000df4        0x0 obj\.\src\FIR_Coefficients.o
 .bss           0x20000df4        0x0 obj\.\src\Init_Codec.o
 .bss           0x20000df4        0x0 obj\.\src\Init_DMA.o
 .bss           0x20000df4        0x0 obj\.\src\Init_I2C.o
 .bss           0x20000df4        0x0 obj\.\src\Init_I2S.o
 .bss           0x20000df4        0x2 obj\.\src\ModeSelect.o
                0x20000df4                Mode
 *fill*         0x20000df6        0x2 00
 .bss           0x20000df8       0x1c obj\.\src\PSKMod.o
                0x20000df8                m_Ramp
                0x20000dfc                m_pTail
                0x20000e00                m_pHead
 .bss           0x20000e14       0x34 obj\.\src\PSK_Det.o
 .bss           0x20000e48        0x0 obj\.\src\Si570.o
 .bss           0x20000e48        0x0 obj\.\src\Sine_table.o
 .bss           0x20000e48        0x0 obj\.\src\TFT_Display.o
 .bss           0x20000e48        0x1 obj\.\src\User_Button.o
                0x20000e48                BT_Flag
 .bss           0x20000e49        0x0 obj\.\src\eeprom.o
 .bss           0x20000e49        0x0 obj\.\src\main.o
 .bss           0x20000e49        0x0 obj\.\src\stm32f4_discovery.o
 .bss           0x20000e49        0x0 obj\.\src\stm32f4xx_it.o
 .bss           0x20000e49        0x0 obj\.\src\system_stm32f4xx.o
 *fill*         0x20000e49        0x1 00
 .bss           0x20000e4a        0x6 obj\.\src\touch_pad.o
                0x20000e4a                TouchCount
                0x20000e4c                DebounceCount
                0x20000e4e                Mode_Test
 .bss           0x20000e50        0x1 obj\.\src\uart.o
 *fill*         0x20000e51        0x3 00
 .bss           0x20000e54        0x4 obj\.\src\usb_bsp.o
                0x20000e54                BSP_delay
 .bss           0x20000e58        0x4 obj\.\src\usbh_usr.o
 .bss           0x20000e5c        0x4 obj\.\src\xprintf.o
 .bss           0x20000e60        0x0 obj\.\externals\SM32F4-Discovery\USB\src\misc.o
 .bss           0x20000e60        0x0 obj\.\externals\SM32F4-Discovery\USB\src\usb_core.o
 .bss           0x20000e60        0x0 obj\.\externals\SM32F4-Discovery\USB\src\usb_hcd.o
 .bss           0x20000e60        0x0 obj\.\externals\SM32F4-Discovery\USB\src\usb_hcd_int.o
 .bss           0x20000e60        0x8 obj\.\externals\SM32F4-Discovery\USB\src\usbh_core.o
                0x20000e60                Tab_State_Machine_incr
 .bss           0x20000e68        0x0 obj\.\externals\SM32F4-Discovery\USB\src\usbh_hcs.o
 .bss           0x20000e68        0x1 obj\.\externals\SM32F4-Discovery\USB\src\usbh_hid_core.o
                0x20000e68                start_toggle
 *fill*         0x20000e69        0x3 00
 .bss           0x20000e6c       0x20 obj\.\externals\SM32F4-Discovery\USB\src\usbh_hid_keybd.o
 .bss           0x20000e8c        0x0 obj\.\externals\SM32F4-Discovery\USB\src\usbh_ioreq.o
 .bss           0x20000e8c        0x4 obj\.\externals\SM32F4-Discovery\USB\src\usbh_stdreq.o
 .bss           0x20000e90        0x0 obj\.\externals\SM32F4-Discovery\STEmbeddedGUI\src\JoyHal.o
 .bss           0x20000e90       0x28 obj\.\externals\SM32F4-Discovery\STEmbeddedGUI\src\LcdDriver_ILI9320.o
                0x20000e90                LCD_textColor
 .bss           0x20000eb8        0x0 obj\.\externals\SM32F4-Discovery\STEmbeddedGUI\src\LcdHal.o
 .bss           0x20000eb8        0x0 obj\.\externals\SM32F4-Discovery\STEmbeddedGUI\src\TscHal.o
 .bss           0x20000eb8        0x0 obj\.\externals\SM32F4-Discovery\STEmbeddedGUI\src\cursor.o
 .bss           0x20000eb8        0x0 obj\.\externals\SM32F4-Discovery\STEmbeddedGUI\src\gl_fonts.o
 .bss           0x20000eb8       0x14 obj\.\externals\SM32F4-Discovery\STEmbeddedGUI\src\graphicObject.o
                0x20000ec0                vu32_gTimeOutCount
                0x20000ec4                vu8_gSleepState
                0x20000ec5                ValidTouchDetected
                0x20000ec6                touch_done
                0x20000ec7                joy_done
                0x20000ec8                calibration_done
 .bss           0x20000ecc        0x0 obj\.\externals\SM32F4-Discovery\STEmbeddedGUI\src\hw_config.o
 .bss           0x20000ecc        0x0 obj\.\externals\SM32F4-Discovery\STEmbeddedGUI\src\images.o
 .bss           0x20000ecc        0x0 obj\.\externals\SM32F4-Discovery\STEmbeddedGUI\src\main_GUI.o
 .bss           0x20000ecc        0x0 obj\.\externals\SM32F4-Discovery\STEmbeddedGUI\src\pictures.o
 .bss           0x20000ecc        0x0 obj\.\externals\SM32F4-Discovery\STEmbeddedGUI\src\smile_image.o
 .bss           0x20000ecc       0x2c obj\.\externals\SM32F4-Discovery\STEmbeddedGUI\src\touchscreen.o
                0x20000ecc                A2
                0x20000ed0                B2
                0x20000ed4                C2
                0x20000ed8                D2
                0x20000edc                E2
                0x20000ee0                F2
                0x20000ee4                EndAddr
                0x20000ee8                CalibrationAddr
                0x20000eec                EraseCounter
                0x20000ef0                FlashFree_Address
                0x20000ef4                NbrOfPage
 .bss           0x20000ef8        0x4 obj\.\externals\SM32F4-Discovery\STEmbeddedGUI\src\uiappuser.o
 .bss           0x20000efc        0x0 obj\.\externals\SM32F4-Discovery\STEmbeddedGUI\src\uiframework.o
 .bss           0x20000efc        0x0 .\externals\libs\libstm32f4xx_peripherals.a(stm32f4xx_dma.o)
 .bss           0x20000efc        0x0 .\externals\libs\libstm32f4xx_peripherals.a(stm32f4xx_exti.o)
 .bss           0x20000efc        0x0 .\externals\libs\libstm32f4xx_peripherals.a(stm32f4xx_flash.o)
 .bss           0x20000efc        0x0 .\externals\libs\libstm32f4xx_peripherals.a(stm32f4xx_fsmc.o)
 .bss           0x20000efc        0x0 .\externals\libs\libstm32f4xx_peripherals.a(stm32f4xx_gpio.o)
 .bss           0x20000efc        0x0 .\externals\libs\libstm32f4xx_peripherals.a(stm32f4xx_i2c.o)
 .bss           0x20000efc        0x0 .\externals\libs\libstm32f4xx_peripherals.a(stm32f4xx_rcc.o)
 .bss           0x20000efc        0x0 .\externals\libs\libstm32f4xx_peripherals.a(stm32f4xx_spi.o)
 .bss           0x20000efc        0x0 .\externals\libs\libstm32f4xx_peripherals.a(stm32f4xx_syscfg.o)
 .bss           0x20000efc        0x0 .\externals\libs\libstm32f4xx_peripherals.a(stm32f4xx_tim.o)
 .bss           0x20000efc        0x0 .\externals\libs\libstm32f4xx_peripherals.a(stm32f4xx_usart.o)
 .bss           0x20000efc        0x0 .\externals\libs\libstm32f4xx_math.a(arm_cmplx_mag_squared_q15.o)
 .bss           0x20000efc        0x0 .\externals\libs\libstm32f4xx_math.a(arm_shift_q15.o)
 .bss           0x20000efc        0x0 .\externals\libs\libstm32f4xx_math.a(arm_fir_decimate_q15.o)
 .bss           0x20000efc        0x0 .\externals\libs\libstm32f4xx_math.a(arm_fir_q15.o)
 .bss           0x20000efc        0x0 .\externals\libs\libstm32f4xx_math.a(arm_cfft_radix4_q15.o)
 .bss           0x20000efc        0x0 .\externals\libs\libstm32f4xx_math.a(arm_cfft_radix4_init_q15.o)
 .bss           0x20000efc        0x0 .\externals\libs\libstm32f4xx_math.a(arm_common_tables.o)
 .bss           0x20000efc        0x0 d:/program files (x86)/gnu tools arm embedded/4.6 2012q4/bin/../lib/gcc/arm-none-eabi/4.6.2/../../../../arm-none-eabi/lib/armv7e-m/fpu\libm.a(lib_a-w_atan2.o)
 .bss           0x20000efc        0x0 d:/program files (x86)/gnu tools arm embedded/4.6 2012q4/bin/../lib/gcc/arm-none-eabi/4.6.2/../../../../arm-none-eabi/lib/armv7e-m/fpu\libm.a(lib_a-w_fmod.o)
 .bss           0x20000efc        0x0 d:/program files (x86)/gnu tools arm embedded/4.6 2012q4/bin/../lib/gcc/arm-none-eabi/4.6.2/../../../../arm-none-eabi/lib/armv7e-m/fpu\libm.a(lib_a-w_sqrt.o)
 .bss           0x20000efc        0x0 d:/program files (x86)/gnu tools arm embedded/4.6 2012q4/bin/../lib/gcc/arm-none-eabi/4.6.2/../../../../arm-none-eabi/lib/armv7e-m/fpu\libm.a(lib_a-e_atan2.o)
 .bss           0x20000efc        0x0 d:/program files (x86)/gnu tools arm embedded/4.6 2012q4/bin/../lib/gcc/arm-none-eabi/4.6.2/../../../../arm-none-eabi/lib/armv7e-m/fpu\libm.a(lib_a-e_fmod.o)
 .bss           0x20000efc        0x0 d:/program files (x86)/gnu tools arm embedded/4.6 2012q4/bin/../lib/gcc/arm-none-eabi/4.6.2/../../../../arm-none-eabi/lib/armv7e-m/fpu\libm.a(lib_a-e_sqrt.o)
 .bss           0x20000efc        0x0 d:/program files (x86)/gnu tools arm embedded/4.6 2012q4/bin/../lib/gcc/arm-none-eabi/4.6.2/../../../../arm-none-eabi/lib/armv7e-m/fpu\libm.a(lib_a-s_atan.o)
 .bss           0x20000efc        0x0 d:/program files (x86)/gnu tools arm embedded/4.6 2012q4/bin/../lib/gcc/arm-none-eabi/4.6.2/../../../../arm-none-eabi/lib/armv7e-m/fpu\libm.a(lib_a-s_fabs.o)
 .bss           0x20000efc        0x0 d:/program files (x86)/gnu tools arm embedded/4.6 2012q4/bin/../lib/gcc/arm-none-eabi/4.6.2/../../../../arm-none-eabi/lib/armv7e-m/fpu\libm.a(lib_a-s_fpclassify.o)
 .bss           0x20000efc        0x0 d:/program files (x86)/gnu tools arm embedded/4.6 2012q4/bin/../lib/gcc/arm-none-eabi/4.6.2/../../../../arm-none-eabi/lib/armv7e-m/fpu\libm.a(lib_a-s_lib_ver.o)
 .bss           0x20000efc        0x0 d:/program files (x86)/gnu tools arm embedded/4.6 2012q4/bin/../lib/gcc/arm-none-eabi/4.6.2/../../../../arm-none-eabi/lib/armv7e-m/fpu\libm.a(lib_a-s_matherr.o)
 .bss           0x20000efc        0x0 d:/program files (x86)/gnu tools arm embedded/4.6 2012q4/bin/../lib/gcc/arm-none-eabi/4.6.2/armv7e-m/fpu\libgcc.a(_arm_addsubdf3.o)
 .bss           0x20000efc        0x0 d:/program files (x86)/gnu tools arm embedded/4.6 2012q4/bin/../lib/gcc/arm-none-eabi/4.6.2/armv7e-m/fpu\libgcc.a(_arm_muldivdf3.o)
 .bss           0x20000efc        0x0 d:/program files (x86)/gnu tools arm embedded/4.6 2012q4/bin/../lib/gcc/arm-none-eabi/4.6.2/armv7e-m/fpu\libgcc.a(_arm_cmpdf2.o)
 .bss           0x20000efc        0x0 d:/program files (x86)/gnu tools arm embedded/4.6 2012q4/bin/../lib/gcc/arm-none-eabi/4.6.2/armv7e-m/fpu\libgcc.a(_arm_fixdfsi.o)
 .bss           0x20000efc        0x0 d:/program files (x86)/gnu tools arm embedded/4.6 2012q4/bin/../lib/gcc/arm-none-eabi/4.6.2/armv7e-m/fpu\libgcc.a(_arm_fixunsdfsi.o)
 .bss           0x20000efc        0x0 d:/program files (x86)/gnu tools arm embedded/4.6 2012q4/bin/../lib/gcc/arm-none-eabi/4.6.2/armv7e-m/fpu\libgcc.a(_arm_truncdfsf2.o)
 .bss           0x20000efc        0x0 d:/program files (x86)/gnu tools arm embedded/4.6 2012q4/bin/../lib/gcc/arm-none-eabi/4.6.2/../../../../arm-none-eabi/lib/armv7e-m/fpu\libc.a(lib_a-errno.o)
 .bss           0x20000efc        0x0 d:/program files (x86)/gnu tools arm embedded/4.6 2012q4/bin/../lib/gcc/arm-none-eabi/4.6.2/../../../../arm-none-eabi/lib/armv7e-m/fpu\libc.a(lib_a-impure.o)
 .bss           0x20000efc        0x0 d:/program files (x86)/gnu tools arm embedded/4.6 2012q4/bin/../lib/gcc/arm-none-eabi/4.6.2/../../../../arm-none-eabi/lib/armv7e-m/fpu\libc.a(lib_a-malloc.o)
 .bss           0x20000efc        0x0 d:/program files (x86)/gnu tools arm embedded/4.6 2012q4/bin/../lib/gcc/arm-none-eabi/4.6.2/../../../../arm-none-eabi/lib/armv7e-m/fpu\libc.a(lib_a-mallocr.o)
 .bss           0x20000efc        0x0 d:/program files (x86)/gnu tools arm embedded/4.6 2012q4/bin/../lib/gcc/arm-none-eabi/4.6.2/../../../../arm-none-eabi/lib/armv7e-m/fpu\libc.a(lib_a-memcpy.o)
 .bss           0x20000efc        0x0 d:/program files (x86)/gnu tools arm embedded/4.6 2012q4/bin/../lib/gcc/arm-none-eabi/4.6.2/../../../../arm-none-eabi/lib/armv7e-m/fpu\libc.a(lib_a-memset.o)
 .bss           0x20000efc        0x0 d:/program files (x86)/gnu tools arm embedded/4.6 2012q4/bin/../lib/gcc/arm-none-eabi/4.6.2/../../../../arm-none-eabi/lib/armv7e-m/fpu\libc.a(lib_a-mlock.o)
 .bss           0x20000efc        0x0 d:/program files (x86)/gnu tools arm embedded/4.6 2012q4/bin/../lib/gcc/arm-none-eabi/4.6.2/../../../../arm-none-eabi/lib/armv7e-m/fpu\libc.a(lib_a-sbrkr.o)
 .bss           0x20000efc        0x0 d:/program files (x86)/gnu tools arm embedded/4.6 2012q4/bin/../lib/gcc/arm-none-eabi/4.6.2/../../../../arm-none-eabi/lib/armv7e-m/fpu\libc.a(lib_a-sprintf.o)
 .bss           0x20000efc        0x0 d:/program files (x86)/gnu tools arm embedded/4.6 2012q4/bin/../lib/gcc/arm-none-eabi/4.6.2/../../../../arm-none-eabi/lib/armv7e-m/fpu\libc.a(lib_a-strlen.o)
 .bss           0x20000efc        0x0 d:/program files (x86)/gnu tools arm embedded/4.6 2012q4/bin/../lib/gcc/arm-none-eabi/4.6.2/../../../../arm-none-eabi/lib/armv7e-m/fpu\libc.a(lib_a-strncpy.o)
 .bss           0x20000efc        0x0 d:/program files (x86)/gnu tools arm embedded/4.6 2012q4/bin/../lib/gcc/arm-none-eabi/4.6.2/../../../../arm-none-eabi/lib/armv7e-m/fpu\libc.a(lib_a-svfprintf.o)
 .bss           0x20000efc        0x0 d:/program files (x86)/gnu tools arm embedded/4.6 2012q4/bin/../lib/gcc/arm-none-eabi/4.6.2/../../../../arm-none-eabi/lib/armv7e-m/fpu\libc.a(lib_a-dtoa.o)
 .bss           0x20000efc        0x0 d:/program files (x86)/gnu tools arm embedded/4.6 2012q4/bin/../lib/gcc/arm-none-eabi/4.6.2/../../../../arm-none-eabi/lib/armv7e-m/fpu\libc.a(lib_a-freer.o)
 .bss           0x20000efc        0x0 d:/program files (x86)/gnu tools arm embedded/4.6 2012q4/bin/../lib/gcc/arm-none-eabi/4.6.2/../../../../arm-none-eabi/lib/armv7e-m/fpu\libc.a(lib_a-locale.o)
 .bss           0x20000efc        0x0 d:/program files (x86)/gnu tools arm embedded/4.6 2012q4/bin/../lib/gcc/arm-none-eabi/4.6.2/../../../../arm-none-eabi/lib/armv7e-m/fpu\libc.a(lib_a-memchr.o)
 .bss           0x20000efc        0x0 d:/program files (x86)/gnu tools arm embedded/4.6 2012q4/bin/../lib/gcc/arm-none-eabi/4.6.2/../../../../arm-none-eabi/lib/armv7e-m/fpu\libc.a(lib_a-mprec.o)
 .bss           0x20000efc        0x0 d:/program files (x86)/gnu tools arm embedded/4.6 2012q4/bin/../lib/gcc/arm-none-eabi/4.6.2/../../../../arm-none-eabi/lib/armv7e-m/fpu\libc.a(lib_a-reent.o)
 .bss           0x20000efc        0x0 d:/program files (x86)/gnu tools arm embedded/4.6 2012q4/bin/../lib/gcc/arm-none-eabi/4.6.2/../../../../arm-none-eabi/lib/armv7e-m/fpu\libc.a(lib_a-strcmp.o)
 .bss           0x20000efc        0x0 d:/program files (x86)/gnu tools arm embedded/4.6 2012q4/bin/../lib/gcc/arm-none-eabi/4.6.2/../../../../arm-none-eabi/lib/armv7e-m/fpu\libc.a(lib_a-svfiprintf.o)
 .bss           0x20000efc        0x0 d:/program files (x86)/gnu tools arm embedded/4.6 2012q4/bin/../lib/gcc/arm-none-eabi/4.6.2/../../../../arm-none-eabi/lib/armv7e-m/fpu\libc.a(lib_a-callocr.o)
 .bss           0x20000efc        0x0 d:/program files (x86)/gnu tools arm embedded/4.6 2012q4/bin/../lib/gcc/arm-none-eabi/4.6.2/../../../../arm-none-eabi/lib/armv7e-m/fpu\libc.a(lib_a-memmove.o)
 .bss           0x20000efc        0x0 d:/program files (x86)/gnu tools arm embedded/4.6 2012q4/bin/../lib/gcc/arm-none-eabi/4.6.2/../../../../arm-none-eabi/lib/armv7e-m/fpu\libc.a(lib_a-reallocr.o)
 .bss           0x20000efc        0x0 d:/program files (x86)/gnu tools arm embedded/4.6 2012q4/bin/../lib/gcc/arm-none-eabi/4.6.2/armv7e-m/fpu\libgcc.a(_aeabi_uldivmod.o)
 .bss           0x20000efc        0x0 d:/program files (x86)/gnu tools arm embedded/4.6 2012q4/bin/../lib/gcc/arm-none-eabi/4.6.2/armv7e-m/fpu\libgcc.a(bpabi.o)
 .bss           0x20000efc        0x0 d:/program files (x86)/gnu tools arm embedded/4.6 2012q4/bin/../lib/gcc/arm-none-eabi/4.6.2/armv7e-m/fpu\libgcc.a(_dvmd_tls.o)
 .bss           0x20000efc        0x0 d:/program files (x86)/gnu tools arm embedded/4.6 2012q4/bin/../lib/gcc/arm-none-eabi/4.6.2/armv7e-m/fpu\libgcc.a(_divdi3.o)
 .bss           0x20000efc        0x0 d:/program files (x86)/gnu tools arm embedded/4.6 2012q4/bin/../lib/gcc/arm-none-eabi/4.6.2/armv7e-m/fpu\libgcc.a(_udivdi3.o)
 *(.bss*)
 .bss.__malloc_max_total_mem
                0x20000efc        0x4 d:/program files (x86)/gnu tools arm embedded/4.6 2012q4/bin/../lib/gcc/arm-none-eabi/4.6.2/../../../../arm-none-eabi/lib/armv7e-m/fpu\libc.a(lib_a-mallocr.o)
                0x20000efc                __malloc_max_total_mem
 .bss.__malloc_max_sbrked_mem
                0x20000f00        0x4 d:/program files (x86)/gnu tools arm embedded/4.6 2012q4/bin/../lib/gcc/arm-none-eabi/4.6.2/../../../../arm-none-eabi/lib/armv7e-m/fpu\libc.a(lib_a-mallocr.o)
                0x20000f00                __malloc_max_sbrked_mem
 .bss.__malloc_top_pad
                0x20000f04        0x4 d:/program files (x86)/gnu tools arm embedded/4.6 2012q4/bin/../lib/gcc/arm-none-eabi/4.6.2/../../../../arm-none-eabi/lib/armv7e-m/fpu\libc.a(lib_a-mallocr.o)
                0x20000f04                __malloc_top_pad
 .bss.__malloc_current_mallinfo
                0x20000f08       0x28 d:/program files (x86)/gnu tools arm embedded/4.6 2012q4/bin/../lib/gcc/arm-none-eabi/4.6.2/../../../../arm-none-eabi/lib/armv7e-m/fpu\libc.a(lib_a-mallocr.o)
                0x20000f08                __malloc_current_mallinfo
 .bss._PathLocale
                0x20000f30        0x4 d:/program files (x86)/gnu tools arm embedded/4.6 2012q4/bin/../lib/gcc/arm-none-eabi/4.6.2/../../../../arm-none-eabi/lib/armv7e-m/fpu\libc.a(lib_a-locale.o)
                0x20000f30                _PathLocale
 .bss.__nlocale_changed
                0x20000f34        0x4 d:/program files (x86)/gnu tools arm embedded/4.6 2012q4/bin/../lib/gcc/arm-none-eabi/4.6.2/../../../../arm-none-eabi/lib/armv7e-m/fpu\libc.a(lib_a-locale.o)
                0x20000f34                __nlocale_changed
 .bss.__mlocale_changed
                0x20000f38        0x4 d:/program files (x86)/gnu tools arm embedded/4.6 2012q4/bin/../lib/gcc/arm-none-eabi/4.6.2/../../../../arm-none-eabi/lib/armv7e-m/fpu\libc.a(lib_a-locale.o)
                0x20000f38                __mlocale_changed
 *(COMMON)
 *fill*         0x20000f3c        0x4 00
 COMMON         0x20000f40       0xda obj\.\src\ChangeOver.o
                0x20000f40                rgain
                0x20000f44                DataMax
                0x20000f64                phase_adjust
                0x20000f68                Tx_Flag
                0x20000f6c                IQ_Unit
                0x20000f8c                S1
                0x20000f90                CW_Gain
                0x20000f94                T_lgain
                0x20000f98                m_SymbolRate
                0x20000fa0                x_NCOphzinc
                0x20000fa8                m_2PI
                0x20000fb0                DSP_Flag
                0x20000fb4                m_AddEndingZero
                0x20000fb8                IQ_Disp
                0x20000fbc                m_RMSConstant
                0x20000fc0                R_lgain
                0x20000fc4                DataMin
                0x20000fe4                R_xgain
                0x20000fe8                EEProm_Value2
                0x20000fea                read_SS2
                0x20000fec                S2
                0x20000ff0                Key_Down
                0x20000ff4                T_xgain
                0x20000ff8                IQData
                0x20001018                m_TxShiftReg
 *fill*         0x2000101a        0x6 00
 COMMON         0x20001020     0x508c obj\.\src\DMA_IRQ_Handler.o
                0x20001020                Filter_delay_I4
                0x200010a8                m_FreqSignal
                0x200010b8                Filter_delay_Q3
                0x2000113c                FIR_I_Out
                0x20001540                m_z2
                0x20001550                m_z1
                0x20001560                Sample_Frequency
                0x20001564                m_IQPhzIndex
                0x20001568                LCD_buffer
                0x20001590                ADC_Buffer
                0x20001990                m_PSKmode
                0x20001994                m_ClkErrCounter
                0x20001998                m_BitPhaseInc
                0x200019a0                FFT_Magnitude
                0x20001ba0                m_VcoPhz
                0x20001ba8                m_BitSignal
                0x20001bb8                Filter_delay_I3
                0x20001c3c                m_IMDValid
                0x20001c40                NCO_Frequency
                0x20001c48                m_SquelchSpeed
                0x20001c4c                USB_Out
                0x2000204c                FIR_I_In
                0x2000244c                m_AFCCaptureOn
                0x20002450                PSK_Gain
                0x20002458                m_SyncAve
                0x20002500                m_SQThresh
                0x20002508                IQ
                0x20002518                m_VaricodeDecTbl
                0x20002d18                DMA_RX_Memory
                0x20002d1c                LSB_Out
                0x2000311c                m_OffCount
                0x20003120                PSK_Tx
                0x20003124                m_LastPkPos
                0x20003128                m_PkPos
                0x20003130                m_NCOphzinc
                0x20003138                m_AFClimit
                0x20003140                m_FastAFCMode
                0x20003148                Samp
                0x20003158                m_SampleFreq
                0x20003160                i
                0x20003164                FIR_Q_In
                0x20003564                m_SampCnt
                0x20003568                m_LastBitZero
                0x2000356c                m_SQLevel
                0x20003570                m_IQPhaseArray
                0x200035c0                Filter_delay_I2
                0x2000360c                DMA_TX_Memory
                0x20003610                m_BitAcc
                0x20003614                Tx1BufferDMA
                0x20003e14                Rx1BufferDMA
                0x20004618                m_I1
                0x20004620                Filter_delay_Q4
                0x200046a8                m_QFreqError
                0x200046b0                Tx0BufferDMA
                0x20004eb0                m_I0
                0x20004eb8                m_OnCount
                0x20004ebc                FIR_Q_Out
                0x200052c0                newsamp
                0x200052d0                m_AGCave
                0x200052d8                key
                0x200052dc                m_Pcnt
                0x200052e0                m_AFCmode
                0x200052e4                Filter_delay_Q2
                0x20005330                m_FperrAve
                0x20005338                m_Ncnt
                0x20005340                m_FferrAve
                0x20005348                m_SQOpen
                0x20005350                m_Q0
                0x20005358                m_NLPk
                0x20005360                m_DevAve
                0x20005368                m_AFCTimer
                0x2000536c                Filter_delay_Q1
                0x200053b8                m_NewPkPos
                0x200053c0                m_AFCmin
                0x200053c8                m_BitPos
                0x200053cc                m_SampleClkAdj
                0x200053d0                m_BitPhasePos
                0x200053d8                m_AFCmax
                0x200053e0                Filter_delay_I1
                0x2000542c                m_ClkErrTimer
                0x20005430                m_Q1
                0x20005438                m_SyncArray
                0x20005488                Rx0BufferDMA
                0x20005c88                sample
                0x20005c98                m_ClkError
                0x20005c9c                FFT_Input
                0x200060a0                m_FreqError
                0x200060a8                Flag
 COMMON         0x200060ac     0x1214 obj\.\src\DSP_Processing.o
                0x200060ac                FFT_Test
                0x200064ac                FIR_State_I
                0x200069ac                FFT_Scale
                0x20006dac                FFT_status
                0x20006db0                FIR_State_Q
                0x200072b0                S_CFFT
 COMMON         0x200072c0       0xb1 obj\.\src\Encoder_1.o
                0x200072c0                RFREQ_FRAC
                0x200072c4                Freq_Max
                0x200072c8                si570_read
                0x200072d0                Freq_Disp
                0x200072d4                EEProm_Value1
                0x200072d8                N1
                0x200072e0                FXTAL
                0x200072e8                RFREQ
                0x200072f0                FOUT
                0x200072f8                F0
                0x20007300                HS_DIV
                0x20007304                EEProm_Value
                0x20007308                SI570_Chk
                0x2000730c                RFREQ_INT
                0x20007310                ENC_Sens1
                0x20007312                EEProm_Chk
                0x20007314                read_SS1
                0x20007318                Old_RFREQ
                0x20007320                Freq_Min
                0x20007324                Freq_Set
                0x20007364                F_Mult
                0x20007368                EXTI_InitStructure
                0x20007370                DIR1
 *fill*         0x20007371        0x1 00
 COMMON         0x20007372        0x4 obj\.\src\Encoder_2.o
                0x20007372                DIR2
                0x20007374                ENC_Sens2
 *fill*         0x20007376        0x2 00
 COMMON         0x20007378       0x1a obj\.\src\PSKMod.o
                0x20007378                XmitBuffer
 *fill*         0x20007392        0x6 00
 COMMON         0x20007398       0x10 obj\.\src\PSK_Det.o
                0x20007398                m_PSKPeriodUpdate
                0x200073a0                char_count
                0x200073a4                count
 COMMON         0x200073a8        0x6 obj\.\src\TFT_Display.o
                0x200073a8                Y_Point
                0x200073aa                X_Point
                0x200073ac                TouchFlag
 COMMON         0x200073ae        0x1 obj\.\src\User_Button.o
                0x200073ae                PB_State
 *fill*         0x200073af        0x1 00
 COMMON         0x200073b0      0x7b8 obj\.\src\main.o
                0x200073b0                old_SS2_position
                0x200073b4                USB_OTG_Core_dev
                0x20007960                FFT_Output
                0x200079e0                old_SS1_position
                0x200079e4                FFT_Display
                0x20007ae4                USB_Host
 COMMON         0x20007b68        0x4 obj\.\src\stm32f4_discovery.o
                0x20007b68                NVIC_InitStructure
 COMMON         0x20007b6c        0x4 obj\.\src\touch_pad.o
                0x20007b6c                screen
 COMMON         0x20007b70       0x28 obj\.\src\uart.o
                0x20007b70                received_string
 COMMON         0x20007b98        0x1 obj\.\src\usb_bsp.o
                0x20007b98                HSEStartUpStatus
 *fill*         0x20007b99        0x3 00
 COMMON         0x20007b9c        0x4 obj\.\src\xprintf.o
                0x20007b9c                xfunc_out
 COMMON         0x20007ba0       0x64 obj\.\externals\SM32F4-Discovery\USB\src\usbh_core.o
                0x20007ba0                Tab_State_Machine
 COMMON         0x20007c04       0xb0 obj\.\externals\SM32F4-Discovery\USB\src\usbh_hid_core.o
                0x20007c04                HID_Report
                0x20007c4c                HID_Machine
                0x20007ca0                HID_Desc
                0x20007cac                HID_Setup
 COMMON         0x20007cb4      0x200 obj\.\externals\SM32F4-Discovery\USB\src\usbh_stdreq.o
                0x20007cb4                USBH_CfgDesc
 COMMON         0x20007eb4       0x2c obj\.\externals\SM32F4-Discovery\STEmbeddedGUI\src\LcdHal.o
                0x20007eb4                GL_TextColor
                0x20007eb6                GL_BackColor
                0x20007eb8                pLcdHwParam
 COMMON         0x20007ee0       0x54 obj\.\externals\SM32F4-Discovery\STEmbeddedGUI\src\TscHal.o
                0x20007ee0                pTscHwParam
 COMMON         0x20007f34        0xc obj\.\externals\SM32F4-Discovery\STEmbeddedGUI\src\cursor.o
                0x20007f34                u32_TSXCoordinate
                0x20007f38                Cursor
                0x20007f3c                u32_TSYCoordinate
 COMMON         0x20007f40       0xc8 obj\.\externals\SM32F4-Discovery\STEmbeddedGUI\src\graphicObject.o
                0x20007f40                PagesList
 COMMON         0x20008008        0xc obj\.\externals\SM32F4-Discovery\STEmbeddedGUI\src\touchscreen.o
                0x20008008                TSC_Value_X
                0x2000800c                TSC_FlashStatus
                0x2000800d                TSC_MemoryProgramStatus
                0x20008010                TSC_Value_Y
 COMMON         0x20008014      0x14c obj\.\externals\SM32F4-Discovery\STEmbeddedGUI\src\uiframework.o
                0x20008014                LedCtrlScreen
                0x200080b8                LedControlExample
                0x2000815c                CurrentScreen
 COMMON         0x20008160        0x4 d:/program files (x86)/gnu tools arm embedded/4.6 2012q4/bin/../lib/gcc/arm-none-eabi/4.6.2/../../../../arm-none-eabi/lib/armv7e-m/fpu\libc.a(lib_a-reent.o)
                0x20008160                errno
                0x20008164                . = ALIGN (0x4)
                0x20008164                _ebss = .
                0x20008164                __bss_end__ = _ebss

._user_heap_stack
                0x20008164     0x4280 load address 0x0806641c
                0x20008164                . = ALIGN (0x4)
                0x20008164                PROVIDE (end, .)
                0x20008164                PROVIDE (_end, .)
                0x2000bfe4                . = (. + Heap_Size)
 *fill*         0x20008164     0x3e80 00
                0x2000c3e4                . = (. + Stack_Size)
 *fill*         0x2000bfe4      0x400 00
                0x2000c3e4                . = ALIGN (0x4)
                0x20008164                PROVIDE (__HEAP_START, _end)

.ramccm
 *(.ccmtext)
 *(.ccmtext*)
 *(.ccmrodata)
 *(.ccmrodata*)

/DISCARD/
 libc.a(*)
 libm.a(*)
 libgcc.a(*)

.ARM.attributes
                0x00000000       0x37
 *(.ARM.attributes)
 .ARM.attributes
                0x00000000       0x27 obj\.\startup\startup_stm32f4xx.o
 .ARM.attributes
                0x00000027       0x3b obj\.\src\AsciiLib.o
 .ARM.attributes
                0x00000062       0x3b obj\.\src\CW_Mod.o
 .ARM.attributes
                0x0000009d       0x3b obj\.\src\ChangeOver.o
 .ARM.attributes
                0x000000d8       0x3b obj\.\src\Codec_Gains.o
 .ARM.attributes
                0x00000113       0x3b obj\.\src\DMA_IRQ_Handler.o
 .ARM.attributes
                0x0000014e       0x3b obj\.\src\DMA_Test_Pins.o
 .ARM.attributes
                0x00000189       0x3b obj\.\src\DSP_Processing.o
 .ARM.attributes
                0x000001c4       0x3b obj\.\src\Encoder_1.o
 .ARM.attributes
                0x000001ff       0x3b obj\.\src\Encoder_2.o
 .ARM.attributes
                0x0000023a       0x3b obj\.\src\FIR_Coefficients.o
 .ARM.attributes
                0x00000275       0x3b obj\.\src\Init_Codec.o
 .ARM.attributes
                0x000002b0       0x3b obj\.\src\Init_DMA.o
 .ARM.attributes
                0x000002eb       0x3b obj\.\src\Init_I2C.o
 .ARM.attributes
                0x00000326       0x3b obj\.\src\Init_I2S.o
 .ARM.attributes
                0x00000361       0x3b obj\.\src\ModeSelect.o
 .ARM.attributes
                0x0000039c       0x3b obj\.\src\PSKMod.o
 .ARM.attributes
                0x000003d7       0x3b obj\.\src\PSK_Det.o
 .ARM.attributes
                0x00000412       0x3b obj\.\src\Si570.o
 .ARM.attributes
                0x0000044d       0x3b obj\.\src\Sine_table.o
 .ARM.attributes
                0x00000488       0x3b obj\.\src\TFT_Display.o
 .ARM.attributes
                0x000004c3       0x3b obj\.\src\User_Button.o
 .ARM.attributes
                0x000004fe       0x3b obj\.\src\eeprom.o
 .ARM.attributes
                0x00000539       0x3b obj\.\src\main.o
 .ARM.attributes
                0x00000574       0x3b obj\.\src\stm32f4_discovery.o
 .ARM.attributes
                0x000005af       0x3b obj\.\src\stm32f4xx_it.o
 .ARM.attributes
                0x000005ea       0x3b obj\.\src\system_stm32f4xx.o
 .ARM.attributes
                0x00000625       0x3b obj\.\src\touch_pad.o
 .ARM.attributes
                0x00000660       0x3b obj\.\src\uart.o
 .ARM.attributes
                0x0000069b       0x3b obj\.\src\usb_bsp.o
 .ARM.attributes
                0x000006d6       0x3b obj\.\src\usbh_usr.o
 .ARM.attributes
                0x00000711       0x3b obj\.\src\xprintf.o
 .ARM.attributes
                0x0000074c       0x3b obj\.\externals\SM32F4-Discovery\USB\src\misc.o
 .ARM.attributes
                0x00000787       0x3b obj\.\externals\SM32F4-Discovery\USB\src\usb_core.o
 .ARM.attributes
                0x000007c2       0x3b obj\.\externals\SM32F4-Discovery\USB\src\usb_hcd.o
 .ARM.attributes
                0x000007fd       0x3b obj\.\externals\SM32F4-Discovery\USB\src\usb_hcd_int.o
 .ARM.attributes
                0x00000838       0x3b obj\.\externals\SM32F4-Discovery\USB\src\usbh_core.o
 .ARM.attributes
                0x00000873       0x3b obj\.\externals\SM32F4-Discovery\USB\src\usbh_hcs.o
 .ARM.attributes
                0x000008ae       0x3b obj\.\externals\SM32F4-Discovery\USB\src\usbh_hid_core.o
 .ARM.attributes
                0x000008e9       0x3b obj\.\externals\SM32F4-Discovery\USB\src\usbh_hid_keybd.o
 .ARM.attributes
                0x00000924       0x3b obj\.\externals\SM32F4-Discovery\USB\src\usbh_ioreq.o
 .ARM.attributes
                0x0000095f       0x3b obj\.\externals\SM32F4-Discovery\USB\src\usbh_stdreq.o
 .ARM.attributes
                0x0000099a       0x3b obj\.\externals\SM32F4-Discovery\STEmbeddedGUI\src\JoyHal.o
 .ARM.attributes
                0x000009d5       0x3b obj\.\externals\SM32F4-Discovery\STEmbeddedGUI\src\LcdDriver_ILI9320.o
 .ARM.attributes
                0x00000a10       0x3b obj\.\externals\SM32F4-Discovery\STEmbeddedGUI\src\LcdHal.o
 .ARM.attributes
                0x00000a4b       0x3b obj\.\externals\SM32F4-Discovery\STEmbeddedGUI\src\TscHal.o
 .ARM.attributes
                0x00000a86       0x3b obj\.\externals\SM32F4-Discovery\STEmbeddedGUI\src\cursor.o
 .ARM.attributes
                0x00000ac1       0x3b obj\.\externals\SM32F4-Discovery\STEmbeddedGUI\src\gl_fonts.o
 .ARM.attributes
                0x00000afc       0x3b obj\.\externals\SM32F4-Discovery\STEmbeddedGUI\src\graphicObject.o
 .ARM.attributes
                0x00000b37       0x3b obj\.\externals\SM32F4-Discovery\STEmbeddedGUI\src\hw_config.o
 .ARM.attributes
                0x00000b72       0x3b obj\.\externals\SM32F4-Discovery\STEmbeddedGUI\src\images.o
 .ARM.attributes
                0x00000bad       0x3b obj\.\externals\SM32F4-Discovery\STEmbeddedGUI\src\main_GUI.o
 .ARM.attributes
                0x00000be8       0x3b obj\.\externals\SM32F4-Discovery\STEmbeddedGUI\src\pictures.o
 .ARM.attributes
                0x00000c23       0x3b obj\.\externals\SM32F4-Discovery\STEmbeddedGUI\src\smile_image.o
 .ARM.attributes
                0x00000c5e       0x3b obj\.\externals\SM32F4-Discovery\STEmbeddedGUI\src\touchscreen.o
 .ARM.attributes
                0x00000c99       0x3b obj\.\externals\SM32F4-Discovery\STEmbeddedGUI\src\uiappuser.o
 .ARM.attributes
                0x00000cd4       0x3b obj\.\externals\SM32F4-Discovery\STEmbeddedGUI\src\uiframework.o
 .ARM.attributes
                0x00000d0f       0x39 .\externals\libs\libstm32f4xx_peripherals.a(stm32f4xx_dma.o)
 .ARM.attributes
                0x00000d48       0x39 .\externals\libs\libstm32f4xx_peripherals.a(stm32f4xx_exti.o)
 .ARM.attributes
                0x00000d81       0x39 .\externals\libs\libstm32f4xx_peripherals.a(stm32f4xx_flash.o)
 .ARM.attributes
                0x00000dba       0x39 .\externals\libs\libstm32f4xx_peripherals.a(stm32f4xx_fsmc.o)
 .ARM.attributes
                0x00000df3       0x39 .\externals\libs\libstm32f4xx_peripherals.a(stm32f4xx_gpio.o)
 .ARM.attributes
                0x00000e2c       0x39 .\externals\libs\libstm32f4xx_peripherals.a(stm32f4xx_i2c.o)
 .ARM.attributes
                0x00000e65       0x39 .\externals\libs\libstm32f4xx_peripherals.a(stm32f4xx_rcc.o)
 .ARM.attributes
                0x00000e9e       0x39 .\externals\libs\libstm32f4xx_peripherals.a(stm32f4xx_spi.o)
 .ARM.attributes
                0x00000ed7       0x39 .\externals\libs\libstm32f4xx_peripherals.a(stm32f4xx_syscfg.o)
 .ARM.attributes
                0x00000f10       0x39 .\externals\libs\libstm32f4xx_peripherals.a(stm32f4xx_tim.o)
 .ARM.attributes
                0x00000f49       0x39 .\externals\libs\libstm32f4xx_peripherals.a(stm32f4xx_usart.o)
 .ARM.attributes
                0x00000f82       0x39 .\externals\libs\libstm32f4xx_math.a(arm_cmplx_mag_squared_q15.o)
 .ARM.attributes
                0x00000fbb       0x39 .\externals\libs\libstm32f4xx_math.a(arm_shift_q15.o)
 .ARM.attributes
                0x00000ff4       0x39 .\externals\libs\libstm32f4xx_math.a(arm_fir_decimate_q15.o)
 .ARM.attributes
                0x0000102d       0x39 .\externals\libs\libstm32f4xx_math.a(arm_fir_q15.o)
 .ARM.attributes
                0x00001066       0x39 .\externals\libs\libstm32f4xx_math.a(arm_cfft_radix4_q15.o)
 .ARM.attributes
                0x0000109f       0x39 .\externals\libs\libstm32f4xx_math.a(arm_cfft_radix4_init_q15.o)
 .ARM.attributes
                0x000010d8       0x39 .\externals\libs\libstm32f4xx_math.a(arm_common_tables.o)
 .ARM.attributes
                0x00001111       0x36 d:/program files (x86)/gnu tools arm embedded/4.6 2012q4/bin/../lib/gcc/arm-none-eabi/4.6.2/../../../../arm-none-eabi/lib/armv7e-m/fpu\libm.a(lib_a-w_atan2.o)
 .ARM.attributes
                0x00001147       0x36 d:/program files (x86)/gnu tools arm embedded/4.6 2012q4/bin/../lib/gcc/arm-none-eabi/4.6.2/../../../../arm-none-eabi/lib/armv7e-m/fpu\libm.a(lib_a-w_fmod.o)
 .ARM.attributes
                0x0000117d       0x36 d:/program files (x86)/gnu tools arm embedded/4.6 2012q4/bin/../lib/gcc/arm-none-eabi/4.6.2/../../../../arm-none-eabi/lib/armv7e-m/fpu\libm.a(lib_a-w_sqrt.o)
 .ARM.attributes
                0x000011b3       0x36 d:/program files (x86)/gnu tools arm embedded/4.6 2012q4/bin/../lib/gcc/arm-none-eabi/4.6.2/../../../../arm-none-eabi/lib/armv7e-m/fpu\libm.a(lib_a-e_atan2.o)
 .ARM.attributes
                0x000011e9       0x36 d:/program files (x86)/gnu tools arm embedded/4.6 2012q4/bin/../lib/gcc/arm-none-eabi/4.6.2/../../../../arm-none-eabi/lib/armv7e-m/fpu\libm.a(lib_a-e_fmod.o)
 .ARM.attributes
                0x0000121f       0x36 d:/program files (x86)/gnu tools arm embedded/4.6 2012q4/bin/../lib/gcc/arm-none-eabi/4.6.2/../../../../arm-none-eabi/lib/armv7e-m/fpu\libm.a(lib_a-e_sqrt.o)
 .ARM.attributes
                0x00001255       0x36 d:/program files (x86)/gnu tools arm embedded/4.6 2012q4/bin/../lib/gcc/arm-none-eabi/4.6.2/../../../../arm-none-eabi/lib/armv7e-m/fpu\libm.a(lib_a-s_atan.o)
 .ARM.attributes
                0x0000128b       0x36 d:/program files (x86)/gnu tools arm embedded/4.6 2012q4/bin/../lib/gcc/arm-none-eabi/4.6.2/../../../../arm-none-eabi/lib/armv7e-m/fpu\libm.a(lib_a-s_fabs.o)
 .ARM.attributes
                0x000012c1       0x36 d:/program files (x86)/gnu tools arm embedded/4.6 2012q4/bin/../lib/gcc/arm-none-eabi/4.6.2/../../../../arm-none-eabi/lib/armv7e-m/fpu\libm.a(lib_a-s_fpclassify.o)
 .ARM.attributes
                0x000012f7       0x36 d:/program files (x86)/gnu tools arm embedded/4.6 2012q4/bin/../lib/gcc/arm-none-eabi/4.6.2/../../../../arm-none-eabi/lib/armv7e-m/fpu\libm.a(lib_a-s_lib_ver.o)
 .ARM.attributes
                0x0000132d       0x36 d:/program files (x86)/gnu tools arm embedded/4.6 2012q4/bin/../lib/gcc/arm-none-eabi/4.6.2/../../../../arm-none-eabi/lib/armv7e-m/fpu\libm.a(lib_a-s_matherr.o)
 .ARM.attributes
                0x00001363       0x24 d:/program files (x86)/gnu tools arm embedded/4.6 2012q4/bin/../lib/gcc/arm-none-eabi/4.6.2/armv7e-m/fpu\libgcc.a(_arm_addsubdf3.o)
 .ARM.attributes
                0x00001387       0x24 d:/program files (x86)/gnu tools arm embedded/4.6 2012q4/bin/../lib/gcc/arm-none-eabi/4.6.2/armv7e-m/fpu\libgcc.a(_arm_muldivdf3.o)
 .ARM.attributes
                0x000013ab       0x24 d:/program files (x86)/gnu tools arm embedded/4.6 2012q4/bin/../lib/gcc/arm-none-eabi/4.6.2/armv7e-m/fpu\libgcc.a(_arm_cmpdf2.o)
 .ARM.attributes
                0x000013cf       0x24 d:/program files (x86)/gnu tools arm embedded/4.6 2012q4/bin/../lib/gcc/arm-none-eabi/4.6.2/armv7e-m/fpu\libgcc.a(_arm_fixdfsi.o)
 .ARM.attributes
                0x000013f3       0x24 d:/program files (x86)/gnu tools arm embedded/4.6 2012q4/bin/../lib/gcc/arm-none-eabi/4.6.2/armv7e-m/fpu\libgcc.a(_arm_fixunsdfsi.o)
 .ARM.attributes
                0x00001417       0x24 d:/program files (x86)/gnu tools arm embedded/4.6 2012q4/bin/../lib/gcc/arm-none-eabi/4.6.2/armv7e-m/fpu\libgcc.a(_arm_truncdfsf2.o)
 .ARM.attributes
                0x0000143b       0x36 d:/program files (x86)/gnu tools arm embedded/4.6 2012q4/bin/../lib/gcc/arm-none-eabi/4.6.2/../../../../arm-none-eabi/lib/armv7e-m/fpu\libc.a(lib_a-errno.o)
 .ARM.attributes
                0x00001471       0x36 d:/program files (x86)/gnu tools arm embedded/4.6 2012q4/bin/../lib/gcc/arm-none-eabi/4.6.2/../../../../arm-none-eabi/lib/armv7e-m/fpu\libc.a(lib_a-impure.o)
 .ARM.attributes
                0x000014a7       0x36 d:/program files (x86)/gnu tools arm embedded/4.6 2012q4/bin/../lib/gcc/arm-none-eabi/4.6.2/../../../../arm-none-eabi/lib/armv7e-m/fpu\libc.a(lib_a-malloc.o)
 .ARM.attributes
                0x000014dd       0x36 d:/program files (x86)/gnu tools arm embedded/4.6 2012q4/bin/../lib/gcc/arm-none-eabi/4.6.2/../../../../arm-none-eabi/lib/armv7e-m/fpu\libc.a(lib_a-mallocr.o)
 .ARM.attributes
                0x00001513       0x36 d:/program files (x86)/gnu tools arm embedded/4.6 2012q4/bin/../lib/gcc/arm-none-eabi/4.6.2/../../../../arm-none-eabi/lib/armv7e-m/fpu\libc.a(lib_a-memcpy.o)
 .ARM.attributes
                0x00001549       0x36 d:/program files (x86)/gnu tools arm embedded/4.6 2012q4/bin/../lib/gcc/arm-none-eabi/4.6.2/../../../../arm-none-eabi/lib/armv7e-m/fpu\libc.a(lib_a-memset.o)
 .ARM.attributes
                0x0000157f       0x36 d:/program files (x86)/gnu tools arm embedded/4.6 2012q4/bin/../lib/gcc/arm-none-eabi/4.6.2/../../../../arm-none-eabi/lib/armv7e-m/fpu\libc.a(lib_a-mlock.o)
 .ARM.attributes
                0x000015b5       0x36 d:/program files (x86)/gnu tools arm embedded/4.6 2012q4/bin/../lib/gcc/arm-none-eabi/4.6.2/../../../../arm-none-eabi/lib/armv7e-m/fpu\libc.a(lib_a-sbrkr.o)
 .ARM.attributes
                0x000015eb       0x36 d:/program files (x86)/gnu tools arm embedded/4.6 2012q4/bin/../lib/gcc/arm-none-eabi/4.6.2/../../../../arm-none-eabi/lib/armv7e-m/fpu\libc.a(lib_a-sprintf.o)
 .ARM.attributes
                0x00001621       0x36 d:/program files (x86)/gnu tools arm embedded/4.6 2012q4/bin/../lib/gcc/arm-none-eabi/4.6.2/../../../../arm-none-eabi/lib/armv7e-m/fpu\libc.a(lib_a-strlen.o)
 .ARM.attributes
                0x00001657       0x36 d:/program files (x86)/gnu tools arm embedded/4.6 2012q4/bin/../lib/gcc/arm-none-eabi/4.6.2/../../../../arm-none-eabi/lib/armv7e-m/fpu\libc.a(lib_a-strncpy.o)
 .ARM.attributes
                0x0000168d       0x36 d:/program files (x86)/gnu tools arm embedded/4.6 2012q4/bin/../lib/gcc/arm-none-eabi/4.6.2/../../../../arm-none-eabi/lib/armv7e-m/fpu\libc.a(lib_a-svfprintf.o)
 .ARM.attributes
                0x000016c3       0x36 d:/program files (x86)/gnu tools arm embedded/4.6 2012q4/bin/../lib/gcc/arm-none-eabi/4.6.2/../../../../arm-none-eabi/lib/armv7e-m/fpu\libc.a(lib_a-dtoa.o)
 .ARM.attributes
                0x000016f9       0x36 d:/program files (x86)/gnu tools arm embedded/4.6 2012q4/bin/../lib/gcc/arm-none-eabi/4.6.2/../../../../arm-none-eabi/lib/armv7e-m/fpu\libc.a(lib_a-freer.o)
 .ARM.attributes
                0x0000172f       0x36 d:/program files (x86)/gnu tools arm embedded/4.6 2012q4/bin/../lib/gcc/arm-none-eabi/4.6.2/../../../../arm-none-eabi/lib/armv7e-m/fpu\libc.a(lib_a-locale.o)
 .ARM.attributes
                0x00001765       0x36 d:/program files (x86)/gnu tools arm embedded/4.6 2012q4/bin/../lib/gcc/arm-none-eabi/4.6.2/../../../../arm-none-eabi/lib/armv7e-m/fpu\libc.a(lib_a-memchr.o)
 .ARM.attributes
                0x0000179b       0x36 d:/program files (x86)/gnu tools arm embedded/4.6 2012q4/bin/../lib/gcc/arm-none-eabi/4.6.2/../../../../arm-none-eabi/lib/armv7e-m/fpu\libc.a(lib_a-mprec.o)
 .ARM.attributes
                0x000017d1       0x36 d:/program files (x86)/gnu tools arm embedded/4.6 2012q4/bin/../lib/gcc/arm-none-eabi/4.6.2/../../../../arm-none-eabi/lib/armv7e-m/fpu\libc.a(lib_a-reent.o)
 .ARM.attributes
                0x00001807       0x36 d:/program files (x86)/gnu tools arm embedded/4.6 2012q4/bin/../lib/gcc/arm-none-eabi/4.6.2/../../../../arm-none-eabi/lib/armv7e-m/fpu\libc.a(lib_a-strcmp.o)
 .ARM.attributes
                0x0000183d       0x36 d:/program files (x86)/gnu tools arm embedded/4.6 2012q4/bin/../lib/gcc/arm-none-eabi/4.6.2/../../../../arm-none-eabi/lib/armv7e-m/fpu\libc.a(lib_a-svfiprintf.o)
 .ARM.attributes
                0x00001873       0x36 d:/program files (x86)/gnu tools arm embedded/4.6 2012q4/bin/../lib/gcc/arm-none-eabi/4.6.2/../../../../arm-none-eabi/lib/armv7e-m/fpu\libc.a(lib_a-callocr.o)
 .ARM.attributes
                0x000018a9       0x36 d:/program files (x86)/gnu tools arm embedded/4.6 2012q4/bin/../lib/gcc/arm-none-eabi/4.6.2/../../../../arm-none-eabi/lib/armv7e-m/fpu\libc.a(lib_a-memmove.o)
 .ARM.attributes
                0x000018df       0x36 d:/program files (x86)/gnu tools arm embedded/4.6 2012q4/bin/../lib/gcc/arm-none-eabi/4.6.2/../../../../arm-none-eabi/lib/armv7e-m/fpu\libc.a(lib_a-reallocr.o)
 .ARM.attributes
                0x00001915       0x24 d:/program files (x86)/gnu tools arm embedded/4.6 2012q4/bin/../lib/gcc/arm-none-eabi/4.6.2/armv7e-m/fpu\libgcc.a(_aeabi_uldivmod.o)
 .ARM.attributes
                0x00001939       0x36 d:/program files (x86)/gnu tools arm embedded/4.6 2012q4/bin/../lib/gcc/arm-none-eabi/4.6.2/armv7e-m/fpu\libgcc.a(bpabi.o)
 .ARM.attributes
                0x0000196f       0x24 d:/program files (x86)/gnu tools arm embedded/4.6 2012q4/bin/../lib/gcc/arm-none-eabi/4.6.2/armv7e-m/fpu\libgcc.a(_dvmd_tls.o)
 .ARM.attributes
                0x00001993       0x36 d:/program files (x86)/gnu tools arm embedded/4.6 2012q4/bin/../lib/gcc/arm-none-eabi/4.6.2/armv7e-m/fpu\libgcc.a(_divdi3.o)
 .ARM.attributes
                0x000019c9       0x36 d:/program files (x86)/gnu tools arm embedded/4.6 2012q4/bin/../lib/gcc/arm-none-eabi/4.6.2/armv7e-m/fpu\libgcc.a(_udivdi3.o)
OUTPUT(STM32-SDR_rom.elf elf32-littlearm)

.debug_line     0x00000000     0xb1b7
 .debug_line    0x00000000       0x72 obj\.\startup\startup_stm32f4xx.o
 .debug_line    0x00000072        0x0 obj\.\src\AsciiLib.o
 .debug_line    0x00000072      0x196 obj\.\src\CW_Mod.o
 .debug_line    0x00000208      0x207 obj\.\src\ChangeOver.o
 .debug_line    0x0000040f       0xa2 obj\.\src\Codec_Gains.o
 .debug_line    0x000004b1      0x58c obj\.\src\DMA_IRQ_Handler.o
 .debug_line    0x00000a3d      0x19e obj\.\src\DMA_Test_Pins.o
 .debug_line    0x00000bdb      0x181 obj\.\src\DSP_Processing.o
 .debug_line    0x00000d5c      0x3ef obj\.\src\Encoder_1.o
 .debug_line    0x0000114b      0x3e6 obj\.\src\Encoder_2.o
 .debug_line    0x00001531       0xfd obj\.\src\FIR_Coefficients.o
 .debug_line    0x0000162e      0x1ff obj\.\src\Init_Codec.o
 .debug_line    0x0000182d      0x1e0 obj\.\src\Init_DMA.o
 .debug_line    0x00001a0d      0x365 obj\.\src\Init_I2C.o
 .debug_line    0x00001d72      0x1c3 obj\.\src\Init_I2S.o
 .debug_line    0x00001f35      0x17e obj\.\src\ModeSelect.o
 .debug_line    0x000020b3      0x155 obj\.\src\PSKMod.o
 .debug_line    0x00002208      0x45e obj\.\src\PSK_Det.o
 .debug_line    0x00002666      0x250 obj\.\src\Si570.o
 .debug_line    0x000028b6       0x45 obj\.\src\Sine_table.o
 .debug_line    0x000028fb      0x31f obj\.\src\TFT_Display.o
 .debug_line    0x00002c1a      0x1f9 obj\.\src\User_Button.o
 .debug_line    0x00002e13      0x1ed obj\.\src\eeprom.o
 .debug_line    0x00003000      0x2e5 obj\.\src\main.o
 .debug_line    0x000032e5      0x20d obj\.\src\stm32f4_discovery.o
 .debug_line    0x000034f2      0x1df obj\.\src\stm32f4xx_it.o
 .debug_line    0x000036d1      0x1c8 obj\.\src\system_stm32f4xx.o
 .debug_line    0x00003899      0x3d9 obj\.\src\touch_pad.o
 .debug_line    0x00003c72      0x236 obj\.\src\uart.o
 .debug_line    0x00003ea8      0x28f obj\.\src\usb_bsp.o
 .debug_line    0x00004137      0x1b2 obj\.\src\usbh_usr.o
 .debug_line    0x000042e9      0x23d obj\.\src\xprintf.o
 .debug_line    0x00004526      0x1cb obj\.\externals\SM32F4-Discovery\USB\src\misc.o
 .debug_line    0x000046f1      0x44d obj\.\externals\SM32F4-Discovery\USB\src\usb_core.o
 .debug_line    0x00004b3e      0x1cd obj\.\externals\SM32F4-Discovery\USB\src\usb_hcd.o
 .debug_line    0x00004d0b      0x35e obj\.\externals\SM32F4-Discovery\USB\src\usb_hcd_int.o
 .debug_line    0x00005069      0x32e obj\.\externals\SM32F4-Discovery\USB\src\usbh_core.o
 .debug_line    0x00005397      0x1d6 obj\.\externals\SM32F4-Discovery\USB\src\usbh_hcs.o
 .debug_line    0x0000556d      0x2be obj\.\externals\SM32F4-Discovery\USB\src\usbh_hid_core.o
 .debug_line    0x0000582b      0x1cd obj\.\externals\SM32F4-Discovery\USB\src\usbh_hid_keybd.o
 .debug_line    0x000059f8      0x214 obj\.\externals\SM32F4-Discovery\USB\src\usbh_ioreq.o
 .debug_line    0x00005c0c      0x2cf obj\.\externals\SM32F4-Discovery\USB\src\usbh_stdreq.o
 .debug_line    0x00005edb        0x0 obj\.\externals\SM32F4-Discovery\STEmbeddedGUI\src\JoyHal.o
 .debug_line    0x00005edb      0x483 obj\.\externals\SM32F4-Discovery\STEmbeddedGUI\src\LcdDriver_ILI9320.o
 .debug_line    0x0000635e      0x2b3 obj\.\externals\SM32F4-Discovery\STEmbeddedGUI\src\LcdHal.o
 .debug_line    0x00006611      0x2f9 obj\.\externals\SM32F4-Discovery\STEmbeddedGUI\src\TscHal.o
 .debug_line    0x0000690a      0x21d obj\.\externals\SM32F4-Discovery\STEmbeddedGUI\src\cursor.o
 .debug_line    0x00006b27      0x121 obj\.\externals\SM32F4-Discovery\STEmbeddedGUI\src\gl_fonts.o
 .debug_line    0x00006c48      0xe49 obj\.\externals\SM32F4-Discovery\STEmbeddedGUI\src\graphicObject.o
 .debug_line    0x00007a91      0x132 obj\.\externals\SM32F4-Discovery\STEmbeddedGUI\src\hw_config.o
 .debug_line    0x00007bc3      0x11c obj\.\externals\SM32F4-Discovery\STEmbeddedGUI\src\images.o
 .debug_line    0x00007cdf      0x245 obj\.\externals\SM32F4-Discovery\STEmbeddedGUI\src\main_GUI.o
 .debug_line    0x00007f24        0x0 obj\.\externals\SM32F4-Discovery\STEmbeddedGUI\src\pictures.o
 .debug_line    0x00007f24       0x5d obj\.\externals\SM32F4-Discovery\STEmbeddedGUI\src\smile_image.o
 .debug_line    0x00007f81      0x399 obj\.\externals\SM32F4-Discovery\STEmbeddedGUI\src\touchscreen.o
 .debug_line    0x0000831a      0x1db obj\.\externals\SM32F4-Discovery\STEmbeddedGUI\src\uiappuser.o
 .debug_line    0x000084f5      0x20e obj\.\externals\SM32F4-Discovery\STEmbeddedGUI\src\uiframework.o
 .debug_line    0x00008703      0x20d .\externals\libs\libstm32f4xx_peripherals.a(stm32f4xx_dma.o)
 .debug_line    0x00008910      0x15d .\externals\libs\libstm32f4xx_peripherals.a(stm32f4xx_exti.o)
 .debug_line    0x00008a6d      0x21a .\externals\libs\libstm32f4xx_peripherals.a(stm32f4xx_flash.o)
 .debug_line    0x00008c87      0x281 .\externals\libs\libstm32f4xx_peripherals.a(stm32f4xx_fsmc.o)
 .debug_line    0x00008f08      0x1a4 .\externals\libs\libstm32f4xx_peripherals.a(stm32f4xx_gpio.o)
 .debug_line    0x000090ac      0x281 .\externals\libs\libstm32f4xx_peripherals.a(stm32f4xx_i2c.o)
 .debug_line    0x0000932d      0x281 .\externals\libs\libstm32f4xx_peripherals.a(stm32f4xx_rcc.o)
 .debug_line    0x000095ae      0x266 .\externals\libs\libstm32f4xx_peripherals.a(stm32f4xx_spi.o)
 .debug_line    0x00009814      0x11e .\externals\libs\libstm32f4xx_peripherals.a(stm32f4xx_syscfg.o)
 .debug_line    0x00009932      0x594 .\externals\libs\libstm32f4xx_peripherals.a(stm32f4xx_tim.o)
 .debug_line    0x00009ec6      0x29b .\externals\libs\libstm32f4xx_peripherals.a(stm32f4xx_usart.o)
 .debug_line    0x0000a161      0x1a0 .\externals\libs\libstm32f4xx_math.a(arm_cmplx_mag_squared_q15.o)
 .debug_line    0x0000a301      0x15d .\externals\libs\libstm32f4xx_math.a(arm_shift_q15.o)
 .debug_line    0x0000a45e      0x1a7 .\externals\libs\libstm32f4xx_math.a(arm_fir_decimate_q15.o)
 .debug_line    0x0000a605      0x280 .\externals\libs\libstm32f4xx_math.a(arm_fir_q15.o)
 .debug_line    0x0000a885      0x75f .\externals\libs\libstm32f4xx_math.a(arm_cfft_radix4_q15.o)
 .debug_line    0x0000afe4      0x113 .\externals\libs\libstm32f4xx_math.a(arm_cfft_radix4_init_q15.o)
 .debug_line    0x0000b0f7       0xc0 .\externals\libs\libstm32f4xx_math.a(arm_common_tables.o)

.debug_info     0x00000000    0x2fde6
 .debug_info    0x00000000       0x69 obj\.\startup\startup_stm32f4xx.o
 .debug_info    0x00000069      0x2af obj\.\src\CW_Mod.o
 .debug_info    0x00000318      0x541 obj\.\src\ChangeOver.o
 .debug_info    0x00000859      0x1e3 obj\.\src\Codec_Gains.o
 .debug_info    0x00000a3c      0xffc obj\.\src\DMA_IRQ_Handler.o
 .debug_info    0x00001a38      0x2af obj\.\src\DMA_Test_Pins.o
 .debug_info    0x00001ce7      0xd42 obj\.\src\DSP_Processing.o
 .debug_info    0x00002a29      0x9ce obj\.\src\Encoder_1.o
 .debug_info    0x000033f7      0x88c obj\.\src\Encoder_2.o
 .debug_info    0x00003c83      0x12a obj\.\src\FIR_Coefficients.o
 .debug_info    0x00003dad      0x30a obj\.\src\Init_Codec.o
 .debug_info    0x000040b7      0x6e4 obj\.\src\Init_DMA.o
 .debug_info    0x0000479b      0x6a2 obj\.\src\Init_I2C.o
 .debug_info    0x00004e3d      0x496 obj\.\src\Init_I2S.o
 .debug_info    0x000052d3      0x11d obj\.\src\ModeSelect.o
 .debug_info    0x000053f0      0xa28 obj\.\src\PSKMod.o
 .debug_info    0x00005e18     0x13f8 obj\.\src\PSK_Det.o
 .debug_info    0x00007210      0x4be obj\.\src\Si570.o
 .debug_info    0x000076ce      0x683 obj\.\src\Sine_table.o
 .debug_info    0x00007d51      0xf7f obj\.\src\TFT_Display.o
 .debug_info    0x00008cd0      0xa8b obj\.\src\User_Button.o
 .debug_info    0x0000975b      0x428 obj\.\src\eeprom.o
 .debug_info    0x00009b83     0x21bb obj\.\src\main.o
 .debug_info    0x0000bd3e      0x965 obj\.\src\stm32f4_discovery.o
 .debug_info    0x0000c6a3     0x1452 obj\.\src\stm32f4xx_it.o
 .debug_info    0x0000daf5      0x61d obj\.\src\system_stm32f4xx.o
 .debug_info    0x0000e112     0x13e1 obj\.\src\touch_pad.o
 .debug_info    0x0000f4f3      0xa15 obj\.\src\uart.o
 .debug_info    0x0000ff08     0x12ee obj\.\src\usb_bsp.o
 .debug_info    0x000111f6      0x693 obj\.\src\usbh_usr.o
 .debug_info    0x00011889      0x39e obj\.\src\xprintf.o
 .debug_info    0x00011c27      0x594 obj\.\externals\SM32F4-Discovery\USB\src\misc.o
 .debug_info    0x000121bb     0x2146 obj\.\externals\SM32F4-Discovery\USB\src\usb_core.o
 .debug_info    0x00014301      0xd13 obj\.\externals\SM32F4-Discovery\USB\src\usb_hcd.o
 .debug_info    0x00015014     0x1f27 obj\.\externals\SM32F4-Discovery\USB\src\usb_hcd_int.o
 .debug_info    0x00016f3b     0x16c5 obj\.\externals\SM32F4-Discovery\USB\src\usbh_core.o
 .debug_info    0x00018600      0xb91 obj\.\externals\SM32F4-Discovery\USB\src\usbh_hcs.o
 .debug_info    0x00019191     0x1a15 obj\.\externals\SM32F4-Discovery\USB\src\usbh_hid_core.o
 .debug_info    0x0001aba6      0x27f obj\.\externals\SM32F4-Discovery\USB\src\usbh_hid_keybd.o
 .debug_info    0x0001ae25     0x16db obj\.\externals\SM32F4-Discovery\USB\src\usbh_ioreq.o
 .debug_info    0x0001c500     0x18fe obj\.\externals\SM32F4-Discovery\USB\src\usbh_stdreq.o
 .debug_info    0x0001ddfe     0x1223 obj\.\externals\SM32F4-Discovery\STEmbeddedGUI\src\LcdDriver_ILI9320.o
 .debug_info    0x0001f021      0xa27 obj\.\externals\SM32F4-Discovery\STEmbeddedGUI\src\LcdHal.o
 .debug_info    0x0001fa48      0xf95 obj\.\externals\SM32F4-Discovery\STEmbeddedGUI\src\TscHal.o
 .debug_info    0x000209dd      0x2f6 obj\.\externals\SM32F4-Discovery\STEmbeddedGUI\src\cursor.o
 .debug_info    0x00020cd3      0x28b obj\.\externals\SM32F4-Discovery\STEmbeddedGUI\src\gl_fonts.o
 .debug_info    0x00020f5e     0x33af obj\.\externals\SM32F4-Discovery\STEmbeddedGUI\src\graphicObject.o
 .debug_info    0x0002430d       0xb3 obj\.\externals\SM32F4-Discovery\STEmbeddedGUI\src\hw_config.o
 .debug_info    0x000243c0      0x333 obj\.\externals\SM32F4-Discovery\STEmbeddedGUI\src\images.o
 .debug_info    0x000246f3      0x780 obj\.\externals\SM32F4-Discovery\STEmbeddedGUI\src\main_GUI.o
 .debug_info    0x00024e73       0xbd obj\.\externals\SM32F4-Discovery\STEmbeddedGUI\src\smile_image.o
 .debug_info    0x00024f30      0xa57 obj\.\externals\SM32F4-Discovery\STEmbeddedGUI\src\touchscreen.o
 .debug_info    0x00025987      0x195 obj\.\externals\SM32F4-Discovery\STEmbeddedGUI\src\uiappuser.o
 .debug_info    0x00025b1c      0x499 obj\.\externals\SM32F4-Discovery\STEmbeddedGUI\src\uiframework.o
 .debug_info    0x00025fb5      0x78f .\externals\libs\libstm32f4xx_peripherals.a(stm32f4xx_dma.o)
 .debug_info    0x00026744      0x36c .\externals\libs\libstm32f4xx_peripherals.a(stm32f4xx_exti.o)
 .debug_info    0x00026ab0      0x7ad .\externals\libs\libstm32f4xx_peripherals.a(stm32f4xx_flash.o)
 .debug_info    0x0002725d      0x99f .\externals\libs\libstm32f4xx_peripherals.a(stm32f4xx_fsmc.o)
 .debug_info    0x00027bfc      0x629 .\externals\libs\libstm32f4xx_peripherals.a(stm32f4xx_gpio.o)
 .debug_info    0x00028225      0xb67 .\externals\libs\libstm32f4xx_peripherals.a(stm32f4xx_i2c.o)
 .debug_info    0x00028d8c      0xd01 .\externals\libs\libstm32f4xx_peripherals.a(stm32f4xx_rcc.o)
 .debug_info    0x00029a8d      0xbb5 .\externals\libs\libstm32f4xx_peripherals.a(stm32f4xx_spi.o)
 .debug_info    0x0002a642      0x275 .\externals\libs\libstm32f4xx_peripherals.a(stm32f4xx_syscfg.o)
 .debug_info    0x0002a8b7     0x1e96 .\externals\libs\libstm32f4xx_peripherals.a(stm32f4xx_tim.o)
 .debug_info    0x0002c74d      0xa2a .\externals\libs\libstm32f4xx_peripherals.a(stm32f4xx_usart.o)
 .debug_info    0x0002d177      0x3d9 .\externals\libs\libstm32f4xx_math.a(arm_cmplx_mag_squared_q15.o)
 .debug_info    0x0002d550      0x2e7 .\externals\libs\libstm32f4xx_math.a(arm_shift_q15.o)
 .debug_info    0x0002d837      0x34d .\externals\libs\libstm32f4xx_math.a(arm_fir_decimate_q15.o)
 .debug_info    0x0002db84      0x714 .\externals\libs\libstm32f4xx_math.a(arm_fir_q15.o)
 .debug_info    0x0002e298     0x17d8 .\externals\libs\libstm32f4xx_math.a(arm_cfft_radix4_q15.o)
 .debug_info    0x0002fa70      0x240 .\externals\libs\libstm32f4xx_math.a(arm_cfft_radix4_init_q15.o)
 .debug_info    0x0002fcb0      0x136 .\externals\libs\libstm32f4xx_math.a(arm_common_tables.o)

.debug_abbrev   0x00000000     0x6987
 .debug_abbrev  0x00000000       0x12 obj\.\startup\startup_stm32f4xx.o
 .debug_abbrev  0x00000012        0x1 obj\.\src\AsciiLib.o
 .debug_abbrev  0x00000013       0xfe obj\.\src\CW_Mod.o
 .debug_abbrev  0x00000111      0x146 obj\.\src\ChangeOver.o
 .debug_abbrev  0x00000257       0x65 obj\.\src\Codec_Gains.o
 .debug_abbrev  0x000002bc      0x1c2 obj\.\src\DMA_IRQ_Handler.o
 .debug_abbrev  0x0000047e       0xfe obj\.\src\DMA_Test_Pins.o
 .debug_abbrev  0x0000057c      0x15d obj\.\src\DSP_Processing.o
 .debug_abbrev  0x000006d9      0x1bb obj\.\src\Encoder_1.o
 .debug_abbrev  0x00000894      0x186 obj\.\src\Encoder_2.o
 .debug_abbrev  0x00000a1a       0x78 obj\.\src\FIR_Coefficients.o
 .debug_abbrev  0x00000a92      0x113 obj\.\src\Init_Codec.o
 .debug_abbrev  0x00000ba5      0x137 obj\.\src\Init_DMA.o
 .debug_abbrev  0x00000cdc      0x1d5 obj\.\src\Init_I2C.o
 .debug_abbrev  0x00000eb1      0x10d obj\.\src\Init_I2S.o
 .debug_abbrev  0x00000fbe       0x9c obj\.\src\ModeSelect.o
 .debug_abbrev  0x0000105a      0x16f obj\.\src\PSKMod.o
 .debug_abbrev  0x000011c9      0x203 obj\.\src\PSK_Det.o
 .debug_abbrev  0x000013cc      0x14c obj\.\src\Si570.o
 .debug_abbrev  0x00001518       0xd0 obj\.\src\Sine_table.o
 .debug_abbrev  0x000015e8      0x1ec obj\.\src\TFT_Display.o
 .debug_abbrev  0x000017d4      0x1be obj\.\src\User_Button.o
 .debug_abbrev  0x00001992       0xe0 obj\.\src\eeprom.o
 .debug_abbrev  0x00001a72      0x266 obj\.\src\main.o
 .debug_abbrev  0x00001cd8      0x176 obj\.\src\stm32f4_discovery.o
 .debug_abbrev  0x00001e4e      0x1c9 obj\.\src\stm32f4xx_it.o
 .debug_abbrev  0x00002017      0x140 obj\.\src\system_stm32f4xx.o
 .debug_abbrev  0x00002157      0x2ae obj\.\src\touch_pad.o
 .debug_abbrev  0x00002405      0x1c5 obj\.\src\uart.o
 .debug_abbrev  0x000025ca      0x210 obj\.\src\usb_bsp.o
 .debug_abbrev  0x000027da      0x19c obj\.\src\usbh_usr.o
 .debug_abbrev  0x00002976      0x120 obj\.\src\xprintf.o
 .debug_abbrev  0x00002a96      0x126 obj\.\externals\SM32F4-Discovery\USB\src\misc.o
 .debug_abbrev  0x00002bbc      0x24f obj\.\externals\SM32F4-Discovery\USB\src\usb_core.o
 .debug_abbrev  0x00002e0b      0x183 obj\.\externals\SM32F4-Discovery\USB\src\usb_hcd.o
 .debug_abbrev  0x00002f8e      0x239 obj\.\externals\SM32F4-Discovery\USB\src\usb_hcd_int.o
 .debug_abbrev  0x000031c7      0x24d obj\.\externals\SM32F4-Discovery\USB\src\usbh_core.o
 .debug_abbrev  0x00003414      0x16b obj\.\externals\SM32F4-Discovery\USB\src\usbh_hcs.o
 .debug_abbrev  0x0000357f      0x272 obj\.\externals\SM32F4-Discovery\USB\src\usbh_hid_core.o
 .debug_abbrev  0x000037f1      0x10c obj\.\externals\SM32F4-Discovery\USB\src\usbh_hid_keybd.o
 .debug_abbrev  0x000038fd      0x1ee obj\.\externals\SM32F4-Discovery\USB\src\usbh_ioreq.o
 .debug_abbrev  0x00003aeb      0x248 obj\.\externals\SM32F4-Discovery\USB\src\usbh_stdreq.o
 .debug_abbrev  0x00003d33        0x1 obj\.\externals\SM32F4-Discovery\STEmbeddedGUI\src\JoyHal.o
 .debug_abbrev  0x00003d34      0x2a2 obj\.\externals\SM32F4-Discovery\STEmbeddedGUI\src\LcdDriver_ILI9320.o
 .debug_abbrev  0x00003fd6      0x220 obj\.\externals\SM32F4-Discovery\STEmbeddedGUI\src\LcdHal.o
 .debug_abbrev  0x000041f6      0x1fc obj\.\externals\SM32F4-Discovery\STEmbeddedGUI\src\TscHal.o
 .debug_abbrev  0x000043f2      0x112 obj\.\externals\SM32F4-Discovery\STEmbeddedGUI\src\cursor.o
 .debug_abbrev  0x00004504       0xbb obj\.\externals\SM32F4-Discovery\STEmbeddedGUI\src\gl_fonts.o
 .debug_abbrev  0x000045bf      0x28f obj\.\externals\SM32F4-Discovery\STEmbeddedGUI\src\graphicObject.o
 .debug_abbrev  0x0000484e       0x64 obj\.\externals\SM32F4-Discovery\STEmbeddedGUI\src\hw_config.o
 .debug_abbrev  0x000048b2       0x93 obj\.\externals\SM32F4-Discovery\STEmbeddedGUI\src\images.o
 .debug_abbrev  0x00004945      0x184 obj\.\externals\SM32F4-Discovery\STEmbeddedGUI\src\main_GUI.o
 .debug_abbrev  0x00004ac9        0x1 obj\.\externals\SM32F4-Discovery\STEmbeddedGUI\src\pictures.o
 .debug_abbrev  0x00004aca       0x6e obj\.\externals\SM32F4-Discovery\STEmbeddedGUI\src\smile_image.o
 .debug_abbrev  0x00004b38      0x19a obj\.\externals\SM32F4-Discovery\STEmbeddedGUI\src\touchscreen.o
 .debug_abbrev  0x00004cd2       0xca obj\.\externals\SM32F4-Discovery\STEmbeddedGUI\src\uiappuser.o
 .debug_abbrev  0x00004d9c      0x170 obj\.\externals\SM32F4-Discovery\STEmbeddedGUI\src\uiframework.o
 .debug_abbrev  0x00004f0c      0x19c .\externals\libs\libstm32f4xx_peripherals.a(stm32f4xx_dma.o)
 .debug_abbrev  0x000050a8      0x1cd .\externals\libs\libstm32f4xx_peripherals.a(stm32f4xx_exti.o)
 .debug_abbrev  0x00005275      0x21e .\externals\libs\libstm32f4xx_peripherals.a(stm32f4xx_flash.o)
 .debug_abbrev  0x00005493      0x1b2 .\externals\libs\libstm32f4xx_peripherals.a(stm32f4xx_fsmc.o)
 .debug_abbrev  0x00005645      0x1ce .\externals\libs\libstm32f4xx_peripherals.a(stm32f4xx_gpio.o)
 .debug_abbrev  0x00005813      0x194 .\externals\libs\libstm32f4xx_peripherals.a(stm32f4xx_i2c.o)
 .debug_abbrev  0x000059a7      0x1f6 .\externals\libs\libstm32f4xx_peripherals.a(stm32f4xx_rcc.o)
 .debug_abbrev  0x00005b9d      0x1ac .\externals\libs\libstm32f4xx_peripherals.a(stm32f4xx_spi.o)
 .debug_abbrev  0x00005d49      0x150 .\externals\libs\libstm32f4xx_peripherals.a(stm32f4xx_syscfg.o)
 .debug_abbrev  0x00005e99      0x23d .\externals\libs\libstm32f4xx_peripherals.a(stm32f4xx_tim.o)
 .debug_abbrev  0x000060d6      0x1ab .\externals\libs\libstm32f4xx_peripherals.a(stm32f4xx_usart.o)
 .debug_abbrev  0x00006281       0xe8 .\externals\libs\libstm32f4xx_math.a(arm_cmplx_mag_squared_q15.o)
 .debug_abbrev  0x00006369       0xb7 .\externals\libs\libstm32f4xx_math.a(arm_shift_q15.o)
 .debug_abbrev  0x00006420       0xef .\externals\libs\libstm32f4xx_math.a(arm_fir_decimate_q15.o)
 .debug_abbrev  0x0000650f      0x103 .\externals\libs\libstm32f4xx_math.a(arm_fir_q15.o)
 .debug_abbrev  0x00006612      0x1f1 .\externals\libs\libstm32f4xx_math.a(arm_cfft_radix4_q15.o)
 .debug_abbrev  0x00006803      0x116 .\externals\libs\libstm32f4xx_math.a(arm_cfft_radix4_init_q15.o)
 .debug_abbrev  0x00006919       0x6e .\externals\libs\libstm32f4xx_math.a(arm_common_tables.o)

.debug_aranges  0x00000000      0x848
 .debug_aranges
                0x00000000       0x28 obj\.\startup\startup_stm32f4xx.o
 .debug_aranges
                0x00000028       0x20 obj\.\src\CW_Mod.o
 .debug_aranges
                0x00000048       0x20 obj\.\src\ChangeOver.o
 .debug_aranges
                0x00000068       0x20 obj\.\src\Codec_Gains.o
 .debug_aranges
                0x00000088       0x20 obj\.\src\DMA_IRQ_Handler.o
 .debug_aranges
                0x000000a8       0x20 obj\.\src\DMA_Test_Pins.o
 .debug_aranges
                0x000000c8       0x20 obj\.\src\DSP_Processing.o
 .debug_aranges
                0x000000e8       0x20 obj\.\src\Encoder_1.o
 .debug_aranges
                0x00000108       0x20 obj\.\src\Encoder_2.o
 .debug_aranges
                0x00000128       0x20 obj\.\src\Init_Codec.o
 .debug_aranges
                0x00000148       0x20 obj\.\src\Init_DMA.o
 .debug_aranges
                0x00000168       0x20 obj\.\src\Init_I2C.o
 .debug_aranges
                0x00000188       0x20 obj\.\src\Init_I2S.o
 .debug_aranges
                0x000001a8       0x20 obj\.\src\ModeSelect.o
 .debug_aranges
                0x000001c8       0x20 obj\.\src\PSKMod.o
 .debug_aranges
                0x000001e8       0x20 obj\.\src\PSK_Det.o
 .debug_aranges
                0x00000208       0x20 obj\.\src\Si570.o
 .debug_aranges
                0x00000228       0x20 obj\.\src\TFT_Display.o
 .debug_aranges
                0x00000248       0x20 obj\.\src\User_Button.o
 .debug_aranges
                0x00000268       0x20 obj\.\src\eeprom.o
 .debug_aranges
                0x00000288       0x20 obj\.\src\main.o
 .debug_aranges
                0x000002a8       0x20 obj\.\src\stm32f4_discovery.o
 .debug_aranges
                0x000002c8       0x20 obj\.\src\stm32f4xx_it.o
 .debug_aranges
                0x000002e8       0x20 obj\.\src\system_stm32f4xx.o
 .debug_aranges
                0x00000308       0x20 obj\.\src\touch_pad.o
 .debug_aranges
                0x00000328       0x20 obj\.\src\uart.o
 .debug_aranges
                0x00000348       0x20 obj\.\src\usb_bsp.o
 .debug_aranges
                0x00000368       0x20 obj\.\src\usbh_usr.o
 .debug_aranges
                0x00000388       0x20 obj\.\src\xprintf.o
 .debug_aranges
                0x000003a8       0x20 obj\.\externals\SM32F4-Discovery\USB\src\misc.o
 .debug_aranges
                0x000003c8       0x20 obj\.\externals\SM32F4-Discovery\USB\src\usb_core.o
 .debug_aranges
                0x000003e8       0x20 obj\.\externals\SM32F4-Discovery\USB\src\usb_hcd.o
 .debug_aranges
                0x00000408       0x20 obj\.\externals\SM32F4-Discovery\USB\src\usb_hcd_int.o
 .debug_aranges
                0x00000428       0x20 obj\.\externals\SM32F4-Discovery\USB\src\usbh_core.o
 .debug_aranges
                0x00000448       0x20 obj\.\externals\SM32F4-Discovery\USB\src\usbh_hcs.o
 .debug_aranges
                0x00000468       0x20 obj\.\externals\SM32F4-Discovery\USB\src\usbh_hid_core.o
 .debug_aranges
                0x00000488       0x20 obj\.\externals\SM32F4-Discovery\USB\src\usbh_hid_keybd.o
 .debug_aranges
                0x000004a8       0x20 obj\.\externals\SM32F4-Discovery\USB\src\usbh_ioreq.o
 .debug_aranges
                0x000004c8       0x20 obj\.\externals\SM32F4-Discovery\USB\src\usbh_stdreq.o
 .debug_aranges
                0x000004e8       0x20 obj\.\externals\SM32F4-Discovery\STEmbeddedGUI\src\LcdDriver_ILI9320.o
 .debug_aranges
                0x00000508       0x20 obj\.\externals\SM32F4-Discovery\STEmbeddedGUI\src\LcdHal.o
 .debug_aranges
                0x00000528       0x20 obj\.\externals\SM32F4-Discovery\STEmbeddedGUI\src\TscHal.o
 .debug_aranges
                0x00000548       0x20 obj\.\externals\SM32F4-Discovery\STEmbeddedGUI\src\cursor.o
 .debug_aranges
                0x00000568       0x20 obj\.\externals\SM32F4-Discovery\STEmbeddedGUI\src\graphicObject.o
 .debug_aranges
                0x00000588       0x20 obj\.\externals\SM32F4-Discovery\STEmbeddedGUI\src\hw_config.o
 .debug_aranges
                0x000005a8       0x20 obj\.\externals\SM32F4-Discovery\STEmbeddedGUI\src\main_GUI.o
 .debug_aranges
                0x000005c8       0x20 obj\.\externals\SM32F4-Discovery\STEmbeddedGUI\src\touchscreen.o
 .debug_aranges
                0x000005e8       0x20 obj\.\externals\SM32F4-Discovery\STEmbeddedGUI\src\uiappuser.o
 .debug_aranges
                0x00000608       0x20 obj\.\externals\SM32F4-Discovery\STEmbeddedGUI\src\uiframework.o
 .debug_aranges
                0x00000628       0x20 .\externals\libs\libstm32f4xx_peripherals.a(stm32f4xx_dma.o)
 .debug_aranges
                0x00000648       0x20 .\externals\libs\libstm32f4xx_peripherals.a(stm32f4xx_exti.o)
 .debug_aranges
                0x00000668       0x20 .\externals\libs\libstm32f4xx_peripherals.a(stm32f4xx_flash.o)
 .debug_aranges
                0x00000688       0x20 .\externals\libs\libstm32f4xx_peripherals.a(stm32f4xx_fsmc.o)
 .debug_aranges
                0x000006a8       0x20 .\externals\libs\libstm32f4xx_peripherals.a(stm32f4xx_gpio.o)
 .debug_aranges
                0x000006c8       0x20 .\externals\libs\libstm32f4xx_peripherals.a(stm32f4xx_i2c.o)
 .debug_aranges
                0x000006e8       0x20 .\externals\libs\libstm32f4xx_peripherals.a(stm32f4xx_rcc.o)
 .debug_aranges
                0x00000708       0x20 .\externals\libs\libstm32f4xx_peripherals.a(stm32f4xx_spi.o)
 .debug_aranges
                0x00000728       0x20 .\externals\libs\libstm32f4xx_peripherals.a(stm32f4xx_syscfg.o)
 .debug_aranges
                0x00000748       0x20 .\externals\libs\libstm32f4xx_peripherals.a(stm32f4xx_tim.o)
 .debug_aranges
                0x00000768       0x20 .\externals\libs\libstm32f4xx_peripherals.a(stm32f4xx_usart.o)
 .debug_aranges
                0x00000788       0x20 .\externals\libs\libstm32f4xx_math.a(arm_cmplx_mag_squared_q15.o)
 .debug_aranges
                0x000007a8       0x20 .\externals\libs\libstm32f4xx_math.a(arm_shift_q15.o)
 .debug_aranges
                0x000007c8       0x20 .\externals\libs\libstm32f4xx_math.a(arm_fir_decimate_q15.o)
 .debug_aranges
                0x000007e8       0x20 .\externals\libs\libstm32f4xx_math.a(arm_fir_q15.o)
 .debug_aranges
                0x00000808       0x20 .\externals\libs\libstm32f4xx_math.a(arm_cfft_radix4_q15.o)
 .debug_aranges
                0x00000828       0x20 .\externals\libs\libstm32f4xx_math.a(arm_cfft_radix4_init_q15.o)

.debug_ranges   0x00000000      0x4c0
 .debug_ranges  0x00000000       0x20 obj\.\startup\startup_stm32f4xx.o
 .debug_ranges  0x00000020       0x60 .\externals\libs\libstm32f4xx_peripherals.a(stm32f4xx_tim.o)
 .debug_ranges  0x00000080       0xc8 .\externals\libs\libstm32f4xx_math.a(arm_shift_q15.o)
 .debug_ranges  0x00000148       0x68 .\externals\libs\libstm32f4xx_math.a(arm_fir_decimate_q15.o)
 .debug_ranges  0x000001b0      0x110 .\externals\libs\libstm32f4xx_math.a(arm_fir_q15.o)
 .debug_ranges  0x000002c0      0x200 .\externals\libs\libstm32f4xx_math.a(arm_cfft_radix4_q15.o)

.comment        0x00000000       0xaa
 .comment       0x00000000       0x70 obj\.\src\AsciiLib.o
                                 0x71 (size before relaxing)
 .comment       0x00000000       0x71 obj\.\src\CW_Mod.o
 .comment       0x00000000       0x71 obj\.\src\ChangeOver.o
 .comment       0x00000000       0x71 obj\.\src\Codec_Gains.o
 .comment       0x00000000       0x71 obj\.\src\DMA_IRQ_Handler.o
 .comment       0x00000000       0x71 obj\.\src\DMA_Test_Pins.o
 .comment       0x00000000       0x71 obj\.\src\DSP_Processing.o
 .comment       0x00000000       0x71 obj\.\src\Encoder_1.o
 .comment       0x00000000       0x71 obj\.\src\Encoder_2.o
 .comment       0x00000000       0x71 obj\.\src\FIR_Coefficients.o
 .comment       0x00000000       0x71 obj\.\src\Init_Codec.o
 .comment       0x00000000       0x71 obj\.\src\Init_DMA.o
 .comment       0x00000000       0x71 obj\.\src\Init_I2C.o
 .comment       0x00000000       0x71 obj\.\src\Init_I2S.o
 .comment       0x00000000       0x71 obj\.\src\ModeSelect.o
 .comment       0x00000000       0x71 obj\.\src\PSKMod.o
 .comment       0x00000000       0x71 obj\.\src\PSK_Det.o
 .comment       0x00000000       0x71 obj\.\src\Si570.o
 .comment       0x00000000       0x71 obj\.\src\Sine_table.o
 .comment       0x00000000       0x71 obj\.\src\TFT_Display.o
 .comment       0x00000000       0x71 obj\.\src\User_Button.o
 .comment       0x00000000       0x71 obj\.\src\eeprom.o
 .comment       0x00000000       0x71 obj\.\src\main.o
 .comment       0x00000000       0x71 obj\.\src\stm32f4_discovery.o
 .comment       0x00000000       0x71 obj\.\src\stm32f4xx_it.o
 .comment       0x00000000       0x71 obj\.\src\system_stm32f4xx.o
 .comment       0x00000000       0x71 obj\.\src\touch_pad.o
 .comment       0x00000000       0x71 obj\.\src\uart.o
 .comment       0x00000000       0x71 obj\.\src\usb_bsp.o
 .comment       0x00000000       0x71 obj\.\src\usbh_usr.o
 .comment       0x00000000       0x71 obj\.\src\xprintf.o
 .comment       0x00000000       0x71 obj\.\externals\SM32F4-Discovery\USB\src\misc.o
 .comment       0x00000000       0x71 obj\.\externals\SM32F4-Discovery\USB\src\usb_core.o
 .comment       0x00000000       0x71 obj\.\externals\SM32F4-Discovery\USB\src\usb_hcd.o
 .comment       0x00000000       0x71 obj\.\externals\SM32F4-Discovery\USB\src\usb_hcd_int.o
 .comment       0x00000000       0x71 obj\.\externals\SM32F4-Discovery\USB\src\usbh_core.o
 .comment       0x00000000       0x71 obj\.\externals\SM32F4-Discovery\USB\src\usbh_hcs.o
 .comment       0x00000000       0x71 obj\.\externals\SM32F4-Discovery\USB\src\usbh_hid_core.o
 .comment       0x00000000       0x71 obj\.\externals\SM32F4-Discovery\USB\src\usbh_hid_keybd.o
 .comment       0x00000000       0x71 obj\.\externals\SM32F4-Discovery\USB\src\usbh_ioreq.o
 .comment       0x00000000       0x71 obj\.\externals\SM32F4-Discovery\USB\src\usbh_stdreq.o
 .comment       0x00000000       0x71 obj\.\externals\SM32F4-Discovery\STEmbeddedGUI\src\JoyHal.o
 .comment       0x00000000       0x71 obj\.\externals\SM32F4-Discovery\STEmbeddedGUI\src\LcdDriver_ILI9320.o
 .comment       0x00000000       0x71 obj\.\externals\SM32F4-Discovery\STEmbeddedGUI\src\LcdHal.o
 .comment       0x00000000       0x71 obj\.\externals\SM32F4-Discovery\STEmbeddedGUI\src\TscHal.o
 .comment       0x00000000       0x71 obj\.\externals\SM32F4-Discovery\STEmbeddedGUI\src\cursor.o
 .comment       0x00000000       0x71 obj\.\externals\SM32F4-Discovery\STEmbeddedGUI\src\gl_fonts.o
 .comment       0x00000000       0x71 obj\.\externals\SM32F4-Discovery\STEmbeddedGUI\src\graphicObject.o
 .comment       0x00000000       0x71 obj\.\externals\SM32F4-Discovery\STEmbeddedGUI\src\hw_config.o
 .comment       0x00000000       0x71 obj\.\externals\SM32F4-Discovery\STEmbeddedGUI\src\images.o
 .comment       0x00000000       0x71 obj\.\externals\SM32F4-Discovery\STEmbeddedGUI\src\main_GUI.o
 .comment       0x00000000       0x71 obj\.\externals\SM32F4-Discovery\STEmbeddedGUI\src\pictures.o
 .comment       0x00000000       0x71 obj\.\externals\SM32F4-Discovery\STEmbeddedGUI\src\smile_image.o
 .comment       0x00000000       0x71 obj\.\externals\SM32F4-Discovery\STEmbeddedGUI\src\touchscreen.o
 .comment       0x00000000       0x71 obj\.\externals\SM32F4-Discovery\STEmbeddedGUI\src\uiappuser.o
 .comment       0x00000000       0x71 obj\.\externals\SM32F4-Discovery\STEmbeddedGUI\src\uiframework.o
 .comment       0x00000070       0x3a .\externals\libs\libstm32f4xx_peripherals.a(stm32f4xx_dma.o)
                                 0x3b (size before relaxing)
 .comment       0x00000000       0x3b .\externals\libs\libstm32f4xx_peripherals.a(stm32f4xx_exti.o)
 .comment       0x00000000       0x3b .\externals\libs\libstm32f4xx_peripherals.a(stm32f4xx_flash.o)
 .comment       0x00000000       0x3b .\externals\libs\libstm32f4xx_peripherals.a(stm32f4xx_fsmc.o)
 .comment       0x00000000       0x3b .\externals\libs\libstm32f4xx_peripherals.a(stm32f4xx_gpio.o)
 .comment       0x00000000       0x3b .\externals\libs\libstm32f4xx_peripherals.a(stm32f4xx_i2c.o)
 .comment       0x00000000       0x3b .\externals\libs\libstm32f4xx_peripherals.a(stm32f4xx_rcc.o)
 .comment       0x00000000       0x3b .\externals\libs\libstm32f4xx_peripherals.a(stm32f4xx_spi.o)
 .comment       0x00000000       0x3b .\externals\libs\libstm32f4xx_peripherals.a(stm32f4xx_syscfg.o)
 .comment       0x00000000       0x3b .\externals\libs\libstm32f4xx_peripherals.a(stm32f4xx_tim.o)
 .comment       0x00000000       0x3b .\externals\libs\libstm32f4xx_peripherals.a(stm32f4xx_usart.o)
 .comment       0x00000000       0x3b .\externals\libs\libstm32f4xx_math.a(arm_cmplx_mag_squared_q15.o)
 .comment       0x00000000       0x3b .\externals\libs\libstm32f4xx_math.a(arm_shift_q15.o)
 .comment       0x00000000       0x3b .\externals\libs\libstm32f4xx_math.a(arm_fir_decimate_q15.o)
 .comment       0x00000000       0x3b .\externals\libs\libstm32f4xx_math.a(arm_fir_q15.o)
 .comment       0x00000000       0x3b .\externals\libs\libstm32f4xx_math.a(arm_cfft_radix4_q15.o)
 .comment       0x00000000       0x3b .\externals\libs\libstm32f4xx_math.a(arm_cfft_radix4_init_q15.o)
 .comment       0x00000000       0x3b .\externals\libs\libstm32f4xx_math.a(arm_common_tables.o)

.debug_loc      0x00000000     0xb3ba
 .debug_loc     0x00000000       0x2c obj\.\src\CW_Mod.o
 .debug_loc     0x0000002c       0xac obj\.\src\ChangeOver.o
 .debug_loc     0x000000d8      0x1bc obj\.\src\Codec_Gains.o
 .debug_loc     0x00000294       0xac obj\.\src\DMA_IRQ_Handler.o
 .debug_loc     0x00000340       0x2c obj\.\src\DMA_Test_Pins.o
 .debug_loc     0x0000036c       0x80 obj\.\src\DSP_Processing.o
 .debug_loc     0x000003ec       0xd8 obj\.\src\Encoder_1.o
 .debug_loc     0x000004c4       0xd8 obj\.\src\Encoder_2.o
 .debug_loc     0x0000059c       0x6c obj\.\src\Init_Codec.o
 .debug_loc     0x00000608       0x4d obj\.\src\Init_DMA.o
 .debug_loc     0x00000655      0x154 obj\.\src\Init_I2C.o
 .debug_loc     0x000007a9       0x58 obj\.\src\Init_I2S.o
 .debug_loc     0x00000801       0x40 obj\.\src\ModeSelect.o
 .debug_loc     0x00000841       0xe4 obj\.\src\PSKMod.o
 .debug_loc     0x00000925      0x25e obj\.\src\PSK_Det.o
 .debug_loc     0x00000b83      0x1b4 obj\.\src\Si570.o
 .debug_loc     0x00000d37      0x38c obj\.\src\TFT_Display.o
 .debug_loc     0x000010c3       0xb8 obj\.\src\User_Button.o
 .debug_loc     0x0000117b      0x160 obj\.\src\eeprom.o
 .debug_loc     0x000012db       0x8c obj\.\src\main.o
 .debug_loc     0x00001367       0xe4 obj\.\src\stm32f4_discovery.o
 .debug_loc     0x0000144b       0x60 obj\.\src\stm32f4xx_it.o
 .debug_loc     0x000014ab       0x60 obj\.\src\system_stm32f4xx.o
 .debug_loc     0x0000150b      0x1f9 obj\.\src\touch_pad.o
 .debug_loc     0x00001704       0xd0 obj\.\src\uart.o
 .debug_loc     0x000017d4      0x1cc obj\.\src\usb_bsp.o
 .debug_loc     0x000019a0      0x2e0 obj\.\src\usbh_usr.o
 .debug_loc     0x00001c80      0x185 obj\.\src\xprintf.o
 .debug_loc     0x00001e05       0xa0 obj\.\externals\SM32F4-Discovery\USB\src\misc.o
 .debug_loc     0x00001ea5      0x43c obj\.\externals\SM32F4-Discovery\USB\src\usb_core.o
 .debug_loc     0x000022e1      0x170 obj\.\externals\SM32F4-Discovery\USB\src\usb_hcd.o
 .debug_loc     0x00002451      0x26c obj\.\externals\SM32F4-Discovery\USB\src\usb_hcd_int.o
 .debug_loc     0x000026bd      0x169 obj\.\externals\SM32F4-Discovery\USB\src\usbh_core.o
 .debug_loc     0x00002826       0xe4 obj\.\externals\SM32F4-Discovery\USB\src\usbh_hcs.o
 .debug_loc     0x0000290a      0x1ac obj\.\externals\SM32F4-Discovery\USB\src\usbh_hid_core.o
 .debug_loc     0x00002ab6       0x4c obj\.\externals\SM32F4-Discovery\USB\src\usbh_hid_keybd.o
 .debug_loc     0x00002b02      0x1d8 obj\.\externals\SM32F4-Discovery\USB\src\usbh_ioreq.o
 .debug_loc     0x00002cda      0x22c obj\.\externals\SM32F4-Discovery\USB\src\usbh_stdreq.o
 .debug_loc     0x00002f06      0x4ae obj\.\externals\SM32F4-Discovery\STEmbeddedGUI\src\LcdDriver_ILI9320.o
 .debug_loc     0x000033b4      0x27c obj\.\externals\SM32F4-Discovery\STEmbeddedGUI\src\LcdHal.o
 .debug_loc     0x00003630      0x31c obj\.\externals\SM32F4-Discovery\STEmbeddedGUI\src\TscHal.o
 .debug_loc     0x0000394c       0xc0 obj\.\externals\SM32F4-Discovery\STEmbeddedGUI\src\cursor.o
 .debug_loc     0x00003a0c      0xb80 obj\.\externals\SM32F4-Discovery\STEmbeddedGUI\src\graphicObject.o
 .debug_loc     0x0000458c       0x98 obj\.\externals\SM32F4-Discovery\STEmbeddedGUI\src\main_GUI.o
 .debug_loc     0x00004624       0xb9 obj\.\externals\SM32F4-Discovery\STEmbeddedGUI\src\touchscreen.o
 .debug_loc     0x000046dd       0x60 obj\.\externals\SM32F4-Discovery\STEmbeddedGUI\src\uiappuser.o
 .debug_loc     0x0000473d       0x8c obj\.\externals\SM32F4-Discovery\STEmbeddedGUI\src\uiframework.o
 .debug_loc     0x000047c9      0x33e .\externals\libs\libstm32f4xx_peripherals.a(stm32f4xx_dma.o)
 .debug_loc     0x00004b07      0x146 .\externals\libs\libstm32f4xx_peripherals.a(stm32f4xx_exti.o)
 .debug_loc     0x00004c4d      0x58f .\externals\libs\libstm32f4xx_peripherals.a(stm32f4xx_flash.o)
 .debug_loc     0x000051dc      0x356 .\externals\libs\libstm32f4xx_peripherals.a(stm32f4xx_fsmc.o)
 .debug_loc     0x00005532      0x283 .\externals\libs\libstm32f4xx_peripherals.a(stm32f4xx_gpio.o)
 .debug_loc     0x000057b5      0x604 .\externals\libs\libstm32f4xx_peripherals.a(stm32f4xx_i2c.o)
 .debug_loc     0x00005db9      0x64e .\externals\libs\libstm32f4xx_peripherals.a(stm32f4xx_rcc.o)
 .debug_loc     0x00006407      0x544 .\externals\libs\libstm32f4xx_peripherals.a(stm32f4xx_spi.o)
 .debug_loc     0x0000694b       0x9d .\externals\libs\libstm32f4xx_peripherals.a(stm32f4xx_syscfg.o)
 .debug_loc     0x000069e8     0x1266 .\externals\libs\libstm32f4xx_peripherals.a(stm32f4xx_tim.o)
 .debug_loc     0x00007c4e      0x52c .\externals\libs\libstm32f4xx_peripherals.a(stm32f4xx_usart.o)
 .debug_loc     0x0000817a      0x3cd .\externals\libs\libstm32f4xx_math.a(arm_cmplx_mag_squared_q15.o)
 .debug_loc     0x00008547      0x372 .\externals\libs\libstm32f4xx_math.a(arm_shift_q15.o)
 .debug_loc     0x000088b9      0x42f .\externals\libs\libstm32f4xx_math.a(arm_fir_decimate_q15.o)
 .debug_loc     0x00008ce8      0xa6c .\externals\libs\libstm32f4xx_math.a(arm_fir_q15.o)
 .debug_loc     0x00009754     0x1bdf .\externals\libs\libstm32f4xx_math.a(arm_cfft_radix4_q15.o)
 .debug_loc     0x0000b333       0x87 .\externals\libs\libstm32f4xx_math.a(arm_cfft_radix4_init_q15.o)

.debug_str      0x00000000     0xa45e
 .debug_str     0x00000000      0x293 obj\.\src\CW_Mod.o
                                0x2de (size before relaxing)
 .debug_str     0x00000293      0x176 obj\.\src\ChangeOver.o
                                0x441 (size before relaxing)
 .debug_str     0x00000409       0xe1 obj\.\src\Codec_Gains.o
                                0x1f3 (size before relaxing)
 .debug_str     0x000004ea      0x58c obj\.\src\DMA_IRQ_Handler.o
                                0x7d6 (size before relaxing)
 .debug_str     0x00000a76       0x25 obj\.\src\DMA_Test_Pins.o
                                0x2e7 (size before relaxing)
 .debug_str     0x00000a9b      0x14e obj\.\src\DSP_Processing.o
                                0x732 (size before relaxing)
 .debug_str     0x00000be9      0x7dc obj\.\src\Encoder_1.o
                                0xb0d (size before relaxing)
 .debug_str     0x000013c5       0xb5 obj\.\src\Encoder_2.o
                                0x604 (size before relaxing)
 .debug_str     0x0000147a       0x19 obj\.\src\FIR_Coefficients.o
                                0x173 (size before relaxing)
 .debug_str     0x00001493       0x3a obj\.\src\Init_Codec.o
                                0x32c (size before relaxing)
 .debug_str     0x000014cd      0x1c3 obj\.\src\Init_DMA.o
                                0x90f (size before relaxing)
 .debug_str     0x00001690      0x150 obj\.\src\Init_I2C.o
                                0x4b6 (size before relaxing)
 .debug_str     0x000017e0       0xa6 obj\.\src\Init_I2S.o
                                0x420 (size before relaxing)
 .debug_str     0x00001886       0x2e obj\.\src\ModeSelect.o
                                0x175 (size before relaxing)
 .debug_str     0x000018b4      0x116 obj\.\src\PSKMod.o
                                0x583 (size before relaxing)
 .debug_str     0x000019ca      0x1f8 obj\.\src\PSK_Det.o
                                0x882 (size before relaxing)
 .debug_str     0x00001bc2      0x133 obj\.\src\Si570.o
                                0x2e3 (size before relaxing)
 .debug_str     0x00001cf5       0x13 obj\.\src\Sine_table.o
                                0x431 (size before relaxing)
 .debug_str     0x00001d08      0x250 obj\.\src\TFT_Display.o
                                0x71d (size before relaxing)
 .debug_str     0x00001f58       0x6c obj\.\src\User_Button.o
                                0x78a (size before relaxing)
 .debug_str     0x00001fc4       0xc5 obj\.\src\eeprom.o
                                0x295 (size before relaxing)
 .debug_str     0x00002089      0xe6a obj\.\src\main.o
                               0x1755 (size before relaxing)
 .debug_str     0x00002ef3      0x180 obj\.\src\stm32f4_discovery.o
                                0xad6 (size before relaxing)
 .debug_str     0x00003073       0xd8 obj\.\src\stm32f4xx_it.o
                               0x10fb (size before relaxing)
 .debug_str     0x0000314b      0x1b7 obj\.\src\system_stm32f4xx.o
                                0x33e (size before relaxing)
 .debug_str     0x00003302      0x18f obj\.\src\touch_pad.o
                                0xfb5 (size before relaxing)
 .debug_str     0x00003491      0x19c obj\.\src\uart.o
                                0xab4 (size before relaxing)
 .debug_str     0x0000362d      0x20c obj\.\src\usb_bsp.o
                               0x1075 (size before relaxing)
 .debug_str     0x00003839      0x254 obj\.\src\usbh_usr.o
                                0x691 (size before relaxing)
 .debug_str     0x00003a8d       0x7a obj\.\src\xprintf.o
                                0x150 (size before relaxing)
 .debug_str     0x00003b07      0x118 obj\.\externals\SM32F4-Discovery\USB\src\misc.o
                                0x386 (size before relaxing)
 .debug_str     0x00003c1f      0x9b1 obj\.\externals\SM32F4-Discovery\USB\src\usb_core.o
                               0x1202 (size before relaxing)
 .debug_str     0x000045d0       0xd8 obj\.\externals\SM32F4-Discovery\USB\src\usb_hcd.o
                                0x84f (size before relaxing)
 .debug_str     0x000046a8      0x2ca obj\.\externals\SM32F4-Discovery\USB\src\usb_hcd_int.o
                                0xe56 (size before relaxing)
 .debug_str     0x00004972      0x125 obj\.\externals\SM32F4-Discovery\USB\src\usbh_core.o
                               0x11d5 (size before relaxing)
 .debug_str     0x00004a97       0xbe obj\.\externals\SM32F4-Discovery\USB\src\usbh_hcs.o
                                0x7b2 (size before relaxing)
 .debug_str     0x00004b55      0x360 obj\.\externals\SM32F4-Discovery\USB\src\usbh_hid_core.o
                               0x13a4 (size before relaxing)
 .debug_str     0x00004eb5       0xb8 obj\.\externals\SM32F4-Discovery\USB\src\usbh_hid_keybd.o
                                0x22b (size before relaxing)
 .debug_str     0x00004f6d      0x10c obj\.\externals\SM32F4-Discovery\USB\src\usbh_ioreq.o
                               0x1121 (size before relaxing)
 .debug_str     0x00005079      0x224 obj\.\externals\SM32F4-Discovery\USB\src\usbh_stdreq.o
                               0x124b (size before relaxing)
 .debug_str     0x0000529d      0x6be obj\.\externals\SM32F4-Discovery\STEmbeddedGUI\src\LcdDriver_ILI9320.o
                                0xb8b (size before relaxing)
 .debug_str     0x0000595b      0x456 obj\.\externals\SM32F4-Discovery\STEmbeddedGUI\src\LcdHal.o
                                0x6b6 (size before relaxing)
 .debug_str     0x00005db1      0x5bb obj\.\externals\SM32F4-Discovery\STEmbeddedGUI\src\TscHal.o
                               0x10a3 (size before relaxing)
 .debug_str     0x0000636c      0x126 obj\.\externals\SM32F4-Discovery\STEmbeddedGUI\src\cursor.o
                                0x2a4 (size before relaxing)
 .debug_str     0x00006492       0xb2 obj\.\externals\SM32F4-Discovery\STEmbeddedGUI\src\gl_fonts.o
                                0x21f (size before relaxing)
 .debug_str     0x00006544      0xfcd obj\.\externals\SM32F4-Discovery\STEmbeddedGUI\src\graphicObject.o
                               0x1312 (size before relaxing)
 .debug_str     0x00007511       0x56 obj\.\externals\SM32F4-Discovery\STEmbeddedGUI\src\hw_config.o
                                0x164 (size before relaxing)
 .debug_str     0x00007567       0x38 obj\.\externals\SM32F4-Discovery\STEmbeddedGUI\src\images.o
                                0x2a1 (size before relaxing)
 .debug_str     0x0000759f       0xf5 obj\.\externals\SM32F4-Discovery\STEmbeddedGUI\src\main_GUI.o
                                0x815 (size before relaxing)
 .debug_str     0x00007694       0x3d obj\.\externals\SM32F4-Discovery\STEmbeddedGUI\src\smile_image.o
                                0x108 (size before relaxing)
 .debug_str     0x000076d1      0x3dd obj\.\externals\SM32F4-Discovery\STEmbeddedGUI\src\touchscreen.o
                                0x648 (size before relaxing)
 .debug_str     0x00007aae      0x129 obj\.\externals\SM32F4-Discovery\STEmbeddedGUI\src\uiappuser.o
                                0x241 (size before relaxing)
 .debug_str     0x00007bd7       0xf3 obj\.\externals\SM32F4-Discovery\STEmbeddedGUI\src\uiframework.o
                                0x4a8 (size before relaxing)
 .debug_str     0x00007cca      0x2bd .\externals\libs\libstm32f4xx_peripherals.a(stm32f4xx_dma.o)
                                0x4e4 (size before relaxing)
 .debug_str     0x00007f87       0xa1 .\externals\libs\libstm32f4xx_peripherals.a(stm32f4xx_exti.o)
                                0x306 (size before relaxing)
 .debug_str     0x00008028      0x2a9 .\externals\libs\libstm32f4xx_peripherals.a(stm32f4xx_flash.o)
                                0x51f (size before relaxing)
 .debug_str     0x000082d1      0x3bf .\externals\libs\libstm32f4xx_peripherals.a(stm32f4xx_fsmc.o)
                                0x72c (size before relaxing)
 .debug_str     0x00008690      0x11d .\externals\libs\libstm32f4xx_peripherals.a(stm32f4xx_gpio.o)
                                0x43b (size before relaxing)
 .debug_str     0x000087ad      0x307 .\externals\libs\libstm32f4xx_peripherals.a(stm32f4xx_i2c.o)
                                0x5fd (size before relaxing)
 .debug_str     0x00008ab4      0x4b9 .\externals\libs\libstm32f4xx_peripherals.a(stm32f4xx_rcc.o)
                                0x7e8 (size before relaxing)
 .debug_str     0x00008f6d      0x246 .\externals\libs\libstm32f4xx_peripherals.a(stm32f4xx_spi.o)
                                0x622 (size before relaxing)
 .debug_str     0x000091b3      0x12a .\externals\libs\libstm32f4xx_peripherals.a(stm32f4xx_syscfg.o)
                                0x297 (size before relaxing)
 .debug_str     0x000092dd      0x9bc .\externals\libs\libstm32f4xx_peripherals.a(stm32f4xx_tim.o)
                                0xd68 (size before relaxing)
 .debug_str     0x00009c99      0x371 .\externals\libs\libstm32f4xx_peripherals.a(stm32f4xx_usart.o)
                                0x627 (size before relaxing)
 .debug_str     0x0000a00a       0xe3 .\externals\libs\libstm32f4xx_math.a(arm_cmplx_mag_squared_q15.o)
                                0x1d5 (size before relaxing)
 .debug_str     0x0000a0ed       0x59 .\externals\libs\libstm32f4xx_math.a(arm_shift_q15.o)
                                0x1b5 (size before relaxing)
 .debug_str     0x0000a146       0x76 .\externals\libs\libstm32f4xx_math.a(arm_fir_decimate_q15.o)
                                0x23f (size before relaxing)
 .debug_str     0x0000a1bc       0x37 .\externals\libs\libstm32f4xx_math.a(arm_fir_q15.o)
                                0x21e (size before relaxing)
 .debug_str     0x0000a1f3      0x12a .\externals\libs\libstm32f4xx_math.a(arm_cfft_radix4_q15.o)
                                0x2fc (size before relaxing)
 .debug_str     0x0000a31d       0xfe .\externals\libs\libstm32f4xx_math.a(arm_cfft_radix4_init_q15.o)
                                0x2ac (size before relaxing)
 .debug_str     0x0000a41b       0x43 .\externals\libs\libstm32f4xx_math.a(arm_common_tables.o)
                                0x18f (size before relaxing)

.debug_frame    0x00000000     0x58ec
 .debug_frame   0x00000000       0x2c obj\.\src\CW_Mod.o
 .debug_frame   0x0000002c       0x9c obj\.\src\ChangeOver.o
 .debug_frame   0x000000c8      0x160 obj\.\src\Codec_Gains.o
 .debug_frame   0x00000228       0xa4 obj\.\src\DMA_IRQ_Handler.o
 .debug_frame   0x000002cc       0x2c obj\.\src\DMA_Test_Pins.o
 .debug_frame   0x000002f8       0x78 obj\.\src\DSP_Processing.o
 .debug_frame   0x00000370       0xe8 obj\.\src\Encoder_1.o
 .debug_frame   0x00000458       0xf8 obj\.\src\Encoder_2.o
 .debug_frame   0x00000550       0x64 obj\.\src\Init_Codec.o
 .debug_frame   0x000005b4       0x48 obj\.\src\Init_DMA.o
 .debug_frame   0x000005fc       0xe8 obj\.\src\Init_I2C.o
 .debug_frame   0x000006e4       0x48 obj\.\src\Init_I2S.o
 .debug_frame   0x0000072c       0x48 obj\.\src\ModeSelect.o
 .debug_frame   0x00000774       0xb0 obj\.\src\PSKMod.o
 .debug_frame   0x00000824      0x1b4 obj\.\src\PSK_Det.o
 .debug_frame   0x000009d8      0x14c obj\.\src\Si570.o
 .debug_frame   0x00000b24      0x250 obj\.\src\TFT_Display.o
 .debug_frame   0x00000d74       0x9c obj\.\src\User_Button.o
 .debug_frame   0x00000e10       0xf0 obj\.\src\eeprom.o
 .debug_frame   0x00000f00       0x78 obj\.\src\main.o
 .debug_frame   0x00000f78       0xa0 obj\.\src\stm32f4_discovery.o
 .debug_frame   0x00001018       0xf4 obj\.\src\stm32f4xx_it.o
 .debug_frame   0x0000110c       0x54 obj\.\src\system_stm32f4xx.o
 .debug_frame   0x00001160      0x168 obj\.\src\touch_pad.o
 .debug_frame   0x000012c8       0x9c obj\.\src\uart.o
 .debug_frame   0x00001364      0x144 obj\.\src\usb_bsp.o
 .debug_frame   0x000014a8      0x238 obj\.\src\usbh_usr.o
 .debug_frame   0x000016e0      0x114 obj\.\src\xprintf.o
 .debug_frame   0x000017f4       0x74 obj\.\externals\SM32F4-Discovery\USB\src\misc.o
 .debug_frame   0x00001868      0x2bc obj\.\externals\SM32F4-Discovery\USB\src\usb_core.o
 .debug_frame   0x00001b24       0xf8 obj\.\externals\SM32F4-Discovery\USB\src\usb_hcd.o
 .debug_frame   0x00001c1c      0x16c obj\.\externals\SM32F4-Discovery\USB\src\usb_hcd_int.o
 .debug_frame   0x00001d88       0xf4 obj\.\externals\SM32F4-Discovery\USB\src\usbh_core.o
 .debug_frame   0x00001e7c       0xa0 obj\.\externals\SM32F4-Discovery\USB\src\usbh_hcs.o
 .debug_frame   0x00001f1c      0x120 obj\.\externals\SM32F4-Discovery\USB\src\usbh_hid_core.o
 .debug_frame   0x0000203c       0x48 obj\.\externals\SM32F4-Discovery\USB\src\usbh_hid_keybd.o
 .debug_frame   0x00002084      0x13c obj\.\externals\SM32F4-Discovery\USB\src\usbh_ioreq.o
 .debug_frame   0x000021c0      0x170 obj\.\externals\SM32F4-Discovery\USB\src\usbh_stdreq.o
 .debug_frame   0x00002330      0x344 obj\.\externals\SM32F4-Discovery\STEmbeddedGUI\src\LcdDriver_ILI9320.o
 .debug_frame   0x00002674      0x1ec obj\.\externals\SM32F4-Discovery\STEmbeddedGUI\src\LcdHal.o
 .debug_frame   0x00002860      0x278 obj\.\externals\SM32F4-Discovery\STEmbeddedGUI\src\TscHal.o
 .debug_frame   0x00002ad8       0x88 obj\.\externals\SM32F4-Discovery\STEmbeddedGUI\src\cursor.o
 .debug_frame   0x00002b60      0x7a8 obj\.\externals\SM32F4-Discovery\STEmbeddedGUI\src\graphicObject.o
 .debug_frame   0x00003308       0x20 obj\.\externals\SM32F4-Discovery\STEmbeddedGUI\src\hw_config.o
 .debug_frame   0x00003328       0x88 obj\.\externals\SM32F4-Discovery\STEmbeddedGUI\src\main_GUI.o
 .debug_frame   0x000033b0       0xb4 obj\.\externals\SM32F4-Discovery\STEmbeddedGUI\src\touchscreen.o
 .debug_frame   0x00003464       0x9c obj\.\externals\SM32F4-Discovery\STEmbeddedGUI\src\uiappuser.o
 .debug_frame   0x00003500       0x90 obj\.\externals\SM32F4-Discovery\STEmbeddedGUI\src\uiframework.o
 .debug_frame   0x00003590      0x17c .\externals\libs\libstm32f4xx_peripherals.a(stm32f4xx_dma.o)
 .debug_frame   0x0000370c       0x9c .\externals\libs\libstm32f4xx_peripherals.a(stm32f4xx_exti.o)
 .debug_frame   0x000037a8      0x290 .\externals\libs\libstm32f4xx_peripherals.a(stm32f4xx_flash.o)
 .debug_frame   0x00003a38      0x174 .\externals\libs\libstm32f4xx_peripherals.a(stm32f4xx_fsmc.o)
 .debug_frame   0x00003bac      0x128 .\externals\libs\libstm32f4xx_peripherals.a(stm32f4xx_gpio.o)
 .debug_frame   0x00003cd4      0x250 .\externals\libs\libstm32f4xx_peripherals.a(stm32f4xx_i2c.o)
 .debug_frame   0x00003f24      0x2ec .\externals\libs\libstm32f4xx_peripherals.a(stm32f4xx_rcc.o)
 .debug_frame   0x00004210      0x1e4 .\externals\libs\libstm32f4xx_peripherals.a(stm32f4xx_spi.o)
 .debug_frame   0x000043f4       0x88 .\externals\libs\libstm32f4xx_peripherals.a(stm32f4xx_syscfg.o)
 .debug_frame   0x0000447c      0x6a0 .\externals\libs\libstm32f4xx_peripherals.a(stm32f4xx_tim.o)
 .debug_frame   0x00004b1c      0x220 .\externals\libs\libstm32f4xx_peripherals.a(stm32f4xx_usart.o)
 .debug_frame   0x00004d3c       0x38 .\externals\libs\libstm32f4xx_math.a(arm_cmplx_mag_squared_q15.o)
 .debug_frame   0x00004d74       0x38 .\externals\libs\libstm32f4xx_math.a(arm_shift_q15.o)
 .debug_frame   0x00004dac       0x44 .\externals\libs\libstm32f4xx_math.a(arm_fir_decimate_q15.o)
 .debug_frame   0x00004df0       0x44 .\externals\libs\libstm32f4xx_math.a(arm_fir_q15.o)
 .debug_frame   0x00004e34       0xc8 .\externals\libs\libstm32f4xx_math.a(arm_cfft_radix4_q15.o)
 .debug_frame   0x00004efc       0x2c .\externals\libs\libstm32f4xx_math.a(arm_cfft_radix4_init_q15.o)
 .debug_frame   0x00004f28       0x20 d:/program files (x86)/gnu tools arm embedded/4.6 2012q4/bin/../lib/gcc/arm-none-eabi/4.6.2/../../../../arm-none-eabi/lib/armv7e-m/fpu\libm.a(lib_a-w_atan2.o)
 .debug_frame   0x00004f48       0x38 d:/program files (x86)/gnu tools arm embedded/4.6 2012q4/bin/../lib/gcc/arm-none-eabi/4.6.2/../../../../arm-none-eabi/lib/armv7e-m/fpu\libm.a(lib_a-w_fmod.o)
 .debug_frame   0x00004f80       0x34 d:/program files (x86)/gnu tools arm embedded/4.6 2012q4/bin/../lib/gcc/arm-none-eabi/4.6.2/../../../../arm-none-eabi/lib/armv7e-m/fpu\libm.a(lib_a-w_sqrt.o)
 .debug_frame   0x00004fb4       0x30 d:/program files (x86)/gnu tools arm embedded/4.6 2012q4/bin/../lib/gcc/arm-none-eabi/4.6.2/../../../../arm-none-eabi/lib/armv7e-m/fpu\libm.a(lib_a-e_atan2.o)
 .debug_frame   0x00004fe4       0x30 d:/program files (x86)/gnu tools arm embedded/4.6 2012q4/bin/../lib/gcc/arm-none-eabi/4.6.2/../../../../arm-none-eabi/lib/armv7e-m/fpu\libm.a(lib_a-e_fmod.o)
 .debug_frame   0x00005014       0x3c d:/program files (x86)/gnu tools arm embedded/4.6 2012q4/bin/../lib/gcc/arm-none-eabi/4.6.2/../../../../arm-none-eabi/lib/armv7e-m/fpu\libm.a(lib_a-e_sqrt.o)
 .debug_frame   0x00005050       0x38 d:/program files (x86)/gnu tools arm embedded/4.6 2012q4/bin/../lib/gcc/arm-none-eabi/4.6.2/../../../../arm-none-eabi/lib/armv7e-m/fpu\libm.a(lib_a-s_atan.o)
 .debug_frame   0x00005088       0x20 d:/program files (x86)/gnu tools arm embedded/4.6 2012q4/bin/../lib/gcc/arm-none-eabi/4.6.2/../../../../arm-none-eabi/lib/armv7e-m/fpu\libm.a(lib_a-s_fabs.o)
 .debug_frame   0x000050a8       0x20 d:/program files (x86)/gnu tools arm embedded/4.6 2012q4/bin/../lib/gcc/arm-none-eabi/4.6.2/../../../../arm-none-eabi/lib/armv7e-m/fpu\libm.a(lib_a-s_fpclassify.o)
 .debug_frame   0x000050c8       0x20 d:/program files (x86)/gnu tools arm embedded/4.6 2012q4/bin/../lib/gcc/arm-none-eabi/4.6.2/../../../../arm-none-eabi/lib/armv7e-m/fpu\libm.a(lib_a-s_matherr.o)
 .debug_frame   0x000050e8       0x20 d:/program files (x86)/gnu tools arm embedded/4.6 2012q4/bin/../lib/gcc/arm-none-eabi/4.6.2/../../../../arm-none-eabi/lib/armv7e-m/fpu\libc.a(lib_a-errno.o)
 .debug_frame   0x00005108       0x30 d:/program files (x86)/gnu tools arm embedded/4.6 2012q4/bin/../lib/gcc/arm-none-eabi/4.6.2/../../../../arm-none-eabi/lib/armv7e-m/fpu\libc.a(lib_a-malloc.o)
 .debug_frame   0x00005138       0x38 d:/program files (x86)/gnu tools arm embedded/4.6 2012q4/bin/../lib/gcc/arm-none-eabi/4.6.2/../../../../arm-none-eabi/lib/armv7e-m/fpu\libc.a(lib_a-mallocr.o)
 .debug_frame   0x00005170       0x2c d:/program files (x86)/gnu tools arm embedded/4.6 2012q4/bin/../lib/gcc/arm-none-eabi/4.6.2/../../../../arm-none-eabi/lib/armv7e-m/fpu\libc.a(lib_a-memcpy.o)
 .debug_frame   0x0000519c       0x2c d:/program files (x86)/gnu tools arm embedded/4.6 2012q4/bin/../lib/gcc/arm-none-eabi/4.6.2/../../../../arm-none-eabi/lib/armv7e-m/fpu\libc.a(lib_a-memset.o)
 .debug_frame   0x000051c8       0x30 d:/program files (x86)/gnu tools arm embedded/4.6 2012q4/bin/../lib/gcc/arm-none-eabi/4.6.2/../../../../arm-none-eabi/lib/armv7e-m/fpu\libc.a(lib_a-mlock.o)
 .debug_frame   0x000051f8       0x2c d:/program files (x86)/gnu tools arm embedded/4.6 2012q4/bin/../lib/gcc/arm-none-eabi/4.6.2/../../../../arm-none-eabi/lib/armv7e-m/fpu\libc.a(lib_a-sbrkr.o)
 .debug_frame   0x00005224       0x60 d:/program files (x86)/gnu tools arm embedded/4.6 2012q4/bin/../lib/gcc/arm-none-eabi/4.6.2/../../../../arm-none-eabi/lib/armv7e-m/fpu\libc.a(lib_a-sprintf.o)
 .debug_frame   0x00005284       0x20 d:/program files (x86)/gnu tools arm embedded/4.6 2012q4/bin/../lib/gcc/arm-none-eabi/4.6.2/../../../../arm-none-eabi/lib/armv7e-m/fpu\libc.a(lib_a-strlen.o)
 .debug_frame   0x000052a4       0x2c d:/program files (x86)/gnu tools arm embedded/4.6 2012q4/bin/../lib/gcc/arm-none-eabi/4.6.2/../../../../arm-none-eabi/lib/armv7e-m/fpu\libc.a(lib_a-strncpy.o)
 .debug_frame   0x000052d0       0x3c d:/program files (x86)/gnu tools arm embedded/4.6 2012q4/bin/../lib/gcc/arm-none-eabi/4.6.2/../../../../arm-none-eabi/lib/armv7e-m/fpu\libc.a(lib_a-svfprintf.o)
 .debug_frame   0x0000530c       0x64 d:/program files (x86)/gnu tools arm embedded/4.6 2012q4/bin/../lib/gcc/arm-none-eabi/4.6.2/../../../../arm-none-eabi/lib/armv7e-m/fpu\libc.a(lib_a-dtoa.o)
 .debug_frame   0x00005370       0x50 d:/program files (x86)/gnu tools arm embedded/4.6 2012q4/bin/../lib/gcc/arm-none-eabi/4.6.2/../../../../arm-none-eabi/lib/armv7e-m/fpu\libc.a(lib_a-freer.o)
 .debug_frame   0x000053c0       0x98 d:/program files (x86)/gnu tools arm embedded/4.6 2012q4/bin/../lib/gcc/arm-none-eabi/4.6.2/../../../../arm-none-eabi/lib/armv7e-m/fpu\libc.a(lib_a-locale.o)
 .debug_frame   0x00005458       0x2c d:/program files (x86)/gnu tools arm embedded/4.6 2012q4/bin/../lib/gcc/arm-none-eabi/4.6.2/../../../../arm-none-eabi/lib/armv7e-m/fpu\libc.a(lib_a-memchr.o)
 .debug_frame   0x00005484      0x228 d:/program files (x86)/gnu tools arm embedded/4.6 2012q4/bin/../lib/gcc/arm-none-eabi/4.6.2/../../../../arm-none-eabi/lib/armv7e-m/fpu\libc.a(lib_a-mprec.o)
 .debug_frame   0x000056ac       0x68 d:/program files (x86)/gnu tools arm embedded/4.6 2012q4/bin/../lib/gcc/arm-none-eabi/4.6.2/../../../../arm-none-eabi/lib/armv7e-m/fpu\libc.a(lib_a-reent.o)
 .debug_frame   0x00005714       0x30 d:/program files (x86)/gnu tools arm embedded/4.6 2012q4/bin/../lib/gcc/arm-none-eabi/4.6.2/../../../../arm-none-eabi/lib/armv7e-m/fpu\libc.a(lib_a-strcmp.o)
 .debug_frame   0x00005744       0x64 d:/program files (x86)/gnu tools arm embedded/4.6 2012q4/bin/../lib/gcc/arm-none-eabi/4.6.2/../../../../arm-none-eabi/lib/armv7e-m/fpu\libc.a(lib_a-svfiprintf.o)
 .debug_frame   0x000057a8       0x28 d:/program files (x86)/gnu tools arm embedded/4.6 2012q4/bin/../lib/gcc/arm-none-eabi/4.6.2/../../../../arm-none-eabi/lib/armv7e-m/fpu\libc.a(lib_a-callocr.o)
 .debug_frame   0x000057d0       0x2c d:/program files (x86)/gnu tools arm embedded/4.6 2012q4/bin/../lib/gcc/arm-none-eabi/4.6.2/../../../../arm-none-eabi/lib/armv7e-m/fpu\libc.a(lib_a-memmove.o)
 .debug_frame   0x000057fc       0x38 d:/program files (x86)/gnu tools arm embedded/4.6 2012q4/bin/../lib/gcc/arm-none-eabi/4.6.2/../../../../arm-none-eabi/lib/armv7e-m/fpu\libc.a(lib_a-reallocr.o)
 .debug_frame   0x00005834       0x50 d:/program files (x86)/gnu tools arm embedded/4.6 2012q4/bin/../lib/gcc/arm-none-eabi/4.6.2/armv7e-m/fpu\libgcc.a(bpabi.o)
 .debug_frame   0x00005884       0x34 d:/program files (x86)/gnu tools arm embedded/4.6 2012q4/bin/../lib/gcc/arm-none-eabi/4.6.2/armv7e-m/fpu\libgcc.a(_divdi3.o)
 .debug_frame   0x000058b8       0x34 d:/program files (x86)/gnu tools arm embedded/4.6 2012q4/bin/../lib/gcc/arm-none-eabi/4.6.2/armv7e-m/fpu\libgcc.a(_udivdi3.o)

Cross Reference Table

Symbol                                            File
A                                                 obj\.\src\DMA_IRQ_Handler.o
A2                                                obj\.\externals\SM32F4-Discovery\STEmbeddedGUI\src\touchscreen.o
ADC_Buffer                                        obj\.\src\main.o
                                                  obj\.\src\PSK_Det.o
                                                  obj\.\src\DSP_Processing.o
                                                  obj\.\src\DMA_IRQ_Handler.o
ADC_IRQHandler                                    obj\.\startup\startup_stm32f4xx.o
AHBPrescTable                                     obj\.\src\system_stm32f4xx.o
AddComboOption                                    obj\.\externals\SM32F4-Discovery\STEmbeddedGUI\src\graphicObject.o
AddPageControlObj                                 obj\.\externals\SM32F4-Discovery\STEmbeddedGUI\src\graphicObject.o
                                                  obj\.\externals\SM32F4-Discovery\STEmbeddedGUI\src\uiframework.o
AddRadioOption                                    obj\.\externals\SM32F4-Discovery\STEmbeddedGUI\src\graphicObject.o
Amp0                                              obj\.\src\DMA_IRQ_Handler.o
ArrowDownTouched                                  obj\.\externals\SM32F4-Discovery\STEmbeddedGUI\src\images.o
                                                  obj\.\externals\SM32F4-Discovery\STEmbeddedGUI\src\graphicObject.o
ArrowDownUntouched                                obj\.\externals\SM32F4-Discovery\STEmbeddedGUI\src\images.o
                                                  obj\.\externals\SM32F4-Discovery\STEmbeddedGUI\src\graphicObject.o
ArrowUpTouched                                    obj\.\externals\SM32F4-Discovery\STEmbeddedGUI\src\images.o
                                                  obj\.\externals\SM32F4-Discovery\STEmbeddedGUI\src\graphicObject.o
ArrowUpUntouched                                  obj\.\externals\SM32F4-Discovery\STEmbeddedGUI\src\images.o
                                                  obj\.\externals\SM32F4-Discovery\STEmbeddedGUI\src\graphicObject.o
Audio_DMA_Init                                    obj\.\src\Init_DMA.o
                                                  obj\.\src\main.o
Audio_DMA_Start                                   obj\.\src\Init_DMA.o
                                                  obj\.\src\main.o
B                                                 obj\.\src\DMA_IRQ_Handler.o
B2                                                obj\.\externals\SM32F4-Discovery\STEmbeddedGUI\src\touchscreen.o
BSP_Init                                          obj\.\src\usb_bsp.o
BSP_delay                                         obj\.\src\usb_bsp.o
BT_Flag                                           obj\.\src\User_Button.o
                                                  obj\.\src\PSK_Det.o
BT_Flag_Config                                    obj\.\src\User_Button.o
                                                  obj\.\src\main.o
BUTTON_CLK                                        obj\.\src\stm32f4_discovery.o
BUTTON_EXTI_LINE                                  obj\.\src\stm32f4_discovery.o
BUTTON_IRQn                                       obj\.\src\stm32f4_discovery.o
BUTTON_PIN                                        obj\.\src\stm32f4_discovery.o
BUTTON_PIN_SOURCE                                 obj\.\src\stm32f4_discovery.o
BUTTON_PORT                                       obj\.\src\stm32f4_discovery.o
BUTTON_PORT_SOURCE                                obj\.\src\stm32f4_discovery.o
BtnNormal                                         obj\.\externals\SM32F4-Discovery\STEmbeddedGUI\src\images.o
                                                  obj\.\externals\SM32F4-Discovery\STEmbeddedGUI\src\graphicObject.o
BtnNormalLeft                                     obj\.\externals\SM32F4-Discovery\STEmbeddedGUI\src\images.o
                                                  obj\.\externals\SM32F4-Discovery\STEmbeddedGUI\src\graphicObject.o
BtnNormalRight                                    obj\.\externals\SM32F4-Discovery\STEmbeddedGUI\src\images.o
                                                  obj\.\externals\SM32F4-Discovery\STEmbeddedGUI\src\graphicObject.o
BtnPressed                                        obj\.\externals\SM32F4-Discovery\STEmbeddedGUI\src\images.o
                                                  obj\.\externals\SM32F4-Discovery\STEmbeddedGUI\src\graphicObject.o
BtnPressedLeft                                    obj\.\externals\SM32F4-Discovery\STEmbeddedGUI\src\images.o
                                                  obj\.\externals\SM32F4-Discovery\STEmbeddedGUI\src\graphicObject.o
BtnPressedRight                                   obj\.\externals\SM32F4-Discovery\STEmbeddedGUI\src\images.o
                                                  obj\.\externals\SM32F4-Discovery\STEmbeddedGUI\src\graphicObject.o
BusFault_Handler                                  obj\.\src\stm32f4xx_it.o
                                                  obj\.\startup\startup_stm32f4xx.o
C2                                                obj\.\externals\SM32F4-Discovery\STEmbeddedGUI\src\touchscreen.o
CAN1_RX0_IRQHandler                               obj\.\startup\startup_stm32f4xx.o
CAN1_RX1_IRQHandler                               obj\.\startup\startup_stm32f4xx.o
CAN1_SCE_IRQHandler                               obj\.\startup\startup_stm32f4xx.o
CAN1_TX_IRQHandler                                obj\.\startup\startup_stm32f4xx.o
CAN2_RX0_IRQHandler                               obj\.\startup\startup_stm32f4xx.o
CAN2_RX1_IRQHandler                               obj\.\startup\startup_stm32f4xx.o
CAN2_SCE_IRQHandler                               obj\.\startup\startup_stm32f4xx.o
CAN2_TX_IRQHandler                                obj\.\startup\startup_stm32f4xx.o
CODEC_FREQUENCY                                   obj\.\src\main.o
COM_RX_AF                                         obj\.\src\uart.o
COM_RX_PIN                                        obj\.\src\uart.o
COM_RX_PIN_SOURCE                                 obj\.\src\uart.o
COM_RX_PORT                                       obj\.\src\uart.o
COM_RX_PORT_CLK                                   obj\.\src\uart.o
COM_TX_AF                                         obj\.\src\uart.o
COM_TX_PIN                                        obj\.\src\uart.o
COM_TX_PIN_SOURCE                                 obj\.\src\uart.o
COM_TX_PORT                                       obj\.\src\uart.o
COM_TX_PORT_CLK                                   obj\.\src\uart.o
COM_USART                                         obj\.\src\uart.o
COM_USART_CLK                                     obj\.\src\uart.o
CPSKInitDet                                       obj\.\src\PSK_Det.o
CRYP_IRQHandler                                   obj\.\startup\startup_stm32f4xx.o
CW_Gain                                           obj\.\src\touch_pad.o
                                                  obj\.\src\main.o
                                                  obj\.\src\Encoder_2.o
                                                  obj\.\src\DMA_IRQ_Handler.o
                                                  obj\.\src\ChangeOver.o
CalcAGC                                           obj\.\src\PSK_Det.o
CalcFFreqError                                    obj\.\src\PSK_Det.o
CalcFreqError                                     obj\.\src\PSK_Det.o
CalcQuality                                       obj\.\src\PSK_Det.o
CalibrationAddr                                   obj\.\externals\SM32F4-Discovery\STEmbeddedGUI\src\touchscreen.o
                                                  obj\.\externals\SM32F4-Discovery\STEmbeddedGUI\src\TscHal.o
CatchInputEvents                                  obj\.\externals\SM32F4-Discovery\STEmbeddedGUI\src\main_GUI.o
ChangePage                                        obj\.\externals\SM32F4-Discovery\STEmbeddedGUI\src\graphicObject.o
CheckBox1                                         obj\.\externals\SM32F4-Discovery\STEmbeddedGUI\src\images.o
                                                  obj\.\externals\SM32F4-Discovery\STEmbeddedGUI\src\graphicObject.o
CheckBox2                                         obj\.\externals\SM32F4-Discovery\STEmbeddedGUI\src\images.o
                                                  obj\.\externals\SM32F4-Discovery\STEmbeddedGUI\src\graphicObject.o
Check_BT_Flag                                     obj\.\src\User_Button.o
Check_SI570                                       obj\.\src\Si570.o
                                                  obj\.\src\Encoder_1.o
Codec_AudioInterface_Init                         obj\.\src\Init_I2S.o
                                                  obj\.\src\main.o
Codec_GPIO_Init                                   obj\.\src\Init_Codec.o
                                                  obj\.\src\Init_I2S.o
Codec_Init                                        obj\.\src\Init_Codec.o
                                                  obj\.\src\Init_I2S.o
Codec_Reset                                       obj\.\src\Init_Codec.o
CompareCoordinates                                obj\.\externals\SM32F4-Discovery\STEmbeddedGUI\src\graphicObject.o
CompareJoyCoordinates                             obj\.\externals\SM32F4-Discovery\STEmbeddedGUI\src\graphicObject.o
Compute_FXTAL                                     obj\.\src\Si570.o
                                                  obj\.\src\Encoder_1.o
Connect_IQ_Inputs                                 obj\.\src\Codec_Gains.o
                                                  obj\.\src\ChangeOver.o
Connect_Microphone_Input                          obj\.\src\Codec_Gains.o
                                                  obj\.\src\ChangeOver.o
Create_LedControlExample                          obj\.\externals\SM32F4-Discovery\STEmbeddedGUI\src\uiframework.o
Create_LedCtrlScreen                              obj\.\externals\SM32F4-Discovery\STEmbeddedGUI\src\uiframework.o
Create_PageObj                                    obj\.\externals\SM32F4-Discovery\STEmbeddedGUI\src\graphicObject.o
                                                  obj\.\externals\SM32F4-Discovery\STEmbeddedGUI\src\uiframework.o
CurrentScreen                                     obj\.\externals\SM32F4-Discovery\STEmbeddedGUI\src\uiframework.o
Cursor                                            obj\.\externals\SM32F4-Discovery\STEmbeddedGUI\src\graphicObject.o
                                                  obj\.\externals\SM32F4-Discovery\STEmbeddedGUI\src\cursor.o
CursorDraw                                        obj\.\externals\SM32F4-Discovery\STEmbeddedGUI\src\cursor.o
                                                  obj\.\externals\SM32F4-Discovery\STEmbeddedGUI\src\graphicObject.o
CursorInit                                        obj\.\externals\SM32F4-Discovery\STEmbeddedGUI\src\cursor.o
                                                  obj\.\externals\SM32F4-Discovery\STEmbeddedGUI\src\main_GUI.o
CursorPosition                                    obj\.\externals\SM32F4-Discovery\STEmbeddedGUI\src\cursor.o
CursorReadJoystick                                obj\.\externals\SM32F4-Discovery\STEmbeddedGUI\src\cursor.o
                                                  obj\.\externals\SM32F4-Discovery\STEmbeddedGUI\src\main_GUI.o
CursorShow                                        obj\.\externals\SM32F4-Discovery\STEmbeddedGUI\src\cursor.o
                                                  obj\.\externals\SM32F4-Discovery\STEmbeddedGUI\src\main_GUI.o
CursorStepMove                                    obj\.\externals\SM32F4-Discovery\STEmbeddedGUI\src\cursor.o
D2                                                obj\.\externals\SM32F4-Discovery\STEmbeddedGUI\src\touchscreen.o
DCMI_IRQHandler                                   obj\.\startup\startup_stm32f4xx.o
DIR1                                              obj\.\src\Encoder_1.o
DIR2                                              obj\.\src\Encoder_2.o
DMA1_Stream0_IRQHandler                           obj\.\src\DMA_IRQ_Handler.o
                                                  obj\.\startup\startup_stm32f4xx.o
DMA1_Stream1_IRQHandler                           obj\.\startup\startup_stm32f4xx.o
DMA1_Stream2_IRQHandler                           obj\.\startup\startup_stm32f4xx.o
DMA1_Stream3_IRQHandler                           obj\.\startup\startup_stm32f4xx.o
DMA1_Stream4_IRQHandler                           obj\.\startup\startup_stm32f4xx.o
DMA1_Stream5_IRQHandler                           obj\.\startup\startup_stm32f4xx.o
DMA1_Stream6_IRQHandler                           obj\.\startup\startup_stm32f4xx.o
DMA1_Stream7_IRQHandler                           obj\.\startup\startup_stm32f4xx.o
DMA2_Stream0_IRQHandler                           obj\.\startup\startup_stm32f4xx.o
DMA2_Stream1_IRQHandler                           obj\.\startup\startup_stm32f4xx.o
DMA2_Stream2_IRQHandler                           obj\.\startup\startup_stm32f4xx.o
DMA2_Stream3_IRQHandler                           obj\.\startup\startup_stm32f4xx.o
DMA2_Stream4_IRQHandler                           obj\.\startup\startup_stm32f4xx.o
DMA2_Stream5_IRQHandler                           obj\.\startup\startup_stm32f4xx.o
DMA2_Stream6_IRQHandler                           obj\.\startup\startup_stm32f4xx.o
DMA2_Stream7_IRQHandler                           obj\.\startup\startup_stm32f4xx.o
DMA_ClearFlag                                     .\externals\libs\libstm32f4xx_peripherals.a(stm32f4xx_dma.o)
DMA_ClearITPendingBit                             .\externals\libs\libstm32f4xx_peripherals.a(stm32f4xx_dma.o)
                                                  obj\.\src\DMA_IRQ_Handler.o
DMA_Cmd                                           .\externals\libs\libstm32f4xx_peripherals.a(stm32f4xx_dma.o)
                                                  obj\.\src\Init_DMA.o
DMA_DeInit                                        .\externals\libs\libstm32f4xx_peripherals.a(stm32f4xx_dma.o)
                                                  obj\.\src\Init_DMA.o
DMA_DoubleBufferModeCmd                           .\externals\libs\libstm32f4xx_peripherals.a(stm32f4xx_dma.o)
                                                  obj\.\src\Init_DMA.o
DMA_DoubleBufferModeConfig                        .\externals\libs\libstm32f4xx_peripherals.a(stm32f4xx_dma.o)
                                                  obj\.\src\Init_DMA.o
DMA_FlowControllerConfig                          .\externals\libs\libstm32f4xx_peripherals.a(stm32f4xx_dma.o)
DMA_GetCmdStatus                                  .\externals\libs\libstm32f4xx_peripherals.a(stm32f4xx_dma.o)
DMA_GetCurrDataCounter                            .\externals\libs\libstm32f4xx_peripherals.a(stm32f4xx_dma.o)
DMA_GetCurrentMemoryTarget                        .\externals\libs\libstm32f4xx_peripherals.a(stm32f4xx_dma.o)
                                                  obj\.\src\DMA_IRQ_Handler.o
DMA_GetFIFOStatus                                 .\externals\libs\libstm32f4xx_peripherals.a(stm32f4xx_dma.o)
DMA_GetFlagStatus                                 .\externals\libs\libstm32f4xx_peripherals.a(stm32f4xx_dma.o)
DMA_GetITStatus                                   .\externals\libs\libstm32f4xx_peripherals.a(stm32f4xx_dma.o)
DMA_ITConfig                                      .\externals\libs\libstm32f4xx_peripherals.a(stm32f4xx_dma.o)
                                                  obj\.\src\Init_DMA.o
DMA_Init                                          .\externals\libs\libstm32f4xx_peripherals.a(stm32f4xx_dma.o)
                                                  obj\.\src\Init_DMA.o
DMA_MemoryTargetConfig                            .\externals\libs\libstm32f4xx_peripherals.a(stm32f4xx_dma.o)
DMA_PeriphIncOffsetSizeConfig                     .\externals\libs\libstm32f4xx_peripherals.a(stm32f4xx_dma.o)
DMA_RX_Memory                                     obj\.\src\DMA_IRQ_Handler.o
DMA_SetCurrDataCounter                            .\externals\libs\libstm32f4xx_peripherals.a(stm32f4xx_dma.o)
DMA_StructInit                                    .\externals\libs\libstm32f4xx_peripherals.a(stm32f4xx_dma.o)
DMA_TX_Memory                                     obj\.\src\DMA_IRQ_Handler.o
DSP_Flag                                          obj\.\src\touch_pad.o
                                                  obj\.\src\main.o
                                                  obj\.\src\Encoder_2.o
                                                  obj\.\src\DMA_IRQ_Handler.o
                                                  obj\.\src\ChangeOver.o
DataMax                                           obj\.\src\touch_pad.o
                                                  obj\.\src\main.o
                                                  obj\.\src\eeprom.o
                                                  obj\.\src\Encoder_2.o
                                                  obj\.\src\ChangeOver.o
DataMin                                           obj\.\src\touch_pad.o
                                                  obj\.\src\main.o
                                                  obj\.\src\eeprom.o
                                                  obj\.\src\Encoder_2.o
                                                  obj\.\src\ChangeOver.o
DebounceCount                                     obj\.\src\touch_pad.o
DebugMon_Handler                                  obj\.\src\stm32f4xx_it.o
                                                  obj\.\startup\startup_stm32f4xx.o
Dec4LPCoef                                        obj\.\src\FIR_Coefficients.o
                                                  obj\.\src\DSP_Processing.o
DecodeSymb                                        obj\.\src\PSK_Det.o
Decrease_Step                                     obj\.\src\Encoder_1.o
                                                  obj\.\src\touch_pad.o
Default_ISR                                       obj\.\startup\startup_stm32f4xx.o
Delay                                             obj\.\src\Init_I2C.o
                                                  obj\.\src\Init_DMA.o
                                                  obj\.\src\Init_Codec.o
                                                  obj\.\src\Encoder_2.o
                                                  obj\.\src\Encoder_1.o
                                                  obj\.\src\Codec_Gains.o
                                                  obj\.\src\ChangeOver.o
DestroyPage                                       obj\.\externals\SM32F4-Discovery\STEmbeddedGUI\src\graphicObject.o
DestroyPageControl                                obj\.\externals\SM32F4-Discovery\STEmbeddedGUI\src\graphicObject.o
Disconnect_PGA                                    obj\.\src\Codec_Gains.o
                                                  obj\.\src\ChangeOver.o
Draw_Touch_Point                                  obj\.\src\touch_pad.o
E2                                                obj\.\externals\SM32F4-Discovery\STEmbeddedGUI\src\touchscreen.o
EEProm_Chk                                        obj\.\src\touch_pad.o
                                                  obj\.\src\eeprom.o
                                                  obj\.\src\Encoder_2.o
                                                  obj\.\src\Encoder_1.o
EEProm_Value                                      obj\.\src\Encoder_1.o
EEProm_Value1                                     obj\.\src\touch_pad.o
                                                  obj\.\src\main.o
                                                  obj\.\src\eeprom.o
                                                  obj\.\src\Encoder_2.o
                                                  obj\.\src\Encoder_1.o
EEProm_Value2                                     obj\.\src\touch_pad.o
                                                  obj\.\src\main.o
                                                  obj\.\src\eeprom.o
                                                  obj\.\src\Encoder_2.o
                                                  obj\.\src\ChangeOver.o
ENC_Sens1                                         obj\.\src\Encoder_1.o
ENC_Sens2                                         obj\.\src\Encoder_2.o
ETH_IRQHandler                                    obj\.\startup\startup_stm32f4xx.o
ETH_WKUP_IRQHandler                               obj\.\startup\startup_stm32f4xx.o
EXTI0_IRQHandler                                  obj\.\src\User_Button.o
                                                  obj\.\startup\startup_stm32f4xx.o
EXTI15_10_IRQHandler                              obj\.\startup\startup_stm32f4xx.o
EXTI1_IRQHandler                                  obj\.\src\stm32f4xx_it.o
                                                  obj\.\startup\startup_stm32f4xx.o
EXTI2_IRQHandler                                  obj\.\startup\startup_stm32f4xx.o
EXTI3_IRQHandler                                  obj\.\startup\startup_stm32f4xx.o
EXTI4_IRQHandler                                  obj\.\startup\startup_stm32f4xx.o
EXTI9_5_IRQHandler                                obj\.\src\touch_pad.o
                                                  obj\.\startup\startup_stm32f4xx.o
EXTI_ClearFlag                                    .\externals\libs\libstm32f4xx_peripherals.a(stm32f4xx_exti.o)
EXTI_ClearITPendingBit                            .\externals\libs\libstm32f4xx_peripherals.a(stm32f4xx_exti.o)
                                                  obj\.\src\touch_pad.o
                                                  obj\.\src\stm32f4xx_it.o
                                                  obj\.\src\User_Button.o
EXTI_DeInit                                       .\externals\libs\libstm32f4xx_peripherals.a(stm32f4xx_exti.o)
                                                  obj\.\externals\SM32F4-Discovery\STEmbeddedGUI\src\TscHal.o
EXTI_GenerateSWInterrupt                          .\externals\libs\libstm32f4xx_peripherals.a(stm32f4xx_exti.o)
EXTI_GetFlagStatus                                .\externals\libs\libstm32f4xx_peripherals.a(stm32f4xx_exti.o)
EXTI_GetITStatus                                  .\externals\libs\libstm32f4xx_peripherals.a(stm32f4xx_exti.o)
                                                  obj\.\src\touch_pad.o
                                                  obj\.\src\stm32f4xx_it.o
                                                  obj\.\src\User_Button.o
EXTI_Init                                         .\externals\libs\libstm32f4xx_peripherals.a(stm32f4xx_exti.o)
                                                  obj\.\externals\SM32F4-Discovery\STEmbeddedGUI\src\TscHal.o
                                                  obj\.\src\touch_pad.o
                                                  obj\.\src\stm32f4_discovery.o
                                                  obj\.\src\Encoder_2.o
                                                  obj\.\src\Encoder_1.o
EXTI_InitStructure                                obj\.\src\User_Button.o
                                                  obj\.\src\Encoder_2.o
                                                  obj\.\src\Encoder_1.o
EXTI_StructInit                                   .\externals\libs\libstm32f4xx_peripherals.a(stm32f4xx_exti.o)
Encoder1_GPIO_Config                              obj\.\src\Encoder_1.o
                                                  obj\.\src\main.o
Encoder2_GPIO_Config                              obj\.\src\Encoder_2.o
                                                  obj\.\src\main.o
EndAddr                                           obj\.\externals\SM32F4-Discovery\STEmbeddedGUI\src\touchscreen.o
                                                  obj\.\externals\SM32F4-Discovery\STEmbeddedGUI\src\TscHal.o
EraseCounter                                      obj\.\externals\SM32F4-Discovery\STEmbeddedGUI\src\touchscreen.o
F0                                                obj\.\src\main.o
                                                  obj\.\src\Si570.o
                                                  obj\.\src\Encoder_2.o
                                                  obj\.\src\Encoder_1.o
F2                                                obj\.\externals\SM32F4-Discovery\STEmbeddedGUI\src\touchscreen.o
FFT_Display                                       obj\.\src\main.o
FFT_Input                                         obj\.\src\main.o
                                                  obj\.\src\PSK_Det.o
                                                  obj\.\src\DSP_Processing.o
                                                  obj\.\src\DMA_IRQ_Handler.o
FFT_Magnitude                                     obj\.\src\main.o
                                                  obj\.\src\PSK_Det.o
                                                  obj\.\src\DSP_Processing.o
                                                  obj\.\src\DMA_IRQ_Handler.o
FFT_Output                                        obj\.\src\main.o
FFT_Scale                                         obj\.\src\DSP_Processing.o
FFT_Size                                          obj\.\src\DSP_Processing.o
FFT_Test                                          obj\.\src\DSP_Processing.o
FFT_status                                        obj\.\src\DSP_Processing.o
FIRBitCoef                                        obj\.\src\FIR_Coefficients.o
                                                  obj\.\src\DSP_Processing.o
FIRFreqCoef                                       obj\.\src\FIR_Coefficients.o
                                                  obj\.\src\DSP_Processing.o
FIR_I_In                                          obj\.\src\main.o
                                                  obj\.\src\PSK_Det.o
                                                  obj\.\src\DSP_Processing.o
                                                  obj\.\src\DMA_IRQ_Handler.o
FIR_I_Out                                         obj\.\src\main.o
                                                  obj\.\src\PSK_Det.o
                                                  obj\.\src\DSP_Processing.o
                                                  obj\.\src\DMA_IRQ_Handler.o
FIR_Q_In                                          obj\.\src\main.o
                                                  obj\.\src\PSK_Det.o
                                                  obj\.\src\DSP_Processing.o
                                                  obj\.\src\DMA_IRQ_Handler.o
FIR_Q_Out                                         obj\.\src\main.o
                                                  obj\.\src\PSK_Det.o
                                                  obj\.\src\DSP_Processing.o
                                                  obj\.\src\DMA_IRQ_Handler.o
FIR_State_I                                       obj\.\src\DSP_Processing.o
FIR_State_Q                                       obj\.\src\DSP_Processing.o
FLASH_ClearFlag                                   .\externals\libs\libstm32f4xx_peripherals.a(stm32f4xx_flash.o)
                                                  obj\.\externals\SM32F4-Discovery\STEmbeddedGUI\src\TscHal.o
FLASH_DataCacheCmd                                .\externals\libs\libstm32f4xx_peripherals.a(stm32f4xx_flash.o)
FLASH_DataCacheReset                              .\externals\libs\libstm32f4xx_peripherals.a(stm32f4xx_flash.o)
FLASH_EraseAllSectors                             .\externals\libs\libstm32f4xx_peripherals.a(stm32f4xx_flash.o)
FLASH_EraseSector                                 .\externals\libs\libstm32f4xx_peripherals.a(stm32f4xx_flash.o)
FLASH_GetFlagStatus                               .\externals\libs\libstm32f4xx_peripherals.a(stm32f4xx_flash.o)
FLASH_GetStatus                                   .\externals\libs\libstm32f4xx_peripherals.a(stm32f4xx_flash.o)
FLASH_IRQHandler                                  obj\.\startup\startup_stm32f4xx.o
FLASH_ITConfig                                    .\externals\libs\libstm32f4xx_peripherals.a(stm32f4xx_flash.o)
FLASH_InstructionCacheCmd                         .\externals\libs\libstm32f4xx_peripherals.a(stm32f4xx_flash.o)
FLASH_InstructionCacheReset                       .\externals\libs\libstm32f4xx_peripherals.a(stm32f4xx_flash.o)
FLASH_Lock                                        .\externals\libs\libstm32f4xx_peripherals.a(stm32f4xx_flash.o)
FLASH_OB_BORConfig                                .\externals\libs\libstm32f4xx_peripherals.a(stm32f4xx_flash.o)
FLASH_OB_GetBOR                                   .\externals\libs\libstm32f4xx_peripherals.a(stm32f4xx_flash.o)
FLASH_OB_GetRDP                                   .\externals\libs\libstm32f4xx_peripherals.a(stm32f4xx_flash.o)
FLASH_OB_GetUser                                  .\externals\libs\libstm32f4xx_peripherals.a(stm32f4xx_flash.o)
FLASH_OB_GetWRP                                   .\externals\libs\libstm32f4xx_peripherals.a(stm32f4xx_flash.o)
FLASH_OB_Launch                                   .\externals\libs\libstm32f4xx_peripherals.a(stm32f4xx_flash.o)
FLASH_OB_Lock                                     .\externals\libs\libstm32f4xx_peripherals.a(stm32f4xx_flash.o)
FLASH_OB_RDPConfig                                .\externals\libs\libstm32f4xx_peripherals.a(stm32f4xx_flash.o)
FLASH_OB_Unlock                                   .\externals\libs\libstm32f4xx_peripherals.a(stm32f4xx_flash.o)
FLASH_OB_UserConfig                               .\externals\libs\libstm32f4xx_peripherals.a(stm32f4xx_flash.o)
FLASH_OB_WRPConfig                                .\externals\libs\libstm32f4xx_peripherals.a(stm32f4xx_flash.o)
FLASH_PrefetchBufferCmd                           .\externals\libs\libstm32f4xx_peripherals.a(stm32f4xx_flash.o)
FLASH_ProgramByte                                 .\externals\libs\libstm32f4xx_peripherals.a(stm32f4xx_flash.o)
FLASH_ProgramDoubleWord                           .\externals\libs\libstm32f4xx_peripherals.a(stm32f4xx_flash.o)
FLASH_ProgramHalfWord                             .\externals\libs\libstm32f4xx_peripherals.a(stm32f4xx_flash.o)
FLASH_ProgramWord                                 .\externals\libs\libstm32f4xx_peripherals.a(stm32f4xx_flash.o)
                                                  obj\.\externals\SM32F4-Discovery\STEmbeddedGUI\src\TscHal.o
FLASH_SetLatency                                  .\externals\libs\libstm32f4xx_peripherals.a(stm32f4xx_flash.o)
FLASH_Unlock                                      .\externals\libs\libstm32f4xx_peripherals.a(stm32f4xx_flash.o)
                                                  obj\.\externals\SM32F4-Discovery\STEmbeddedGUI\src\TscHal.o
FLASH_WaitForLastOperation                        .\externals\libs\libstm32f4xx_peripherals.a(stm32f4xx_flash.o)
FOUT                                              obj\.\src\main.o
                                                  obj\.\src\Si570.o
                                                  obj\.\src\Encoder_2.o
                                                  obj\.\src\Encoder_1.o
FPU_IRQHandler                                    obj\.\startup\startup_stm32f4xx.o
FSMC_ClearFlag                                    .\externals\libs\libstm32f4xx_peripherals.a(stm32f4xx_fsmc.o)
FSMC_ClearITPendingBit                            .\externals\libs\libstm32f4xx_peripherals.a(stm32f4xx_fsmc.o)
FSMC_GetECC                                       .\externals\libs\libstm32f4xx_peripherals.a(stm32f4xx_fsmc.o)
FSMC_GetFlagStatus                                .\externals\libs\libstm32f4xx_peripherals.a(stm32f4xx_fsmc.o)
FSMC_GetITStatus                                  .\externals\libs\libstm32f4xx_peripherals.a(stm32f4xx_fsmc.o)
FSMC_IRQHandler                                   obj\.\startup\startup_stm32f4xx.o
FSMC_ITConfig                                     .\externals\libs\libstm32f4xx_peripherals.a(stm32f4xx_fsmc.o)
FSMC_NANDCmd                                      .\externals\libs\libstm32f4xx_peripherals.a(stm32f4xx_fsmc.o)
FSMC_NANDDeInit                                   .\externals\libs\libstm32f4xx_peripherals.a(stm32f4xx_fsmc.o)
FSMC_NANDECCCmd                                   .\externals\libs\libstm32f4xx_peripherals.a(stm32f4xx_fsmc.o)
FSMC_NANDInit                                     .\externals\libs\libstm32f4xx_peripherals.a(stm32f4xx_fsmc.o)
FSMC_NANDStructInit                               .\externals\libs\libstm32f4xx_peripherals.a(stm32f4xx_fsmc.o)
FSMC_NORSRAMCmd                                   .\externals\libs\libstm32f4xx_peripherals.a(stm32f4xx_fsmc.o)
                                                  obj\.\externals\SM32F4-Discovery\STEmbeddedGUI\src\LcdDriver_ILI9320.o
FSMC_NORSRAMDeInit                                .\externals\libs\libstm32f4xx_peripherals.a(stm32f4xx_fsmc.o)
FSMC_NORSRAMInit                                  .\externals\libs\libstm32f4xx_peripherals.a(stm32f4xx_fsmc.o)
                                                  obj\.\externals\SM32F4-Discovery\STEmbeddedGUI\src\LcdDriver_ILI9320.o
FSMC_NORSRAMStructInit                            .\externals\libs\libstm32f4xx_peripherals.a(stm32f4xx_fsmc.o)
FSMC_PCCARDCmd                                    .\externals\libs\libstm32f4xx_peripherals.a(stm32f4xx_fsmc.o)
FSMC_PCCARDDeInit                                 .\externals\libs\libstm32f4xx_peripherals.a(stm32f4xx_fsmc.o)
FSMC_PCCARDInit                                   .\externals\libs\libstm32f4xx_peripherals.a(stm32f4xx_fsmc.o)
FSMC_PCCARDStructInit                             .\externals\libs\libstm32f4xx_peripherals.a(stm32f4xx_fsmc.o)
FXTAL                                             obj\.\src\main.o
                                                  obj\.\src\Si570.o
                                                  obj\.\src\Encoder_2.o
                                                  obj\.\src\Encoder_1.o
F_Mult                                            obj\.\src\touch_pad.o
                                                  obj\.\src\main.o
                                                  obj\.\src\eeprom.o
                                                  obj\.\src\Encoder_2.o
                                                  obj\.\src\Encoder_1.o
F_Unit                                            obj\.\src\Encoder_1.o
Filter_I1                                         obj\.\src\DSP_Processing.o
                                                  obj\.\src\main.o
                                                  obj\.\src\PSK_Det.o
                                                  obj\.\src\DMA_IRQ_Handler.o
Filter_I2                                         obj\.\src\DSP_Processing.o
                                                  obj\.\src\main.o
                                                  obj\.\src\PSK_Det.o
                                                  obj\.\src\DMA_IRQ_Handler.o
Filter_I3                                         obj\.\src\DSP_Processing.o
                                                  obj\.\src\main.o
                                                  obj\.\src\PSK_Det.o
                                                  obj\.\src\DMA_IRQ_Handler.o
Filter_I4                                         obj\.\src\DSP_Processing.o
                                                  obj\.\src\main.o
                                                  obj\.\src\PSK_Det.o
                                                  obj\.\src\DMA_IRQ_Handler.o
Filter_Q1                                         obj\.\src\DSP_Processing.o
                                                  obj\.\src\main.o
                                                  obj\.\src\PSK_Det.o
                                                  obj\.\src\DMA_IRQ_Handler.o
Filter_Q2                                         obj\.\src\DSP_Processing.o
                                                  obj\.\src\main.o
                                                  obj\.\src\PSK_Det.o
                                                  obj\.\src\DMA_IRQ_Handler.o
Filter_Q3                                         obj\.\src\DSP_Processing.o
                                                  obj\.\src\main.o
                                                  obj\.\src\PSK_Det.o
                                                  obj\.\src\DMA_IRQ_Handler.o
Filter_Q4                                         obj\.\src\DSP_Processing.o
                                                  obj\.\src\main.o
                                                  obj\.\src\PSK_Det.o
                                                  obj\.\src\DMA_IRQ_Handler.o
Filter_delay_I1                                   obj\.\src\main.o
                                                  obj\.\src\PSK_Det.o
                                                  obj\.\src\DSP_Processing.o
                                                  obj\.\src\DMA_IRQ_Handler.o
Filter_delay_I2                                   obj\.\src\main.o
                                                  obj\.\src\PSK_Det.o
                                                  obj\.\src\DSP_Processing.o
                                                  obj\.\src\DMA_IRQ_Handler.o
Filter_delay_I3                                   obj\.\src\main.o
                                                  obj\.\src\PSK_Det.o
                                                  obj\.\src\DSP_Processing.o
                                                  obj\.\src\DMA_IRQ_Handler.o
Filter_delay_I4                                   obj\.\src\main.o
                                                  obj\.\src\PSK_Det.o
                                                  obj\.\src\DSP_Processing.o
                                                  obj\.\src\DMA_IRQ_Handler.o
Filter_delay_Q1                                   obj\.\src\main.o
                                                  obj\.\src\PSK_Det.o
                                                  obj\.\src\DSP_Processing.o
                                                  obj\.\src\DMA_IRQ_Handler.o
Filter_delay_Q2                                   obj\.\src\main.o
                                                  obj\.\src\PSK_Det.o
                                                  obj\.\src\DSP_Processing.o
                                                  obj\.\src\DMA_IRQ_Handler.o
Filter_delay_Q3                                   obj\.\src\main.o
                                                  obj\.\src\PSK_Det.o
                                                  obj\.\src\DSP_Processing.o
                                                  obj\.\src\DMA_IRQ_Handler.o
Filter_delay_Q4                                   obj\.\src\main.o
                                                  obj\.\src\PSK_Det.o
                                                  obj\.\src\DSP_Processing.o
                                                  obj\.\src\DMA_IRQ_Handler.o
Flag                                              obj\.\src\touch_pad.o
                                                  obj\.\src\main.o
                                                  obj\.\src\User_Button.o
                                                  obj\.\src\TFT_Display.o
                                                  obj\.\src\Sine_table.o
                                                  obj\.\src\PSK_Det.o
                                                  obj\.\src\PSKMod.o
                                                  obj\.\src\DSP_Processing.o
                                                  obj\.\src\DMA_IRQ_Handler.o
FlashFree_Address                                 obj\.\externals\SM32F4-Discovery\STEmbeddedGUI\src\touchscreen.o
Freq_Disp                                         obj\.\src\touch_pad.o
                                                  obj\.\src\main.o
                                                  obj\.\src\eeprom.o
                                                  obj\.\src\Encoder_2.o
                                                  obj\.\src\Encoder_1.o
Freq_Max                                          obj\.\src\Encoder_1.o
Freq_Min                                          obj\.\src\Encoder_1.o
Freq_Set                                          obj\.\src\touch_pad.o
                                                  obj\.\src\main.o
                                                  obj\.\src\eeprom.o
                                                  obj\.\src\Encoder_2.o
                                                  obj\.\src\Encoder_1.o
GL_ASCII12x12_Table                               obj\.\externals\SM32F4-Discovery\STEmbeddedGUI\src\gl_fonts.o
GL_ASCII16x24_Table                               obj\.\externals\SM32F4-Discovery\STEmbeddedGUI\src\gl_fonts.o
GL_ASCII8x12_Table                                obj\.\externals\SM32F4-Discovery\STEmbeddedGUI\src\gl_fonts.o
GL_ASCII8x12_bold_Table                           obj\.\externals\SM32F4-Discovery\STEmbeddedGUI\src\gl_fonts.o
GL_ASCII8x16_Table                                obj\.\externals\SM32F4-Discovery\STEmbeddedGUI\src\gl_fonts.o
GL_ASCII8x8_Table                                 obj\.\externals\SM32F4-Discovery\STEmbeddedGUI\src\gl_fonts.o
GL_BackColor                                      obj\.\externals\SM32F4-Discovery\STEmbeddedGUI\src\LcdHal.o
GL_BackLightSwitch                                obj\.\externals\SM32F4-Discovery\STEmbeddedGUI\src\LcdHal.o
                                                  obj\.\externals\SM32F4-Discovery\STEmbeddedGUI\src\graphicObject.o
GL_Clear                                          obj\.\externals\SM32F4-Discovery\STEmbeddedGUI\src\LcdHal.o
                                                  obj\.\externals\SM32F4-Discovery\STEmbeddedGUI\src\uiframework.o
                                                  obj\.\externals\SM32F4-Discovery\STEmbeddedGUI\src\touchscreen.o
                                                  obj\.\externals\SM32F4-Discovery\STEmbeddedGUI\src\main_GUI.o
                                                  obj\.\externals\SM32F4-Discovery\STEmbeddedGUI\src\graphicObject.o
GL_Cross                                          obj\.\externals\SM32F4-Discovery\STEmbeddedGUI\src\graphicObject.o
                                                  obj\.\externals\SM32F4-Discovery\STEmbeddedGUI\src\touchscreen.o
GL_Delay                                          obj\.\externals\SM32F4-Discovery\STEmbeddedGUI\src\graphicObject.o
                                                  obj\.\externals\SM32F4-Discovery\STEmbeddedGUI\src\touchscreen.o
GL_DisplayAdjStringLine                           obj\.\externals\SM32F4-Discovery\STEmbeddedGUI\src\LcdHal.o
                                                  obj\.\externals\SM32F4-Discovery\STEmbeddedGUI\src\touchscreen.o
                                                  obj\.\externals\SM32F4-Discovery\STEmbeddedGUI\src\graphicObject.o
GL_DrawButtonBMP                                  obj\.\externals\SM32F4-Discovery\STEmbeddedGUI\src\graphicObject.o
GL_DrawFilledCircle                               obj\.\externals\SM32F4-Discovery\STEmbeddedGUI\src\graphicObject.o
GL_DrawLine                                       obj\.\externals\SM32F4-Discovery\STEmbeddedGUI\src\LcdHal.o
                                                  obj\.\externals\SM32F4-Discovery\STEmbeddedGUI\src\graphicObject.o
GL_EXTI_DeInit                                    obj\.\externals\SM32F4-Discovery\STEmbeddedGUI\src\TscHal.o
GL_EXTI_Init                                      obj\.\externals\SM32F4-Discovery\STEmbeddedGUI\src\TscHal.o
GL_EXTI_TSC_IRQHandler                            obj\.\externals\SM32F4-Discovery\STEmbeddedGUI\src\TscHal.o
GL_Font12x12                                      obj\.\externals\SM32F4-Discovery\STEmbeddedGUI\src\gl_fonts.o
                                                  obj\.\externals\SM32F4-Discovery\STEmbeddedGUI\src\LcdHal.o
GL_Font16x24                                      obj\.\externals\SM32F4-Discovery\STEmbeddedGUI\src\gl_fonts.o
                                                  obj\.\externals\SM32F4-Discovery\STEmbeddedGUI\src\LcdHal.o
GL_Font8x12                                       obj\.\externals\SM32F4-Discovery\STEmbeddedGUI\src\gl_fonts.o
                                                  obj\.\externals\SM32F4-Discovery\STEmbeddedGUI\src\LcdHal.o
GL_Font8x12_bold                                  obj\.\externals\SM32F4-Discovery\STEmbeddedGUI\src\gl_fonts.o
                                                  obj\.\externals\SM32F4-Discovery\STEmbeddedGUI\src\LcdHal.o
GL_Font8x16                                       obj\.\externals\SM32F4-Discovery\STEmbeddedGUI\src\gl_fonts.o
                                                  obj\.\externals\SM32F4-Discovery\STEmbeddedGUI\src\LcdHal.o
GL_Font8x8                                        obj\.\externals\SM32F4-Discovery\STEmbeddedGUI\src\gl_fonts.o
                                                  obj\.\externals\SM32F4-Discovery\STEmbeddedGUI\src\LcdHal.o
GL_GPIO_EXTILineConfig                            obj\.\externals\SM32F4-Discovery\STEmbeddedGUI\src\TscHal.o
GL_GPIO_Init                                      obj\.\externals\SM32F4-Discovery\STEmbeddedGUI\src\TscHal.o
GL_GetFontLetterHeight                            obj\.\externals\SM32F4-Discovery\STEmbeddedGUI\src\LcdHal.o
GL_GetFontLetterWidth                             obj\.\externals\SM32F4-Discovery\STEmbeddedGUI\src\LcdHal.o
                                                  obj\.\externals\SM32F4-Discovery\STEmbeddedGUI\src\graphicObject.o
GL_LCD_CtrlLinesWrite                             obj\.\externals\SM32F4-Discovery\STEmbeddedGUI\src\LcdHal.o
GL_LCD_DrawCircle                                 obj\.\externals\SM32F4-Discovery\STEmbeddedGUI\src\LcdHal.o
                                                  obj\.\externals\SM32F4-Discovery\STEmbeddedGUI\src\graphicObject.o
GL_LCD_DrawRect                                   obj\.\externals\SM32F4-Discovery\STEmbeddedGUI\src\LcdHal.o
                                                  obj\.\externals\SM32F4-Discovery\STEmbeddedGUI\src\graphicObject.o
GL_LCD_Init                                       obj\.\externals\SM32F4-Discovery\STEmbeddedGUI\src\LcdHal.o
                                                  obj\.\externals\SM32F4-Discovery\STEmbeddedGUI\src\main_GUI.o
GL_LCD_WindowModeDisable                          obj\.\externals\SM32F4-Discovery\STEmbeddedGUI\src\LcdHal.o
GL_NVIC_DeInit                                    obj\.\externals\SM32F4-Discovery\STEmbeddedGUI\src\TscHal.o
GL_NVIC_Init                                      obj\.\externals\SM32F4-Discovery\STEmbeddedGUI\src\TscHal.o
GL_NVIC_PriorityGroupConfig                       obj\.\externals\SM32F4-Discovery\STEmbeddedGUI\src\TscHal.o
GL_NVIC_SetVectorTable                            obj\.\externals\SM32F4-Discovery\STEmbeddedGUI\src\TscHal.o
GL_NVIC_SystemHandlerPriorityConfig               obj\.\externals\SM32F4-Discovery\STEmbeddedGUI\src\TscHal.o
GL_PrintChar                                      obj\.\externals\SM32F4-Discovery\STEmbeddedGUI\src\LcdHal.o
GL_PrintString                                    obj\.\externals\SM32F4-Discovery\STEmbeddedGUI\src\LcdHal.o
                                                  obj\.\externals\SM32F4-Discovery\STEmbeddedGUI\src\graphicObject.o
                                                  obj\.\src\TFT_Display.o
GL_RCC_AHBPeriphClockCmd                          obj\.\externals\SM32F4-Discovery\STEmbeddedGUI\src\TscHal.o
GL_RCC_APBPeriphClockCmd                          obj\.\externals\SM32F4-Discovery\STEmbeddedGUI\src\TscHal.o
GL_SPI_Init                                       obj\.\externals\SM32F4-Discovery\STEmbeddedGUI\src\TscHal.o
GL_SetBackColor                                   obj\.\externals\SM32F4-Discovery\STEmbeddedGUI\src\LcdHal.o
                                                  obj\.\externals\SM32F4-Discovery\STEmbeddedGUI\src\touchscreen.o
                                                  obj\.\externals\SM32F4-Discovery\STEmbeddedGUI\src\graphicObject.o
GL_SetDisplayWindow                               obj\.\externals\SM32F4-Discovery\STEmbeddedGUI\src\LcdHal.o
                                                  obj\.\externals\SM32F4-Discovery\STEmbeddedGUI\src\graphicObject.o
GL_SetFont                                        obj\.\externals\SM32F4-Discovery\STEmbeddedGUI\src\LcdHal.o
                                                  obj\.\externals\SM32F4-Discovery\STEmbeddedGUI\src\graphicObject.o
GL_SetTextColor                                   obj\.\externals\SM32F4-Discovery\STEmbeddedGUI\src\LcdHal.o
                                                  obj\.\externals\SM32F4-Discovery\STEmbeddedGUI\src\uiframework.o
                                                  obj\.\externals\SM32F4-Discovery\STEmbeddedGUI\src\touchscreen.o
                                                  obj\.\externals\SM32F4-Discovery\STEmbeddedGUI\src\graphicObject.o
GL_TSC_Interface_Init                             obj\.\externals\SM32F4-Discovery\STEmbeddedGUI\src\TscHal.o
GL_TestDisplayScreen                              obj\.\externals\SM32F4-Discovery\STEmbeddedGUI\src\LcdHal.o
GL_TextColor                                      obj\.\externals\SM32F4-Discovery\STEmbeddedGUI\src\graphicObject.o
                                                  obj\.\externals\SM32F4-Discovery\STEmbeddedGUI\src\LcdHal.o
GPIO_CLK                                          obj\.\src\stm32f4_discovery.o
GPIO_DeInit                                       .\externals\libs\libstm32f4xx_peripherals.a(stm32f4xx_gpio.o)
GPIO_Init                                         .\externals\libs\libstm32f4xx_peripherals.a(stm32f4xx_gpio.o)
                                                  obj\.\externals\SM32F4-Discovery\STEmbeddedGUI\src\TscHal.o
                                                  obj\.\externals\SM32F4-Discovery\STEmbeddedGUI\src\LcdDriver_ILI9320.o
                                                  obj\.\src\usb_bsp.o
                                                  obj\.\src\uart.o
                                                  obj\.\src\touch_pad.o
                                                  obj\.\src\stm32f4_discovery.o
                                                  obj\.\src\User_Button.o
                                                  obj\.\src\Init_I2S.o
                                                  obj\.\src\Init_I2C.o
                                                  obj\.\src\Init_Codec.o
                                                  obj\.\src\Encoder_2.o
                                                  obj\.\src\Encoder_1.o
                                                  obj\.\src\DMA_Test_Pins.o
                                                  obj\.\src\ChangeOver.o
                                                  obj\.\src\CW_Mod.o
GPIO_PIN                                          obj\.\src\stm32f4_discovery.o
GPIO_PORT                                         obj\.\src\stm32f4_discovery.o
GPIO_PinAFConfig                                  .\externals\libs\libstm32f4xx_peripherals.a(stm32f4xx_gpio.o)
                                                  obj\.\externals\SM32F4-Discovery\STEmbeddedGUI\src\LcdDriver_ILI9320.o
                                                  obj\.\src\usb_bsp.o
                                                  obj\.\src\uart.o
                                                  obj\.\src\touch_pad.o
                                                  obj\.\src\Init_I2S.o
                                                  obj\.\src\Init_I2C.o
GPIO_PinLockConfig                                .\externals\libs\libstm32f4xx_peripherals.a(stm32f4xx_gpio.o)
GPIO_ReadInputData                                .\externals\libs\libstm32f4xx_peripherals.a(stm32f4xx_gpio.o)
                                                  obj\.\src\Encoder_2.o
                                                  obj\.\src\Encoder_1.o
GPIO_ReadInputDataBit                             .\externals\libs\libstm32f4xx_peripherals.a(stm32f4xx_gpio.o)
                                                  obj\.\src\touch_pad.o
                                                  obj\.\src\stm32f4_discovery.o
                                                  obj\.\src\User_Button.o
                                                  obj\.\src\DMA_IRQ_Handler.o
GPIO_ReadOutputData                               .\externals\libs\libstm32f4xx_peripherals.a(stm32f4xx_gpio.o)
GPIO_ReadOutputDataBit                            .\externals\libs\libstm32f4xx_peripherals.a(stm32f4xx_gpio.o)
GPIO_ResetBits                                    .\externals\libs\libstm32f4xx_peripherals.a(stm32f4xx_gpio.o)
                                                  obj\.\src\usb_bsp.o
                                                  obj\.\src\touch_pad.o
GPIO_SetBits                                      .\externals\libs\libstm32f4xx_peripherals.a(stm32f4xx_gpio.o)
                                                  obj\.\src\usb_bsp.o
                                                  obj\.\src\touch_pad.o
GPIO_StructInit                                   .\externals\libs\libstm32f4xx_peripherals.a(stm32f4xx_gpio.o)
GPIO_ToggleBits                                   .\externals\libs\libstm32f4xx_peripherals.a(stm32f4xx_gpio.o)
GPIO_Write                                        .\externals\libs\libstm32f4xx_peripherals.a(stm32f4xx_gpio.o)
GPIO_WriteBit                                     .\externals\libs\libstm32f4xx_peripherals.a(stm32f4xx_gpio.o)
                                                  obj\.\externals\SM32F4-Discovery\STEmbeddedGUI\src\LcdDriver_ILI9320.o
                                                  obj\.\src\Init_Codec.o
                                                  obj\.\src\DMA_IRQ_Handler.o
                                                  obj\.\src\ChangeOver.o
GetComboOptionActive                              obj\.\externals\SM32F4-Discovery\STEmbeddedGUI\src\graphicObject.o
GetComboOptionLabel                               obj\.\externals\SM32F4-Discovery\STEmbeddedGUI\src\graphicObject.o
GetNextBPSKSymbol                                 obj\.\src\PSKMod.o
GetObjStatus                                      obj\.\externals\SM32F4-Discovery\STEmbeddedGUI\src\graphicObject.o
GetTouchPoint                                     obj\.\src\touch_pad.o
GetTxChar                                         obj\.\src\PSKMod.o
Get_Label                                         obj\.\externals\SM32F4-Discovery\STEmbeddedGUI\src\graphicObject.o
Get_SlidebarValue                                 obj\.\externals\SM32F4-Discovery\STEmbeddedGUI\src\graphicObject.o
HALF_TBL                                          obj\.\src\PSK_Det.o
HASH_RNG_IRQHandler                               obj\.\startup\startup_stm32f4xx.o
HCD_GetCurrentFrame                               obj\.\externals\SM32F4-Discovery\USB\src\usb_hcd.o
                                                  obj\.\externals\SM32F4-Discovery\USB\src\usbh_hid_core.o
                                                  obj\.\externals\SM32F4-Discovery\USB\src\usbh_core.o
HCD_GetCurrentSpeed                               obj\.\externals\SM32F4-Discovery\USB\src\usb_hcd.o
                                                  obj\.\externals\SM32F4-Discovery\USB\src\usbh_core.o
HCD_GetHCState                                    obj\.\externals\SM32F4-Discovery\USB\src\usb_hcd.o
HCD_GetURB_State                                  obj\.\externals\SM32F4-Discovery\USB\src\usb_hcd.o
                                                  obj\.\externals\SM32F4-Discovery\USB\src\usbh_hid_core.o
                                                  obj\.\externals\SM32F4-Discovery\USB\src\usbh_core.o
HCD_GetXferCnt                                    obj\.\externals\SM32F4-Discovery\USB\src\usb_hcd.o
HCD_HC_Init                                       obj\.\externals\SM32F4-Discovery\USB\src\usb_hcd.o
HCD_Init                                          obj\.\externals\SM32F4-Discovery\USB\src\usb_hcd.o
                                                  obj\.\externals\SM32F4-Discovery\USB\src\usbh_core.o
HCD_IsDeviceConnected                             obj\.\externals\SM32F4-Discovery\USB\src\usb_hcd.o
                                                  obj\.\externals\SM32F4-Discovery\USB\src\usbh_core.o
HCD_ResetPort                                     obj\.\externals\SM32F4-Discovery\USB\src\usb_hcd.o
                                                  obj\.\externals\SM32F4-Discovery\USB\src\usbh_core.o
HCD_SubmitRequest                                 obj\.\externals\SM32F4-Discovery\USB\src\usb_hcd.o
                                                  obj\.\externals\SM32F4-Discovery\USB\src\usbh_ioreq.o
HID_Desc                                          obj\.\externals\SM32F4-Discovery\USB\src\usbh_hid_core.o
HID_KEYBRD_cb                                     obj\.\externals\SM32F4-Discovery\USB\src\usbh_hid_keybd.o
                                                  obj\.\externals\SM32F4-Discovery\USB\src\usbh_hid_core.o
HID_Machine                                       obj\.\externals\SM32F4-Discovery\USB\src\usbh_hid_core.o
HID_Report                                        obj\.\externals\SM32F4-Discovery\USB\src\usbh_hid_core.o
HID_Setup                                         obj\.\externals\SM32F4-Discovery\USB\src\usbh_hid_core.o
HID_cb                                            obj\.\externals\SM32F4-Discovery\USB\src\usbh_hid_core.o
                                                  obj\.\src\main.o
HSEStartUpStatus                                  obj\.\src\usb_bsp.o
HS_DIV                                            obj\.\src\main.o
                                                  obj\.\src\Si570.o
                                                  obj\.\src\Encoder_2.o
                                                  obj\.\src\Encoder_1.o
HS_DIV_VALUE_char                                 obj\.\src\Si570.o
                                                  obj\.\src\main.o
                                                  obj\.\src\Encoder_2.o
                                                  obj\.\src\Encoder_1.o
HWConfig_SetHardwareParams                        obj\.\externals\SM32F4-Discovery\STEmbeddedGUI\src\hw_config.o
                                                  obj\.\externals\SM32F4-Discovery\STEmbeddedGUI\src\main_GUI.o
HardFault_Handler                                 obj\.\src\stm32f4xx_it.o
                                                  obj\.\startup\startup_stm32f4xx.o
I2C1_ER_IRQHandler                                obj\.\startup\startup_stm32f4xx.o
I2C1_EV_IRQHandler                                obj\.\startup\startup_stm32f4xx.o
I2C2_ER_IRQHandler                                obj\.\startup\startup_stm32f4xx.o
I2C2_EV_IRQHandler                                obj\.\startup\startup_stm32f4xx.o
I2C3_ER_IRQHandler                                obj\.\startup\startup_stm32f4xx.o
I2C3_EV_IRQHandler                                obj\.\startup\startup_stm32f4xx.o
I2C_ARPCmd                                        .\externals\libs\libstm32f4xx_peripherals.a(stm32f4xx_i2c.o)
I2C_AcknowledgeConfig                             .\externals\libs\libstm32f4xx_peripherals.a(stm32f4xx_i2c.o)
                                                  obj\.\src\Init_I2C.o
I2C_CalculatePEC                                  .\externals\libs\libstm32f4xx_peripherals.a(stm32f4xx_i2c.o)
I2C_CheckEvent                                    .\externals\libs\libstm32f4xx_peripherals.a(stm32f4xx_i2c.o)
                                                  obj\.\src\Init_I2C.o
I2C_ClearFlag                                     .\externals\libs\libstm32f4xx_peripherals.a(stm32f4xx_i2c.o)
                                                  obj\.\src\Init_I2C.o
I2C_ClearITPendingBit                             .\externals\libs\libstm32f4xx_peripherals.a(stm32f4xx_i2c.o)
I2C_Cmd                                           .\externals\libs\libstm32f4xx_peripherals.a(stm32f4xx_i2c.o)
                                                  obj\.\src\Init_I2C.o
I2C_Cntrl_Init                                    obj\.\src\Init_I2C.o
                                                  obj\.\src\main.o
                                                  obj\.\src\Init_I2S.o
I2C_DMACmd                                        .\externals\libs\libstm32f4xx_peripherals.a(stm32f4xx_i2c.o)
I2C_DMALastTransferCmd                            .\externals\libs\libstm32f4xx_peripherals.a(stm32f4xx_i2c.o)
I2C_DeInit                                        .\externals\libs\libstm32f4xx_peripherals.a(stm32f4xx_i2c.o)
                                                  obj\.\src\Init_I2C.o
I2C_DualAddressCmd                                .\externals\libs\libstm32f4xx_peripherals.a(stm32f4xx_i2c.o)
I2C_FastModeDutyCycleConfig                       .\externals\libs\libstm32f4xx_peripherals.a(stm32f4xx_i2c.o)
I2C_GPIO_Init                                     obj\.\src\Init_I2C.o
                                                  obj\.\src\main.o
I2C_GeneralCallCmd                                .\externals\libs\libstm32f4xx_peripherals.a(stm32f4xx_i2c.o)
I2C_GenerateSTART                                 .\externals\libs\libstm32f4xx_peripherals.a(stm32f4xx_i2c.o)
                                                  obj\.\src\Init_I2C.o
I2C_GenerateSTOP                                  .\externals\libs\libstm32f4xx_peripherals.a(stm32f4xx_i2c.o)
                                                  obj\.\src\Init_I2C.o
I2C_GetFlagStatus                                 .\externals\libs\libstm32f4xx_peripherals.a(stm32f4xx_i2c.o)
                                                  obj\.\src\Init_I2C.o
I2C_GetITStatus                                   .\externals\libs\libstm32f4xx_peripherals.a(stm32f4xx_i2c.o)
I2C_GetLastEvent                                  .\externals\libs\libstm32f4xx_peripherals.a(stm32f4xx_i2c.o)
I2C_GetPEC                                        .\externals\libs\libstm32f4xx_peripherals.a(stm32f4xx_i2c.o)
I2C_ITConfig                                      .\externals\libs\libstm32f4xx_peripherals.a(stm32f4xx_i2c.o)
I2C_Init                                          .\externals\libs\libstm32f4xx_peripherals.a(stm32f4xx_i2c.o)
                                                  obj\.\src\Init_I2C.o
I2C_NACKPositionConfig                            .\externals\libs\libstm32f4xx_peripherals.a(stm32f4xx_i2c.o)
I2C_OwnAddress2Config                             .\externals\libs\libstm32f4xx_peripherals.a(stm32f4xx_i2c.o)
I2C_PECPositionConfig                             .\externals\libs\libstm32f4xx_peripherals.a(stm32f4xx_i2c.o)
I2C_ReadEEProm                                    obj\.\src\Init_I2C.o
                                                  obj\.\src\eeprom.o
I2C_ReadRegister                                  .\externals\libs\libstm32f4xx_peripherals.a(stm32f4xx_i2c.o)
I2C_ReadSlave                                     obj\.\src\Init_I2C.o
                                                  obj\.\src\Si570.o
I2C_ReceiveData                                   .\externals\libs\libstm32f4xx_peripherals.a(stm32f4xx_i2c.o)
                                                  obj\.\src\Init_I2C.o
I2C_SMBusAlertConfig                              .\externals\libs\libstm32f4xx_peripherals.a(stm32f4xx_i2c.o)
I2C_Send7bitAddress                               .\externals\libs\libstm32f4xx_peripherals.a(stm32f4xx_i2c.o)
                                                  obj\.\src\Init_I2C.o
I2C_SendData                                      .\externals\libs\libstm32f4xx_peripherals.a(stm32f4xx_i2c.o)
                                                  obj\.\src\Init_I2C.o
I2C_SoftwareResetCmd                              .\externals\libs\libstm32f4xx_peripherals.a(stm32f4xx_i2c.o)
I2C_StretchClockCmd                               .\externals\libs\libstm32f4xx_peripherals.a(stm32f4xx_i2c.o)
I2C_StructInit                                    .\externals\libs\libstm32f4xx_peripherals.a(stm32f4xx_i2c.o)
I2C_TransmitPEC                                   .\externals\libs\libstm32f4xx_peripherals.a(stm32f4xx_i2c.o)
I2C_WriteEEProm                                   obj\.\src\Init_I2C.o
                                                  obj\.\src\eeprom.o
I2C_WriteRegister                                 obj\.\src\Init_I2C.o
                                                  obj\.\src\Si570.o
                                                  obj\.\src\Init_Codec.o
                                                  obj\.\src\Codec_Gains.o
I2C_WriteRegister_N                               obj\.\src\Init_I2C.o
                                                  obj\.\src\Si570.o
I2S_Cmd                                           .\externals\libs\libstm32f4xx_peripherals.a(stm32f4xx_spi.o)
                                                  obj\.\src\Init_I2S.o
I2S_FullDuplexConfig                              .\externals\libs\libstm32f4xx_peripherals.a(stm32f4xx_spi.o)
                                                  obj\.\src\Init_I2S.o
I2S_GPIO_Init                                     obj\.\src\Init_I2S.o
I2S_Init                                          .\externals\libs\libstm32f4xx_peripherals.a(stm32f4xx_spi.o)
                                                  obj\.\src\Init_I2S.o
I2S_StructInit                                    .\externals\libs\libstm32f4xx_peripherals.a(stm32f4xx_spi.o)
IQ                                                obj\.\src\touch_pad.o
                                                  obj\.\src\main.o
                                                  obj\.\src\User_Button.o
                                                  obj\.\src\TFT_Display.o
                                                  obj\.\src\Sine_table.o
                                                  obj\.\src\PSK_Det.o
                                                  obj\.\src\PSKMod.o
                                                  obj\.\src\DSP_Processing.o
                                                  obj\.\src\DMA_IRQ_Handler.o
IQData                                            obj\.\src\touch_pad.o
                                                  obj\.\src\main.o
                                                  obj\.\src\eeprom.o
                                                  obj\.\src\Encoder_2.o
                                                  obj\.\src\ChangeOver.o
IQ_Disp                                           obj\.\src\touch_pad.o
                                                  obj\.\src\main.o
                                                  obj\.\src\eeprom.o
                                                  obj\.\src\Encoder_2.o
                                                  obj\.\src\ChangeOver.o
IQ_Unit                                           obj\.\src\touch_pad.o
                                                  obj\.\src\main.o
                                                  obj\.\src\eeprom.o
                                                  obj\.\src\Encoder_2.o
                                                  obj\.\src\ChangeOver.o
Increase_Step                                     obj\.\src\Encoder_1.o
                                                  obj\.\src\touch_pad.o
InitPSK                                           obj\.\src\PSK_Det.o
InitPSKModulator                                  obj\.\src\PSKMod.o
                                                  obj\.\src\PSK_Det.o
Init_CW_GPIO                                      obj\.\src\CW_Mod.o
                                                  obj\.\src\main.o
Init_Mode                                         obj\.\src\ModeSelect.o
                                                  obj\.\src\main.o
Init_PTT_IO                                       obj\.\src\ChangeOver.o
                                                  obj\.\src\main.o
InputInterface_Init                               obj\.\externals\SM32F4-Discovery\STEmbeddedGUI\src\main_GUI.o
IsBTConnected                                     obj\.\src\User_Button.o
Key_Down                                          obj\.\src\touch_pad.o
                                                  obj\.\src\main.o
                                                  obj\.\src\Encoder_2.o
                                                  obj\.\src\DMA_IRQ_Handler.o
                                                  obj\.\src\ChangeOver.o
LCDType                                           obj\.\externals\SM32F4-Discovery\STEmbeddedGUI\src\LcdDriver_ILI9320.o
LCD_BackLight                                     obj\.\externals\SM32F4-Discovery\STEmbeddedGUI\src\LcdDriver_ILI9320.o
LCD_CharSize                                      obj\.\src\TFT_Display.o
LCD_Clear                                         obj\.\externals\SM32F4-Discovery\STEmbeddedGUI\src\LcdDriver_ILI9320.o
                                                  obj\.\externals\SM32F4-Discovery\STEmbeddedGUI\src\LcdHal.o
                                                  obj\.\src\main.o
LCD_ClosedPolyLine                                obj\.\src\TFT_Display.o
LCD_ClosedPolyLineRelative                        obj\.\src\TFT_Display.o
LCD_DisplayOff                                    obj\.\externals\SM32F4-Discovery\STEmbeddedGUI\src\LcdDriver_ILI9320.o
                                                  obj\.\externals\SM32F4-Discovery\STEmbeddedGUI\src\LcdHal.o
LCD_DisplayOn                                     obj\.\externals\SM32F4-Discovery\STEmbeddedGUI\src\LcdDriver_ILI9320.o
                                                  obj\.\externals\SM32F4-Discovery\STEmbeddedGUI\src\LcdHal.o
LCD_DrawBMP16Bit                                  obj\.\externals\SM32F4-Discovery\STEmbeddedGUI\src\LcdDriver_ILI9320.o
                                                  obj\.\externals\SM32F4-Discovery\STEmbeddedGUI\src\graphicObject.o
LCD_DrawBMP1Bit                                   obj\.\externals\SM32F4-Discovery\STEmbeddedGUI\src\LcdDriver_ILI9320.o
                                                  obj\.\externals\SM32F4-Discovery\STEmbeddedGUI\src\LcdHal.o
LCD_DrawBMP1BitTransparent                        obj\.\externals\SM32F4-Discovery\STEmbeddedGUI\src\LcdDriver_ILI9320.o
                                                  obj\.\externals\SM32F4-Discovery\STEmbeddedGUI\src\LcdHal.o
LCD_DrawCircle                                    obj\.\src\TFT_Display.o
                                                  obj\.\src\touch_pad.o
LCD_DrawColorBMP                                  obj\.\externals\SM32F4-Discovery\STEmbeddedGUI\src\LcdDriver_ILI9320.o
                                                  obj\.\externals\SM32F4-Discovery\STEmbeddedGUI\src\graphicObject.o
LCD_DrawFFT                                       obj\.\src\TFT_Display.o
LCD_DrawFullCircle                                obj\.\src\TFT_Display.o
LCD_DrawFullRect                                  obj\.\src\TFT_Display.o
LCD_DrawFullSquare                                obj\.\src\TFT_Display.o
LCD_DrawLine                                      obj\.\externals\SM32F4-Discovery\STEmbeddedGUI\src\LcdDriver_ILI9320.o
                                                  obj\.\externals\SM32F4-Discovery\STEmbeddedGUI\src\LcdHal.o
LCD_DrawRect                                      obj\.\externals\SM32F4-Discovery\STEmbeddedGUI\src\LcdDriver_ILI9320.o
                                                  obj\.\externals\SM32F4-Discovery\STEmbeddedGUI\src\LcdHal.o
LCD_DrawSquare                                    obj\.\src\TFT_Display.o
LCD_DrawUniLine                                   obj\.\src\TFT_Display.o
                                                  obj\.\src\touch_pad.o
LCD_GetColors                                     obj\.\src\TFT_Display.o
LCD_GetPixel                                      obj\.\externals\SM32F4-Discovery\STEmbeddedGUI\src\LcdDriver_ILI9320.o
                                                  obj\.\externals\SM32F4-Discovery\STEmbeddedGUI\src\graphicObject.o
LCD_Init                                          obj\.\externals\SM32F4-Discovery\STEmbeddedGUI\src\LcdDriver_ILI9320.o
                                                  obj\.\src\main.o
LCD_PolyLine                                      obj\.\src\TFT_Display.o
LCD_PolyLineRelative                              obj\.\src\TFT_Display.o
LCD_PutPixel                                      obj\.\externals\SM32F4-Discovery\STEmbeddedGUI\src\LcdDriver_ILI9320.o
                                                  obj\.\externals\SM32F4-Discovery\STEmbeddedGUI\src\graphicObject.o
LCD_ReadRAM                                       obj\.\externals\SM32F4-Discovery\STEmbeddedGUI\src\LcdDriver_ILI9320.o
LCD_ReadReg                                       obj\.\externals\SM32F4-Discovery\STEmbeddedGUI\src\LcdDriver_ILI9320.o
LCD_ResetDisplayWindow                            obj\.\externals\SM32F4-Discovery\STEmbeddedGUI\src\LcdDriver_ILI9320.o
LCD_SetBackColor                                  obj\.\externals\SM32F4-Discovery\STEmbeddedGUI\src\LcdDriver_ILI9320.o
                                                  obj\.\externals\SM32F4-Discovery\STEmbeddedGUI\src\LcdHal.o
                                                  obj\.\src\ModeSelect.o
LCD_SetColors                                     obj\.\src\TFT_Display.o
LCD_SetCursor                                     obj\.\externals\SM32F4-Discovery\STEmbeddedGUI\src\LcdDriver_ILI9320.o
                                                  obj\.\externals\SM32F4-Discovery\STEmbeddedGUI\src\LcdHal.o
                                                  obj\.\src\TFT_Display.o
LCD_SetDisplayWindow                              obj\.\externals\SM32F4-Discovery\STEmbeddedGUI\src\LcdDriver_ILI9320.o
                                                  obj\.\externals\SM32F4-Discovery\STEmbeddedGUI\src\LcdHal.o
LCD_SetTextColor                                  obj\.\externals\SM32F4-Discovery\STEmbeddedGUI\src\LcdDriver_ILI9320.o
                                                  obj\.\externals\SM32F4-Discovery\STEmbeddedGUI\src\LcdHal.o
                                                  obj\.\src\TFT_Display.o
                                                  obj\.\src\ModeSelect.o
LCD_StringLine                                    obj\.\src\TFT_Display.o
                                                  obj\.\src\touch_pad.o
                                                  obj\.\src\main.o
                                                  obj\.\src\ModeSelect.o
                                                  obj\.\src\Encoder_2.o
                                                  obj\.\src\Encoder_1.o
LCD_TestDisplayScreen                             obj\.\externals\SM32F4-Discovery\STEmbeddedGUI\src\LcdDriver_ILI9320.o
LCD_WriteRAM                                      obj\.\externals\SM32F4-Discovery\STEmbeddedGUI\src\LcdDriver_ILI9320.o
                                                  obj\.\src\TFT_Display.o
LCD_WriteRAMWord                                  obj\.\externals\SM32F4-Discovery\STEmbeddedGUI\src\LcdDriver_ILI9320.o
                                                  obj\.\externals\SM32F4-Discovery\STEmbeddedGUI\src\LcdHal.o
LCD_WriteRAM_Prepare                              obj\.\externals\SM32F4-Discovery\STEmbeddedGUI\src\LcdDriver_ILI9320.o
                                                  obj\.\src\TFT_Display.o
LCD_WriteRAM_PrepareDir                           obj\.\externals\SM32F4-Discovery\STEmbeddedGUI\src\LcdDriver_ILI9320.o
LCD_WriteReg                                      obj\.\externals\SM32F4-Discovery\STEmbeddedGUI\src\LcdDriver_ILI9320.o
LCD_backColor                                     obj\.\externals\SM32F4-Discovery\STEmbeddedGUI\src\LcdDriver_ILI9320.o
                                                  obj\.\src\TFT_Display.o
LCD_buffer                                        obj\.\src\touch_pad.o
                                                  obj\.\src\main.o
                                                  obj\.\src\User_Button.o
                                                  obj\.\src\TFT_Display.o
                                                  obj\.\src\Sine_table.o
                                                  obj\.\src\PSK_Det.o
                                                  obj\.\src\PSKMod.o
                                                  obj\.\src\DSP_Processing.o
                                                  obj\.\src\DMA_IRQ_Handler.o
LCD_textColor                                     obj\.\externals\SM32F4-Discovery\STEmbeddedGUI\src\LcdDriver_ILI9320.o
                                                  obj\.\src\TFT_Display.o
LSB_Out                                           obj\.\src\main.o
                                                  obj\.\src\PSK_Det.o
                                                  obj\.\src\DSP_Processing.o
                                                  obj\.\src\DMA_IRQ_Handler.o
Large_RFREQ_Change                                obj\.\src\Si570.o
LedControlExample                                 obj\.\externals\SM32F4-Discovery\STEmbeddedGUI\src\uiframework.o
LedControlExample_Start_button_Click              obj\.\externals\SM32F4-Discovery\STEmbeddedGUI\src\uiappuser.o
                                                  obj\.\externals\SM32F4-Discovery\STEmbeddedGUI\src\uiframework.o
LedCtrlScreen                                     obj\.\externals\SM32F4-Discovery\STEmbeddedGUI\src\uiframework.o
LedCtrlScreen_Back_Button_Click                   obj\.\externals\SM32F4-Discovery\STEmbeddedGUI\src\uiappuser.o
LedCtrlScreen_Led1_Switch_Toggle                  obj\.\externals\SM32F4-Discovery\STEmbeddedGUI\src\uiappuser.o
                                                  obj\.\externals\SM32F4-Discovery\STEmbeddedGUI\src\uiframework.o
LedCtrlScreen_Led2_Switch_Toggle                  obj\.\externals\SM32F4-Discovery\STEmbeddedGUI\src\uiappuser.o
LedCtrlScreen_Led3_Switch_Toggle                  obj\.\externals\SM32F4-Discovery\STEmbeddedGUI\src\uiappuser.o
LedCtrlScreen_Led4_Switch_Toggle                  obj\.\externals\SM32F4-Discovery\STEmbeddedGUI\src\uiappuser.o
MemManage_Handler                                 obj\.\src\stm32f4xx_it.o
                                                  obj\.\startup\startup_stm32f4xx.o
Mode                                              obj\.\src\ModeSelect.o
                                                  obj\.\src\touch_pad.o
                                                  obj\.\src\Encoder_2.o
                                                  obj\.\src\DMA_IRQ_Handler.o
Mode_Test                                         obj\.\src\touch_pad.o
Mute_HP                                           obj\.\src\Codec_Gains.o
                                                  obj\.\src\ChangeOver.o
Mute_LO                                           obj\.\src\Codec_Gains.o
                                                  obj\.\src\ChangeOver.o
N1                                                obj\.\src\main.o
                                                  obj\.\src\Si570.o
                                                  obj\.\src\Encoder_2.o
                                                  obj\.\src\Encoder_1.o
N1_VALUE_char                                     obj\.\src\Si570.o
NCO_Frequency                                     obj\.\src\touch_pad.o
                                                  obj\.\src\main.o
                                                  obj\.\src\User_Button.o
                                                  obj\.\src\TFT_Display.o
                                                  obj\.\src\Sine_table.o
                                                  obj\.\src\PSK_Det.o
                                                  obj\.\src\PSKMod.o
                                                  obj\.\src\DSP_Processing.o
                                                  obj\.\src\DMA_IRQ_Handler.o
NMI_Handler                                       obj\.\src\stm32f4xx_it.o
                                                  obj\.\startup\startup_stm32f4xx.o
NVIC_Init                                         obj\.\externals\SM32F4-Discovery\USB\src\misc.o
                                                  obj\.\externals\SM32F4-Discovery\STEmbeddedGUI\src\TscHal.o
                                                  obj\.\src\usb_bsp.o
                                                  obj\.\src\uart.o
                                                  obj\.\src\touch_pad.o
                                                  obj\.\src\stm32f4_discovery.o
                                                  obj\.\src\Init_DMA.o
                                                  obj\.\src\Encoder_1.o
NVIC_InitStructure                                obj\.\src\stm32f4_discovery.o
NVIC_PriorityGroupConfig                          obj\.\externals\SM32F4-Discovery\USB\src\misc.o
                                                  obj\.\externals\SM32F4-Discovery\STEmbeddedGUI\src\main_GUI.o
                                                  obj\.\externals\SM32F4-Discovery\STEmbeddedGUI\src\TscHal.o
                                                  obj\.\src\usb_bsp.o
NVIC_SetVectorTable                               obj\.\externals\SM32F4-Discovery\USB\src\misc.o
                                                  obj\.\externals\SM32F4-Discovery\STEmbeddedGUI\src\main_GUI.o
                                                  obj\.\externals\SM32F4-Discovery\STEmbeddedGUI\src\TscHal.o
                                                  obj\.\src\usb_bsp.o
NVIC_SystemLPConfig                               obj\.\externals\SM32F4-Discovery\USB\src\misc.o
NbrOfPage                                         obj\.\externals\SM32F4-Discovery\STEmbeddedGUI\src\touchscreen.o
NewButton                                         obj\.\externals\SM32F4-Discovery\STEmbeddedGUI\src\graphicObject.o
                                                  obj\.\externals\SM32F4-Discovery\STEmbeddedGUI\src\uiframework.o
NewCheckbox                                       obj\.\externals\SM32F4-Discovery\STEmbeddedGUI\src\graphicObject.o
NewComboBoxGrp                                    obj\.\externals\SM32F4-Discovery\STEmbeddedGUI\src\graphicObject.o
NewGraphChart                                     obj\.\externals\SM32F4-Discovery\STEmbeddedGUI\src\graphicObject.o
NewHistogram                                      obj\.\externals\SM32F4-Discovery\STEmbeddedGUI\src\graphicObject.o
NewIcon                                           obj\.\externals\SM32F4-Discovery\STEmbeddedGUI\src\graphicObject.o
NewLabel                                          obj\.\externals\SM32F4-Discovery\STEmbeddedGUI\src\graphicObject.o
                                                  obj\.\externals\SM32F4-Discovery\STEmbeddedGUI\src\uiframework.o
NewLcdHwParamObj                                  obj\.\externals\SM32F4-Discovery\STEmbeddedGUI\src\LcdHal.o
NewRadioButtonGrp                                 obj\.\externals\SM32F4-Discovery\STEmbeddedGUI\src\graphicObject.o
NewSlidebar                                       obj\.\externals\SM32F4-Discovery\STEmbeddedGUI\src\graphicObject.o
NewSwitch                                         obj\.\externals\SM32F4-Discovery\STEmbeddedGUI\src\graphicObject.o
                                                  obj\.\externals\SM32F4-Discovery\STEmbeddedGUI\src\uiframework.o
NewTscHwParamObj                                  obj\.\externals\SM32F4-Discovery\STEmbeddedGUI\src\TscHal.o
NullFunc                                          obj\.\externals\SM32F4-Discovery\STEmbeddedGUI\src\graphicObject.o
OTG_FS_IRQHandler                                 obj\.\src\stm32f4xx_it.o
                                                  obj\.\startup\startup_stm32f4xx.o
OTG_FS_WKUP_IRQHandler                            obj\.\startup\startup_stm32f4xx.o
OTG_HS_EP1_IN_IRQHandler                          obj\.\startup\startup_stm32f4xx.o
OTG_HS_EP1_OUT_IRQHandler                         obj\.\startup\startup_stm32f4xx.o
OTG_HS_IRQHandler                                 obj\.\startup\startup_stm32f4xx.o
OTG_HS_WKUP_IRQHandler                            obj\.\startup\startup_stm32f4xx.o
Old_RFREQ                                         obj\.\src\main.o
                                                  obj\.\src\Si570.o
                                                  obj\.\src\Encoder_2.o
                                                  obj\.\src\Encoder_1.o
Output_Frequency                                  obj\.\src\Si570.o
                                                  obj\.\src\Encoder_1.o
PB_State                                          obj\.\src\User_Button.o
PSKPhaseLookupTable                               obj\.\src\PSKMod.o
PSKShapeTbl                                       obj\.\src\PSKMod.o
PSK_Gain                                          obj\.\src\DMA_IRQ_Handler.o
PSK_Tx                                            obj\.\src\DMA_IRQ_Handler.o
PSK_addCharToTx                                   obj\.\src\PSKMod.o
                                                  obj\.\src\uart.o
PSK_isQueueEmpty                                  obj\.\src\PSKMod.o
PSK_isQueueFull                                   obj\.\src\PSKMod.o
PVD_IRQHandler                                    obj\.\startup\startup_stm32f4xx.o
Pack_Si570_registers                              obj\.\src\Si570.o
PagesList                                         obj\.\externals\SM32F4-Discovery\STEmbeddedGUI\src\graphicObject.o
PendSV_Handler                                    obj\.\src\stm32f4xx_it.o
                                                  obj\.\startup\startup_stm32f4xx.o
Pixel                                             obj\.\src\TFT_Display.o
                                                  obj\.\src\touch_pad.o
Plot_Freq                                         obj\.\src\TFT_Display.o
                                                  obj\.\src\Encoder_1.o
Plot_Integer                                      obj\.\src\TFT_Display.o
                                                  obj\.\src\touch_pad.o
                                                  obj\.\src\Encoder_2.o
Previous_status                                   obj\.\externals\SM32F4-Discovery\USB\src\usbh_core.o
ProcPSKDet                                        obj\.\src\PSK_Det.o
                                                  obj\.\src\DMA_IRQ_Handler.o
ProcessInputData                                  obj\.\externals\SM32F4-Discovery\STEmbeddedGUI\src\graphicObject.o
                                                  obj\.\externals\SM32F4-Discovery\STEmbeddedGUI\src\main_GUI.o
Process_FFT                                       obj\.\src\DSP_Processing.o
                                                  obj\.\src\DMA_IRQ_Handler.o
Process_FIR_I                                     obj\.\src\DSP_Processing.o
                                                  obj\.\src\DMA_IRQ_Handler.o
Process_FIR_Q                                     obj\.\src\DSP_Processing.o
                                                  obj\.\src\DMA_IRQ_Handler.o
PutPixel                                          obj\.\src\TFT_Display.o
RButtonA                                          obj\.\externals\SM32F4-Discovery\STEmbeddedGUI\src\images.o
                                                  obj\.\externals\SM32F4-Discovery\STEmbeddedGUI\src\graphicObject.o
RButtonB                                          obj\.\externals\SM32F4-Discovery\STEmbeddedGUI\src\images.o
                                                  obj\.\externals\SM32F4-Discovery\STEmbeddedGUI\src\graphicObject.o
RCC_AHB1PeriphClockCmd                            .\externals\libs\libstm32f4xx_peripherals.a(stm32f4xx_rcc.o)
                                                  obj\.\externals\SM32F4-Discovery\STEmbeddedGUI\src\LcdDriver_ILI9320.o
                                                  obj\.\src\usb_bsp.o
                                                  obj\.\src\uart.o
                                                  obj\.\src\touch_pad.o
                                                  obj\.\src\stm32f4_discovery.o
                                                  obj\.\src\User_Button.o
                                                  obj\.\src\Init_I2S.o
                                                  obj\.\src\Init_I2C.o
                                                  obj\.\src\Init_DMA.o
                                                  obj\.\src\Init_Codec.o
                                                  obj\.\src\Encoder_2.o
                                                  obj\.\src\Encoder_1.o
                                                  obj\.\src\DMA_Test_Pins.o
                                                  obj\.\src\ChangeOver.o
                                                  obj\.\src\CW_Mod.o
RCC_AHB1PeriphClockLPModeCmd                      .\externals\libs\libstm32f4xx_peripherals.a(stm32f4xx_rcc.o)
RCC_AHB1PeriphResetCmd                            .\externals\libs\libstm32f4xx_peripherals.a(stm32f4xx_rcc.o)
                                                  .\externals\libs\libstm32f4xx_peripherals.a(stm32f4xx_gpio.o)
RCC_AHB2PeriphClockCmd                            .\externals\libs\libstm32f4xx_peripherals.a(stm32f4xx_rcc.o)
                                                  obj\.\src\usb_bsp.o
RCC_AHB2PeriphClockLPModeCmd                      .\externals\libs\libstm32f4xx_peripherals.a(stm32f4xx_rcc.o)
RCC_AHB2PeriphResetCmd                            .\externals\libs\libstm32f4xx_peripherals.a(stm32f4xx_rcc.o)
RCC_AHB3PeriphClockCmd                            .\externals\libs\libstm32f4xx_peripherals.a(stm32f4xx_rcc.o)
                                                  obj\.\externals\SM32F4-Discovery\STEmbeddedGUI\src\LcdDriver_ILI9320.o
RCC_AHB3PeriphClockLPModeCmd                      .\externals\libs\libstm32f4xx_peripherals.a(stm32f4xx_rcc.o)
RCC_AHB3PeriphResetCmd                            .\externals\libs\libstm32f4xx_peripherals.a(stm32f4xx_rcc.o)
RCC_APB1PeriphClockCmd                            .\externals\libs\libstm32f4xx_peripherals.a(stm32f4xx_rcc.o)
                                                  obj\.\externals\SM32F4-Discovery\STEmbeddedGUI\src\TscHal.o
                                                  obj\.\src\usb_bsp.o
                                                  obj\.\src\uart.o
                                                  obj\.\src\touch_pad.o
                                                  obj\.\src\Init_I2S.o
                                                  obj\.\src\Init_I2C.o
RCC_APB1PeriphClockLPModeCmd                      .\externals\libs\libstm32f4xx_peripherals.a(stm32f4xx_rcc.o)
RCC_APB1PeriphResetCmd                            .\externals\libs\libstm32f4xx_peripherals.a(stm32f4xx_rcc.o)
                                                  .\externals\libs\libstm32f4xx_peripherals.a(stm32f4xx_usart.o)
                                                  .\externals\libs\libstm32f4xx_peripherals.a(stm32f4xx_tim.o)
                                                  .\externals\libs\libstm32f4xx_peripherals.a(stm32f4xx_spi.o)
                                                  .\externals\libs\libstm32f4xx_peripherals.a(stm32f4xx_i2c.o)
RCC_APB2PeriphClockCmd                            .\externals\libs\libstm32f4xx_peripherals.a(stm32f4xx_rcc.o)
                                                  obj\.\externals\SM32F4-Discovery\STEmbeddedGUI\src\TscHal.o
                                                  obj\.\externals\SM32F4-Discovery\STEmbeddedGUI\src\LcdDriver_ILI9320.o
                                                  obj\.\src\usb_bsp.o
                                                  obj\.\src\touch_pad.o
                                                  obj\.\src\stm32f4_discovery.o
                                                  obj\.\src\User_Button.o
                                                  obj\.\src\Encoder_2.o
                                                  obj\.\src\Encoder_1.o
                                                  obj\.\src\CW_Mod.o
RCC_APB2PeriphClockLPModeCmd                      .\externals\libs\libstm32f4xx_peripherals.a(stm32f4xx_rcc.o)
RCC_APB2PeriphResetCmd                            .\externals\libs\libstm32f4xx_peripherals.a(stm32f4xx_rcc.o)
                                                  .\externals\libs\libstm32f4xx_peripherals.a(stm32f4xx_usart.o)
                                                  .\externals\libs\libstm32f4xx_peripherals.a(stm32f4xx_tim.o)
                                                  .\externals\libs\libstm32f4xx_peripherals.a(stm32f4xx_syscfg.o)
                                                  .\externals\libs\libstm32f4xx_peripherals.a(stm32f4xx_spi.o)
RCC_AdjustHSICalibrationValue                     .\externals\libs\libstm32f4xx_peripherals.a(stm32f4xx_rcc.o)
RCC_BackupResetCmd                                .\externals\libs\libstm32f4xx_peripherals.a(stm32f4xx_rcc.o)
RCC_ClearFlag                                     .\externals\libs\libstm32f4xx_peripherals.a(stm32f4xx_rcc.o)
RCC_ClearITPendingBit                             .\externals\libs\libstm32f4xx_peripherals.a(stm32f4xx_rcc.o)
RCC_ClockSecuritySystemCmd                        .\externals\libs\libstm32f4xx_peripherals.a(stm32f4xx_rcc.o)
RCC_DeInit                                        .\externals\libs\libstm32f4xx_peripherals.a(stm32f4xx_rcc.o)
RCC_GetClocksFreq                                 .\externals\libs\libstm32f4xx_peripherals.a(stm32f4xx_rcc.o)
                                                  .\externals\libs\libstm32f4xx_peripherals.a(stm32f4xx_usart.o)
                                                  .\externals\libs\libstm32f4xx_peripherals.a(stm32f4xx_i2c.o)
                                                  obj\.\externals\SM32F4-Discovery\STEmbeddedGUI\src\main_GUI.o
RCC_GetFlagStatus                                 .\externals\libs\libstm32f4xx_peripherals.a(stm32f4xx_rcc.o)
RCC_GetITStatus                                   .\externals\libs\libstm32f4xx_peripherals.a(stm32f4xx_rcc.o)
RCC_GetSYSCLKSource                               .\externals\libs\libstm32f4xx_peripherals.a(stm32f4xx_rcc.o)
RCC_HCLKConfig                                    .\externals\libs\libstm32f4xx_peripherals.a(stm32f4xx_rcc.o)
RCC_HSEConfig                                     .\externals\libs\libstm32f4xx_peripherals.a(stm32f4xx_rcc.o)
RCC_HSICmd                                        .\externals\libs\libstm32f4xx_peripherals.a(stm32f4xx_rcc.o)
RCC_I2SCLKConfig                                  .\externals\libs\libstm32f4xx_peripherals.a(stm32f4xx_rcc.o)
RCC_IRQHandler                                    obj\.\startup\startup_stm32f4xx.o
RCC_ITConfig                                      .\externals\libs\libstm32f4xx_peripherals.a(stm32f4xx_rcc.o)
RCC_LSEConfig                                     .\externals\libs\libstm32f4xx_peripherals.a(stm32f4xx_rcc.o)
RCC_LSICmd                                        .\externals\libs\libstm32f4xx_peripherals.a(stm32f4xx_rcc.o)
RCC_MCO1Config                                    .\externals\libs\libstm32f4xx_peripherals.a(stm32f4xx_rcc.o)
RCC_MCO2Config                                    .\externals\libs\libstm32f4xx_peripherals.a(stm32f4xx_rcc.o)
RCC_PCLK1Config                                   .\externals\libs\libstm32f4xx_peripherals.a(stm32f4xx_rcc.o)
RCC_PCLK2Config                                   .\externals\libs\libstm32f4xx_peripherals.a(stm32f4xx_rcc.o)
RCC_PLLCmd                                        .\externals\libs\libstm32f4xx_peripherals.a(stm32f4xx_rcc.o)
RCC_PLLConfig                                     .\externals\libs\libstm32f4xx_peripherals.a(stm32f4xx_rcc.o)
RCC_PLLI2SCmd                                     .\externals\libs\libstm32f4xx_peripherals.a(stm32f4xx_rcc.o)
RCC_PLLI2SConfig                                  .\externals\libs\libstm32f4xx_peripherals.a(stm32f4xx_rcc.o)
RCC_RTCCLKCmd                                     .\externals\libs\libstm32f4xx_peripherals.a(stm32f4xx_rcc.o)
RCC_RTCCLKConfig                                  .\externals\libs\libstm32f4xx_peripherals.a(stm32f4xx_rcc.o)
RCC_SYSCLKConfig                                  .\externals\libs\libstm32f4xx_peripherals.a(stm32f4xx_rcc.o)
RCC_WaitForHSEStartUp                             .\externals\libs\libstm32f4xx_peripherals.a(stm32f4xx_rcc.o)
RFREQ                                             obj\.\src\main.o
                                                  obj\.\src\Si570.o
                                                  obj\.\src\Encoder_2.o
                                                  obj\.\src\Encoder_1.o
RFREQ_FRAC                                        obj\.\src\main.o
                                                  obj\.\src\Si570.o
                                                  obj\.\src\Encoder_2.o
                                                  obj\.\src\Encoder_1.o
RFREQ_INT                                         obj\.\src\main.o
                                                  obj\.\src\Si570.o
                                                  obj\.\src\Encoder_2.o
                                                  obj\.\src\Encoder_1.o
RTC_Alarm_IRQHandler                              obj\.\startup\startup_stm32f4xx.o
RTC_WKUP_IRQHandler                               obj\.\startup\startup_stm32f4xx.o
R_lgain                                           obj\.\src\touch_pad.o
                                                  obj\.\src\main.o
                                                  obj\.\src\Encoder_2.o
                                                  obj\.\src\DMA_IRQ_Handler.o
                                                  obj\.\src\ChangeOver.o
R_xgain                                           obj\.\src\touch_pad.o
                                                  obj\.\src\main.o
                                                  obj\.\src\Encoder_2.o
                                                  obj\.\src\DMA_IRQ_Handler.o
                                                  obj\.\src\ChangeOver.o
Rcvr_DSP                                          obj\.\src\DMA_IRQ_Handler.o
Read_Ads7846                                      obj\.\src\touch_pad.o
Read_IQ_Data                                      obj\.\src\eeprom.o
                                                  obj\.\src\Encoder_2.o
Read_Int_EEProm                                   obj\.\src\eeprom.o
                                                  obj\.\src\Encoder_2.o
Read_Long_EEProm                                  obj\.\src\eeprom.o
                                                  obj\.\src\Encoder_1.o
Read_SI570_Data                                   obj\.\src\eeprom.o
                                                  obj\.\src\Encoder_1.o
Read_Si570_registers                              obj\.\src\Si570.o
Read_X                                            obj\.\src\touch_pad.o
Read_Y                                            obj\.\src\touch_pad.o
Recall_F0                                         obj\.\src\Si570.o
Receive_Sequence                                  obj\.\src\ChangeOver.o
                                                  obj\.\src\touch_pad.o
                                                  obj\.\src\Encoder_2.o
RefreshPage                                       obj\.\externals\SM32F4-Discovery\STEmbeddedGUI\src\graphicObject.o
RefreshPageControl                                obj\.\externals\SM32F4-Discovery\STEmbeddedGUI\src\graphicObject.o
ResetComboOptionActive                            obj\.\externals\SM32F4-Discovery\STEmbeddedGUI\src\graphicObject.o
ResetDetector                                     obj\.\src\PSK_Det.o
ResetModem                                        obj\.\src\PSK_Det.o
                                                  obj\.\src\main.o
Reset_Vector                                      obj\.\startup\startup_stm32f4xx.o
Rx0BufferDMA                                      obj\.\src\main.o
                                                  obj\.\src\PSK_Det.o
                                                  obj\.\src\Init_DMA.o
                                                  obj\.\src\DSP_Processing.o
                                                  obj\.\src\DMA_IRQ_Handler.o
Rx1BufferDMA                                      obj\.\src\main.o
                                                  obj\.\src\PSK_Det.o
                                                  obj\.\src\Init_DMA.o
                                                  obj\.\src\DSP_Processing.o
                                                  obj\.\src\DMA_IRQ_Handler.o
S1                                                obj\.\src\uart.o
                                                  obj\.\src\PSK_Det.o
                                                  obj\.\src\PSKMod.o
                                                  obj\.\src\DMA_IRQ_Handler.o
                                                  obj\.\src\ChangeOver.o
S2                                                obj\.\src\uart.o
                                                  obj\.\src\PSK_Det.o
                                                  obj\.\src\PSKMod.o
                                                  obj\.\src\DMA_IRQ_Handler.o
                                                  obj\.\src\ChangeOver.o
SDIO_IRQHandler                                   obj\.\startup\startup_stm32f4xx.o
SI570_Chk                                         obj\.\src\main.o
                                                  obj\.\src\Si570.o
                                                  obj\.\src\Encoder_2.o
                                                  obj\.\src\Encoder_1.o
SPI1_IRQHandler                                   obj\.\startup\startup_stm32f4xx.o
SPI2_IRQHandler                                   obj\.\startup\startup_stm32f4xx.o
SPI3_IRQHandler                                   obj\.\startup\startup_stm32f4xx.o
SPI_BiDirectionalLineConfig                       .\externals\libs\libstm32f4xx_peripherals.a(stm32f4xx_spi.o)
SPI_CalculateCRC                                  .\externals\libs\libstm32f4xx_peripherals.a(stm32f4xx_spi.o)
SPI_Cmd                                           .\externals\libs\libstm32f4xx_peripherals.a(stm32f4xx_spi.o)
                                                  obj\.\src\touch_pad.o
SPI_DataSizeConfig                                .\externals\libs\libstm32f4xx_peripherals.a(stm32f4xx_spi.o)
SPI_GetCRC                                        .\externals\libs\libstm32f4xx_peripherals.a(stm32f4xx_spi.o)
SPI_GetCRCPolynomial                              .\externals\libs\libstm32f4xx_peripherals.a(stm32f4xx_spi.o)
SPI_I2S_ClearFlag                                 .\externals\libs\libstm32f4xx_peripherals.a(stm32f4xx_spi.o)
SPI_I2S_ClearITPendingBit                         .\externals\libs\libstm32f4xx_peripherals.a(stm32f4xx_spi.o)
SPI_I2S_DMACmd                                    .\externals\libs\libstm32f4xx_peripherals.a(stm32f4xx_spi.o)
                                                  obj\.\src\Init_DMA.o
SPI_I2S_DeInit                                    .\externals\libs\libstm32f4xx_peripherals.a(stm32f4xx_spi.o)
                                                  obj\.\src\touch_pad.o
SPI_I2S_GetFlagStatus                             .\externals\libs\libstm32f4xx_peripherals.a(stm32f4xx_spi.o)
                                                  obj\.\src\touch_pad.o
SPI_I2S_GetITStatus                               .\externals\libs\libstm32f4xx_peripherals.a(stm32f4xx_spi.o)
SPI_I2S_ITConfig                                  .\externals\libs\libstm32f4xx_peripherals.a(stm32f4xx_spi.o)
SPI_I2S_ReceiveData                               .\externals\libs\libstm32f4xx_peripherals.a(stm32f4xx_spi.o)
                                                  obj\.\src\touch_pad.o
SPI_I2S_SendData                                  .\externals\libs\libstm32f4xx_peripherals.a(stm32f4xx_spi.o)
                                                  obj\.\src\touch_pad.o
SPI_Init                                          .\externals\libs\libstm32f4xx_peripherals.a(stm32f4xx_spi.o)
                                                  obj\.\externals\SM32F4-Discovery\STEmbeddedGUI\src\TscHal.o
                                                  obj\.\src\touch_pad.o
SPI_NSSInternalSoftwareConfig                     .\externals\libs\libstm32f4xx_peripherals.a(stm32f4xx_spi.o)
SPI_SSOutputCmd                                   .\externals\libs\libstm32f4xx_peripherals.a(stm32f4xx_spi.o)
SPI_StructInit                                    .\externals\libs\libstm32f4xx_peripherals.a(stm32f4xx_spi.o)
SPI_TIModeCmd                                     .\externals\libs\libstm32f4xx_peripherals.a(stm32f4xx_spi.o)
SPI_TransmitCRC                                   .\externals\libs\libstm32f4xx_peripherals.a(stm32f4xx_spi.o)
STM_EVAL_LEDInit                                  obj\.\src\stm32f4_discovery.o
STM_EVAL_LEDOff                                   obj\.\src\stm32f4_discovery.o
STM_EVAL_LEDOn                                    obj\.\src\stm32f4_discovery.o
STM_EVAL_LEDToggle                                obj\.\src\stm32f4_discovery.o
STM_EVAL_PBGetState                               obj\.\src\stm32f4_discovery.o
STM_EVAL_PBInit                                   obj\.\src\stm32f4_discovery.o
                                                  obj\.\src\usb_bsp.o
SVC_Handler                                       obj\.\src\stm32f4xx_it.o
                                                  obj\.\startup\startup_stm32f4xx.o
SYSCFG_CompensationCellCmd                        .\externals\libs\libstm32f4xx_peripherals.a(stm32f4xx_syscfg.o)
SYSCFG_DeInit                                     .\externals\libs\libstm32f4xx_peripherals.a(stm32f4xx_syscfg.o)
SYSCFG_ETH_MediaInterfaceConfig                   .\externals\libs\libstm32f4xx_peripherals.a(stm32f4xx_syscfg.o)
SYSCFG_EXTILineConfig                             .\externals\libs\libstm32f4xx_peripherals.a(stm32f4xx_syscfg.o)
                                                  obj\.\src\touch_pad.o
                                                  obj\.\src\stm32f4_discovery.o
                                                  obj\.\src\Encoder_2.o
                                                  obj\.\src\Encoder_1.o
SYSCFG_GetCompensationCellStatus                  .\externals\libs\libstm32f4xx_peripherals.a(stm32f4xx_syscfg.o)
SYSCFG_MemoryRemapConfig                          .\externals\libs\libstm32f4xx_peripherals.a(stm32f4xx_syscfg.o)
S_CFFT                                            obj\.\src\DSP_Processing.o
S_FIR_I                                           obj\.\src\DSP_Processing.o
S_FIR_Q                                           obj\.\src\DSP_Processing.o
Samp                                              obj\.\src\touch_pad.o
                                                  obj\.\src\main.o
                                                  obj\.\src\User_Button.o
                                                  obj\.\src\TFT_Display.o
                                                  obj\.\src\Sine_table.o
                                                  obj\.\src\PSK_Det.o
                                                  obj\.\src\PSKMod.o
                                                  obj\.\src\DSP_Processing.o
                                                  obj\.\src\DMA_IRQ_Handler.o
Sample_Frequency                                  obj\.\src\touch_pad.o
                                                  obj\.\src\main.o
                                                  obj\.\src\User_Button.o
                                                  obj\.\src\TFT_Display.o
                                                  obj\.\src\Sine_table.o
                                                  obj\.\src\PSK_Det.o
                                                  obj\.\src\PSKMod.o
                                                  obj\.\src\DSP_Processing.o
                                                  obj\.\src\DMA_IRQ_Handler.o
SetAFCLimit                                       obj\.\src\PSK_Det.o
                                                  obj\.\src\main.o
SetComboOptionLabel                               obj\.\externals\SM32F4-Discovery\STEmbeddedGUI\src\graphicObject.o
SetGraphChartPoints                               obj\.\externals\SM32F4-Discovery\STEmbeddedGUI\src\graphicObject.o
SetHistogramPoints                                obj\.\externals\SM32F4-Discovery\STEmbeddedGUI\src\graphicObject.o
SetIconImage                                      obj\.\externals\SM32F4-Discovery\STEmbeddedGUI\src\graphicObject.o
SetRXFrequency                                    obj\.\src\PSK_Det.o
                                                  obj\.\src\touch_pad.o
                                                  obj\.\src\main.o
SetSampleClkAdj                                   obj\.\src\PSK_Det.o
Set_ADC_DVC                                       obj\.\src\Codec_Gains.o
                                                  obj\.\src\ChangeOver.o
Set_DAC_DVC                                       obj\.\src\Codec_Gains.o
                                                  obj\.\src\Encoder_2.o
                                                  obj\.\src\ChangeOver.o
Set_HP_Gain                                       obj\.\src\Codec_Gains.o
                                                  obj\.\src\Encoder_2.o
                                                  obj\.\src\ChangeOver.o
Set_HS_DIV_N1                                     obj\.\src\Si570.o
Set_IQ_Units                                      obj\.\src\Encoder_2.o
Set_Initial_IQ_Data                               obj\.\src\Encoder_2.o
Set_Initial_SI570_Data                            obj\.\src\Encoder_1.o
                                                  obj\.\src\Encoder_2.o
Set_LO_Gain                                       obj\.\src\Codec_Gains.o
                                                  obj\.\src\ChangeOver.o
Set_Label                                         obj\.\externals\SM32F4-Discovery\STEmbeddedGUI\src\graphicObject.o
Set_LastFlashMemoryAddress                        obj\.\externals\SM32F4-Discovery\STEmbeddedGUI\src\TscHal.o
Set_Maximums                                      obj\.\src\Encoder_2.o
Set_Minimums                                      obj\.\src\Encoder_2.o
Set_Mode_Display                                  obj\.\src\ModeSelect.o
                                                  obj\.\src\touch_pad.o
Set_PGA_Gain                                      obj\.\src\Codec_Gains.o
                                                  obj\.\src\Encoder_2.o
                                                  obj\.\src\ChangeOver.o
ShowPage                                          obj\.\externals\SM32F4-Discovery\STEmbeddedGUI\src\graphicObject.o
Show_HomeScreen                                   obj\.\externals\SM32F4-Discovery\STEmbeddedGUI\src\uiframework.o
                                                  obj\.\externals\SM32F4-Discovery\STEmbeddedGUI\src\main_GUI.o
                                                  obj\.\src\main.o
Show_LedControlExample                            obj\.\externals\SM32F4-Discovery\STEmbeddedGUI\src\uiframework.o
                                                  obj\.\externals\SM32F4-Discovery\STEmbeddedGUI\src\uiappuser.o
Show_LedCtrlScreen                                obj\.\externals\SM32F4-Discovery\STEmbeddedGUI\src\uiframework.o
                                                  obj\.\externals\SM32F4-Discovery\STEmbeddedGUI\src\uiappuser.o
Si570_StartUp                                     obj\.\src\Si570.o
Sideband_Demod                                    obj\.\src\DSP_Processing.o
                                                  obj\.\src\DMA_IRQ_Handler.o
Sine_table                                        obj\.\src\Sine_table.o
                                                  obj\.\src\touch_pad.o
                                                  obj\.\src\main.o
                                                  obj\.\src\User_Button.o
                                                  obj\.\src\TFT_Display.o
                                                  obj\.\src\PSK_Det.o
                                                  obj\.\src\PSKMod.o
                                                  obj\.\src\DSP_Processing.o
                                                  obj\.\src\DMA_IRQ_Handler.o
SlidebarCentral                                   obj\.\externals\SM32F4-Discovery\STEmbeddedGUI\src\images.o
                                                  obj\.\externals\SM32F4-Discovery\STEmbeddedGUI\src\graphicObject.o
SlidebarCursor                                    obj\.\externals\SM32F4-Discovery\STEmbeddedGUI\src\images.o
                                                  obj\.\externals\SM32F4-Discovery\STEmbeddedGUI\src\graphicObject.o
SlidebarLeft                                      obj\.\externals\SM32F4-Discovery\STEmbeddedGUI\src\images.o
                                                  obj\.\externals\SM32F4-Discovery\STEmbeddedGUI\src\graphicObject.o
SlidebarRight                                     obj\.\externals\SM32F4-Discovery\STEmbeddedGUI\src\images.o
                                                  obj\.\externals\SM32F4-Discovery\STEmbeddedGUI\src\graphicObject.o
Store_Defaults                                    obj\.\src\Encoder_2.o
                                                  obj\.\src\touch_pad.o
Store_IQ_Data                                     obj\.\src\eeprom.o
                                                  obj\.\src\touch_pad.o
                                                  obj\.\src\Encoder_2.o
Store_SI570_Data                                  obj\.\src\eeprom.o
                                                  obj\.\src\touch_pad.o
                                                  obj\.\src\Encoder_2.o
                                                  obj\.\src\Encoder_1.o
SwitchNormal                                      obj\.\externals\SM32F4-Discovery\STEmbeddedGUI\src\images.o
                                                  obj\.\externals\SM32F4-Discovery\STEmbeddedGUI\src\graphicObject.o
SwitchNormalLeft                                  obj\.\externals\SM32F4-Discovery\STEmbeddedGUI\src\images.o
                                                  obj\.\externals\SM32F4-Discovery\STEmbeddedGUI\src\graphicObject.o
SwitchNormalRight                                 obj\.\externals\SM32F4-Discovery\STEmbeddedGUI\src\images.o
                                                  obj\.\externals\SM32F4-Discovery\STEmbeddedGUI\src\graphicObject.o
SwitchPressed                                     obj\.\externals\SM32F4-Discovery\STEmbeddedGUI\src\images.o
                                                  obj\.\externals\SM32F4-Discovery\STEmbeddedGUI\src\graphicObject.o
SwitchPressedLeft                                 obj\.\externals\SM32F4-Discovery\STEmbeddedGUI\src\images.o
                                                  obj\.\externals\SM32F4-Discovery\STEmbeddedGUI\src\graphicObject.o
SwitchPressedRight                                obj\.\externals\SM32F4-Discovery\STEmbeddedGUI\src\images.o
                                                  obj\.\externals\SM32F4-Discovery\STEmbeddedGUI\src\graphicObject.o
SymbSync                                          obj\.\src\PSK_Det.o
SysTick_CLKSourceConfig                           obj\.\externals\SM32F4-Discovery\USB\src\misc.o
SysTick_Handler                                   obj\.\src\stm32f4xx_it.o
                                                  obj\.\startup\startup_stm32f4xx.o
SystemCoreClock                                   obj\.\src\system_stm32f4xx.o
                                                  obj\.\externals\SM32F4-Discovery\STEmbeddedGUI\src\LcdDriver_ILI9320.o
SystemCoreClockUpdate                             obj\.\src\system_stm32f4xx.o
SystemInit                                        obj\.\src\system_stm32f4xx.o
                                                  obj\.\startup\startup_stm32f4xx.o
TAMP_STAMP_IRQHandler                             obj\.\startup\startup_stm32f4xx.o
TEST_GPIO_Init                                    obj\.\src\DMA_Test_Pins.o
                                                  obj\.\src\main.o
TIM1_BRK_TIM9_IRQHandler                          obj\.\startup\startup_stm32f4xx.o
TIM1_CC_IRQHandler                                obj\.\startup\startup_stm32f4xx.o
TIM1_TRG_COM_TIM11_IRQHandler                     obj\.\startup\startup_stm32f4xx.o
TIM1_UP_TIM10_IRQHandler                          obj\.\startup\startup_stm32f4xx.o
TIM2_IRQHandler                                   obj\.\src\stm32f4xx_it.o
                                                  obj\.\startup\startup_stm32f4xx.o
TIM3_IRQHandler                                   obj\.\startup\startup_stm32f4xx.o
TIM4_IRQHandler                                   obj\.\startup\startup_stm32f4xx.o
TIM5_IRQHandler                                   obj\.\startup\startup_stm32f4xx.o
TIM6_DAC_IRQHandler                               obj\.\startup\startup_stm32f4xx.o
TIM7_IRQHandler                                   obj\.\startup\startup_stm32f4xx.o
TIM8_BRK_TIM12_IRQHandler                         obj\.\startup\startup_stm32f4xx.o
TIM8_CC_IRQHandler                                obj\.\startup\startup_stm32f4xx.o
TIM8_TRG_COM_TIM14_IRQHandler                     obj\.\startup\startup_stm32f4xx.o
TIM8_UP_TIM13_IRQHandler                          obj\.\startup\startup_stm32f4xx.o
TIM_ARRPreloadConfig                              .\externals\libs\libstm32f4xx_peripherals.a(stm32f4xx_tim.o)
                                                  obj\.\src\usb_bsp.o
TIM_BDTRConfig                                    .\externals\libs\libstm32f4xx_peripherals.a(stm32f4xx_tim.o)
TIM_BDTRStructInit                                .\externals\libs\libstm32f4xx_peripherals.a(stm32f4xx_tim.o)
TIM_CCPreloadControl                              .\externals\libs\libstm32f4xx_peripherals.a(stm32f4xx_tim.o)
TIM_CCxCmd                                        .\externals\libs\libstm32f4xx_peripherals.a(stm32f4xx_tim.o)
TIM_CCxNCmd                                       .\externals\libs\libstm32f4xx_peripherals.a(stm32f4xx_tim.o)
TIM_ClearFlag                                     .\externals\libs\libstm32f4xx_peripherals.a(stm32f4xx_tim.o)
TIM_ClearITPendingBit                             .\externals\libs\libstm32f4xx_peripherals.a(stm32f4xx_tim.o)
                                                  obj\.\src\usb_bsp.o
TIM_ClearOC1Ref                                   .\externals\libs\libstm32f4xx_peripherals.a(stm32f4xx_tim.o)
TIM_ClearOC2Ref                                   .\externals\libs\libstm32f4xx_peripherals.a(stm32f4xx_tim.o)
TIM_ClearOC3Ref                                   .\externals\libs\libstm32f4xx_peripherals.a(stm32f4xx_tim.o)
TIM_ClearOC4Ref                                   .\externals\libs\libstm32f4xx_peripherals.a(stm32f4xx_tim.o)
TIM_Cmd                                           .\externals\libs\libstm32f4xx_peripherals.a(stm32f4xx_tim.o)
                                                  obj\.\externals\SM32F4-Discovery\STEmbeddedGUI\src\LcdDriver_ILI9320.o
                                                  obj\.\src\usb_bsp.o
TIM_CounterModeConfig                             .\externals\libs\libstm32f4xx_peripherals.a(stm32f4xx_tim.o)
TIM_CtrlPWMOutputs                                .\externals\libs\libstm32f4xx_peripherals.a(stm32f4xx_tim.o)
                                                  obj\.\externals\SM32F4-Discovery\STEmbeddedGUI\src\LcdDriver_ILI9320.o
TIM_DMACmd                                        .\externals\libs\libstm32f4xx_peripherals.a(stm32f4xx_tim.o)
TIM_DMAConfig                                     .\externals\libs\libstm32f4xx_peripherals.a(stm32f4xx_tim.o)
TIM_DeInit                                        .\externals\libs\libstm32f4xx_peripherals.a(stm32f4xx_tim.o)
TIM_ETRClockMode1Config                           .\externals\libs\libstm32f4xx_peripherals.a(stm32f4xx_tim.o)
TIM_ETRClockMode2Config                           .\externals\libs\libstm32f4xx_peripherals.a(stm32f4xx_tim.o)
TIM_ETRConfig                                     .\externals\libs\libstm32f4xx_peripherals.a(stm32f4xx_tim.o)
TIM_EncoderInterfaceConfig                        .\externals\libs\libstm32f4xx_peripherals.a(stm32f4xx_tim.o)
TIM_ForcedOC1Config                               .\externals\libs\libstm32f4xx_peripherals.a(stm32f4xx_tim.o)
TIM_ForcedOC2Config                               .\externals\libs\libstm32f4xx_peripherals.a(stm32f4xx_tim.o)
TIM_ForcedOC3Config                               .\externals\libs\libstm32f4xx_peripherals.a(stm32f4xx_tim.o)
TIM_ForcedOC4Config                               .\externals\libs\libstm32f4xx_peripherals.a(stm32f4xx_tim.o)
TIM_GenerateEvent                                 .\externals\libs\libstm32f4xx_peripherals.a(stm32f4xx_tim.o)
TIM_GetCapture1                                   .\externals\libs\libstm32f4xx_peripherals.a(stm32f4xx_tim.o)
TIM_GetCapture2                                   .\externals\libs\libstm32f4xx_peripherals.a(stm32f4xx_tim.o)
TIM_GetCapture3                                   .\externals\libs\libstm32f4xx_peripherals.a(stm32f4xx_tim.o)
TIM_GetCapture4                                   .\externals\libs\libstm32f4xx_peripherals.a(stm32f4xx_tim.o)
TIM_GetCounter                                    .\externals\libs\libstm32f4xx_peripherals.a(stm32f4xx_tim.o)
TIM_GetFlagStatus                                 .\externals\libs\libstm32f4xx_peripherals.a(stm32f4xx_tim.o)
TIM_GetITStatus                                   .\externals\libs\libstm32f4xx_peripherals.a(stm32f4xx_tim.o)
                                                  obj\.\src\usb_bsp.o
TIM_GetPrescaler                                  .\externals\libs\libstm32f4xx_peripherals.a(stm32f4xx_tim.o)
TIM_ICInit                                        .\externals\libs\libstm32f4xx_peripherals.a(stm32f4xx_tim.o)
TIM_ICStructInit                                  .\externals\libs\libstm32f4xx_peripherals.a(stm32f4xx_tim.o)
TIM_ITConfig                                      .\externals\libs\libstm32f4xx_peripherals.a(stm32f4xx_tim.o)
                                                  obj\.\src\usb_bsp.o
TIM_ITRxExternalClockConfig                       .\externals\libs\libstm32f4xx_peripherals.a(stm32f4xx_tim.o)
TIM_InternalClockConfig                           .\externals\libs\libstm32f4xx_peripherals.a(stm32f4xx_tim.o)
TIM_OC1FastConfig                                 .\externals\libs\libstm32f4xx_peripherals.a(stm32f4xx_tim.o)
TIM_OC1Init                                       .\externals\libs\libstm32f4xx_peripherals.a(stm32f4xx_tim.o)
                                                  obj\.\externals\SM32F4-Discovery\STEmbeddedGUI\src\LcdDriver_ILI9320.o
TIM_OC1NPolarityConfig                            .\externals\libs\libstm32f4xx_peripherals.a(stm32f4xx_tim.o)
TIM_OC1PolarityConfig                             .\externals\libs\libstm32f4xx_peripherals.a(stm32f4xx_tim.o)
TIM_OC1PreloadConfig                              .\externals\libs\libstm32f4xx_peripherals.a(stm32f4xx_tim.o)
TIM_OC2FastConfig                                 .\externals\libs\libstm32f4xx_peripherals.a(stm32f4xx_tim.o)
TIM_OC2Init                                       .\externals\libs\libstm32f4xx_peripherals.a(stm32f4xx_tim.o)
TIM_OC2NPolarityConfig                            .\externals\libs\libstm32f4xx_peripherals.a(stm32f4xx_tim.o)
TIM_OC2PolarityConfig                             .\externals\libs\libstm32f4xx_peripherals.a(stm32f4xx_tim.o)
TIM_OC2PreloadConfig                              .\externals\libs\libstm32f4xx_peripherals.a(stm32f4xx_tim.o)
TIM_OC3FastConfig                                 .\externals\libs\libstm32f4xx_peripherals.a(stm32f4xx_tim.o)
TIM_OC3Init                                       .\externals\libs\libstm32f4xx_peripherals.a(stm32f4xx_tim.o)
                                                  obj\.\externals\SM32F4-Discovery\STEmbeddedGUI\src\LcdDriver_ILI9320.o
TIM_OC3NPolarityConfig                            .\externals\libs\libstm32f4xx_peripherals.a(stm32f4xx_tim.o)
TIM_OC3PolarityConfig                             .\externals\libs\libstm32f4xx_peripherals.a(stm32f4xx_tim.o)
TIM_OC3PreloadConfig                              .\externals\libs\libstm32f4xx_peripherals.a(stm32f4xx_tim.o)
TIM_OC4FastConfig                                 .\externals\libs\libstm32f4xx_peripherals.a(stm32f4xx_tim.o)
TIM_OC4Init                                       .\externals\libs\libstm32f4xx_peripherals.a(stm32f4xx_tim.o)
TIM_OC4PolarityConfig                             .\externals\libs\libstm32f4xx_peripherals.a(stm32f4xx_tim.o)
TIM_OC4PreloadConfig                              .\externals\libs\libstm32f4xx_peripherals.a(stm32f4xx_tim.o)
TIM_OCStructInit                                  .\externals\libs\libstm32f4xx_peripherals.a(stm32f4xx_tim.o)
TIM_PWMIConfig                                    .\externals\libs\libstm32f4xx_peripherals.a(stm32f4xx_tim.o)
TIM_PrescalerConfig                               .\externals\libs\libstm32f4xx_peripherals.a(stm32f4xx_tim.o)
TIM_RemapConfig                                   .\externals\libs\libstm32f4xx_peripherals.a(stm32f4xx_tim.o)
TIM_SelectCCDMA                                   .\externals\libs\libstm32f4xx_peripherals.a(stm32f4xx_tim.o)
TIM_SelectCOM                                     .\externals\libs\libstm32f4xx_peripherals.a(stm32f4xx_tim.o)
TIM_SelectHallSensor                              .\externals\libs\libstm32f4xx_peripherals.a(stm32f4xx_tim.o)
TIM_SelectInputTrigger                            .\externals\libs\libstm32f4xx_peripherals.a(stm32f4xx_tim.o)
TIM_SelectMasterSlaveMode                         .\externals\libs\libstm32f4xx_peripherals.a(stm32f4xx_tim.o)
TIM_SelectOCxM                                    .\externals\libs\libstm32f4xx_peripherals.a(stm32f4xx_tim.o)
TIM_SelectOnePulseMode                            .\externals\libs\libstm32f4xx_peripherals.a(stm32f4xx_tim.o)
TIM_SelectOutputTrigger                           .\externals\libs\libstm32f4xx_peripherals.a(stm32f4xx_tim.o)
TIM_SelectSlaveMode                               .\externals\libs\libstm32f4xx_peripherals.a(stm32f4xx_tim.o)
TIM_SetAutoreload                                 .\externals\libs\libstm32f4xx_peripherals.a(stm32f4xx_tim.o)
TIM_SetClockDivision                              .\externals\libs\libstm32f4xx_peripherals.a(stm32f4xx_tim.o)
TIM_SetCompare1                                   .\externals\libs\libstm32f4xx_peripherals.a(stm32f4xx_tim.o)
TIM_SetCompare2                                   .\externals\libs\libstm32f4xx_peripherals.a(stm32f4xx_tim.o)
TIM_SetCompare3                                   .\externals\libs\libstm32f4xx_peripherals.a(stm32f4xx_tim.o)
TIM_SetCompare4                                   .\externals\libs\libstm32f4xx_peripherals.a(stm32f4xx_tim.o)
TIM_SetCounter                                    .\externals\libs\libstm32f4xx_peripherals.a(stm32f4xx_tim.o)
TIM_SetIC1Prescaler                               .\externals\libs\libstm32f4xx_peripherals.a(stm32f4xx_tim.o)
TIM_SetIC2Prescaler                               .\externals\libs\libstm32f4xx_peripherals.a(stm32f4xx_tim.o)
TIM_SetIC3Prescaler                               .\externals\libs\libstm32f4xx_peripherals.a(stm32f4xx_tim.o)
TIM_SetIC4Prescaler                               .\externals\libs\libstm32f4xx_peripherals.a(stm32f4xx_tim.o)
TIM_TIxExternalClockConfig                        .\externals\libs\libstm32f4xx_peripherals.a(stm32f4xx_tim.o)
TIM_TimeBaseInit                                  .\externals\libs\libstm32f4xx_peripherals.a(stm32f4xx_tim.o)
                                                  obj\.\externals\SM32F4-Discovery\STEmbeddedGUI\src\LcdDriver_ILI9320.o
                                                  obj\.\src\usb_bsp.o
TIM_TimeBaseStructInit                            .\externals\libs\libstm32f4xx_peripherals.a(stm32f4xx_tim.o)
TIM_UpdateDisableConfig                           .\externals\libs\libstm32f4xx_peripherals.a(stm32f4xx_tim.o)
TIM_UpdateRequestConfig                           .\externals\libs\libstm32f4xx_peripherals.a(stm32f4xx_tim.o)
TP_GetAdXY                                        obj\.\src\touch_pad.o
TSC_EXTI_Configuration                            obj\.\externals\SM32F4-Discovery\STEmbeddedGUI\src\TscHal.o
TSC_FLASH_ClearFlag                               obj\.\externals\SM32F4-Discovery\STEmbeddedGUI\src\TscHal.o
TSC_FLASH_ErasePage                               obj\.\externals\SM32F4-Discovery\STEmbeddedGUI\src\TscHal.o
TSC_FLASH_ProgramWord                             obj\.\externals\SM32F4-Discovery\STEmbeddedGUI\src\TscHal.o
TSC_FLASH_Unlock                                  obj\.\externals\SM32F4-Discovery\STEmbeddedGUI\src\TscHal.o
TSC_FlashStatus                                   obj\.\externals\SM32F4-Discovery\STEmbeddedGUI\src\touchscreen.o
TSC_Init                                          obj\.\externals\SM32F4-Discovery\STEmbeddedGUI\src\TscHal.o
                                                  obj\.\externals\SM32F4-Discovery\STEmbeddedGUI\src\touchscreen.o
TSC_InterruptConfig                               obj\.\externals\SM32F4-Discovery\STEmbeddedGUI\src\TscHal.o
TSC_MemoryProgramStatus                           obj\.\externals\SM32F4-Discovery\STEmbeddedGUI\src\touchscreen.o
TSC_NVIC_Configuration                            obj\.\externals\SM32F4-Discovery\STEmbeddedGUI\src\TscHal.o
TSC_Read                                          obj\.\externals\SM32F4-Discovery\STEmbeddedGUI\src\TscHal.o
                                                  obj\.\externals\SM32F4-Discovery\STEmbeddedGUI\src\touchscreen.o
TSC_Value_X                                       obj\.\externals\SM32F4-Discovery\STEmbeddedGUI\src\touchscreen.o
TSC_Value_Y                                       obj\.\externals\SM32F4-Discovery\STEmbeddedGUI\src\touchscreen.o
TSC_WriteDataToNVM                                obj\.\externals\SM32F4-Discovery\STEmbeddedGUI\src\TscHal.o
                                                  obj\.\externals\SM32F4-Discovery\STEmbeddedGUI\src\touchscreen.o
TS_Calibration                                    obj\.\externals\SM32F4-Discovery\STEmbeddedGUI\src\touchscreen.o
TS_CheckCalibration                               obj\.\externals\SM32F4-Discovery\STEmbeddedGUI\src\touchscreen.o
TS_IsCalibrationDone                              obj\.\externals\SM32F4-Discovery\STEmbeddedGUI\src\touchscreen.o
T_lgain                                           obj\.\src\touch_pad.o
                                                  obj\.\src\main.o
                                                  obj\.\src\Encoder_2.o
                                                  obj\.\src\DMA_IRQ_Handler.o
                                                  obj\.\src\ChangeOver.o
T_xgain                                           obj\.\src\touch_pad.o
                                                  obj\.\src\main.o
                                                  obj\.\src\Encoder_2.o
                                                  obj\.\src\DMA_IRQ_Handler.o
                                                  obj\.\src\ChangeOver.o
Tab_State_Machine                                 obj\.\externals\SM32F4-Discovery\USB\src\usbh_core.o
Tab_State_Machine_incr                            obj\.\externals\SM32F4-Discovery\USB\src\usbh_core.o
TimeOutCalculate                                  obj\.\externals\SM32F4-Discovery\STEmbeddedGUI\src\graphicObject.o
                                                  obj\.\externals\SM32F4-Discovery\STEmbeddedGUI\src\main_GUI.o
Timeout                                           obj\.\src\Init_I2C.o
TimingDelay_Decrement                             obj\.\externals\SM32F4-Discovery\STEmbeddedGUI\src\graphicObject.o
TouchCount                                        obj\.\src\touch_pad.o
TouchFlag                                         obj\.\src\touch_pad.o
                                                  obj\.\src\main.o
                                                  obj\.\src\User_Button.o
                                                  obj\.\src\TFT_Display.o
TouchPanel_Calibrate                              obj\.\src\touch_pad.o
Turn_Off_Bias                                     obj\.\src\Codec_Gains.o
                                                  obj\.\src\Encoder_2.o
Turn_On_Bias                                      obj\.\src\Codec_Gains.o
                                                  obj\.\src\Encoder_2.o
Tx0BufferDMA                                      obj\.\src\main.o
                                                  obj\.\src\PSK_Det.o
                                                  obj\.\src\Init_DMA.o
                                                  obj\.\src\DSP_Processing.o
                                                  obj\.\src\DMA_IRQ_Handler.o
Tx1BufferDMA                                      obj\.\src\main.o
                                                  obj\.\src\PSK_Det.o
                                                  obj\.\src\Init_DMA.o
                                                  obj\.\src\DSP_Processing.o
                                                  obj\.\src\DMA_IRQ_Handler.o
Tx_Flag                                           obj\.\src\touch_pad.o
                                                  obj\.\src\main.o
                                                  obj\.\src\Encoder_2.o
                                                  obj\.\src\DMA_IRQ_Handler.o
                                                  obj\.\src\ChangeOver.o
UART4_IRQHandler                                  obj\.\startup\startup_stm32f4xx.o
UART5_IRQHandler                                  obj\.\startup\startup_stm32f4xx.o
USART1_IRQHandler                                 obj\.\startup\startup_stm32f4xx.o
USART2_IRQHandler                                 obj\.\src\uart.o
                                                  obj\.\startup\startup_stm32f4xx.o
USART3_IRQHandler                                 obj\.\startup\startup_stm32f4xx.o
USART6_IRQHandler                                 obj\.\startup\startup_stm32f4xx.o
USART_ClearFlag                                   .\externals\libs\libstm32f4xx_peripherals.a(stm32f4xx_usart.o)
USART_ClearITPendingBit                           .\externals\libs\libstm32f4xx_peripherals.a(stm32f4xx_usart.o)
USART_ClockInit                                   .\externals\libs\libstm32f4xx_peripherals.a(stm32f4xx_usart.o)
USART_ClockStructInit                             .\externals\libs\libstm32f4xx_peripherals.a(stm32f4xx_usart.o)
USART_Cmd                                         .\externals\libs\libstm32f4xx_peripherals.a(stm32f4xx_usart.o)
                                                  obj\.\src\uart.o
USART_DMACmd                                      .\externals\libs\libstm32f4xx_peripherals.a(stm32f4xx_usart.o)
USART_DeInit                                      .\externals\libs\libstm32f4xx_peripherals.a(stm32f4xx_usart.o)
USART_GetFlagStatus                               .\externals\libs\libstm32f4xx_peripherals.a(stm32f4xx_usart.o)
                                                  obj\.\src\uart.o
USART_GetITStatus                                 .\externals\libs\libstm32f4xx_peripherals.a(stm32f4xx_usart.o)
                                                  obj\.\src\uart.o
USART_HalfDuplexCmd                               .\externals\libs\libstm32f4xx_peripherals.a(stm32f4xx_usart.o)
USART_ITConfig                                    .\externals\libs\libstm32f4xx_peripherals.a(stm32f4xx_usart.o)
                                                  obj\.\src\uart.o
USART_Init                                        .\externals\libs\libstm32f4xx_peripherals.a(stm32f4xx_usart.o)
                                                  obj\.\src\uart.o
USART_IrDACmd                                     .\externals\libs\libstm32f4xx_peripherals.a(stm32f4xx_usart.o)
USART_IrDAConfig                                  .\externals\libs\libstm32f4xx_peripherals.a(stm32f4xx_usart.o)
USART_LINBreakDetectLengthConfig                  .\externals\libs\libstm32f4xx_peripherals.a(stm32f4xx_usart.o)
USART_LINCmd                                      .\externals\libs\libstm32f4xx_peripherals.a(stm32f4xx_usart.o)
USART_OneBitMethodCmd                             .\externals\libs\libstm32f4xx_peripherals.a(stm32f4xx_usart.o)
USART_OverSampling8Cmd                            .\externals\libs\libstm32f4xx_peripherals.a(stm32f4xx_usart.o)
USART_ReceiveData                                 .\externals\libs\libstm32f4xx_peripherals.a(stm32f4xx_usart.o)
USART_ReceiverWakeUpCmd                           .\externals\libs\libstm32f4xx_peripherals.a(stm32f4xx_usart.o)
USART_SendBreak                                   .\externals\libs\libstm32f4xx_peripherals.a(stm32f4xx_usart.o)
USART_SendData                                    .\externals\libs\libstm32f4xx_peripherals.a(stm32f4xx_usart.o)
                                                  obj\.\src\uart.o
USART_SetAddress                                  .\externals\libs\libstm32f4xx_peripherals.a(stm32f4xx_usart.o)
USART_SetGuardTime                                .\externals\libs\libstm32f4xx_peripherals.a(stm32f4xx_usart.o)
USART_SetPrescaler                                .\externals\libs\libstm32f4xx_peripherals.a(stm32f4xx_usart.o)
USART_SmartCardCmd                                .\externals\libs\libstm32f4xx_peripherals.a(stm32f4xx_usart.o)
USART_SmartCardNACKCmd                            .\externals\libs\libstm32f4xx_peripherals.a(stm32f4xx_usart.o)
USART_StructInit                                  .\externals\libs\libstm32f4xx_peripherals.a(stm32f4xx_usart.o)
USART_WakeUpConfig                                .\externals\libs\libstm32f4xx_peripherals.a(stm32f4xx_usart.o)
USBH_Alloc_Channel                                obj\.\externals\SM32F4-Discovery\USB\src\usbh_hcs.o
                                                  obj\.\externals\SM32F4-Discovery\USB\src\usbh_hid_core.o
                                                  obj\.\externals\SM32F4-Discovery\USB\src\usbh_core.o
USBH_BulkReceiveData                              obj\.\externals\SM32F4-Discovery\USB\src\usbh_ioreq.o
USBH_BulkSendData                                 obj\.\externals\SM32F4-Discovery\USB\src\usbh_ioreq.o
USBH_CfgDesc                                      obj\.\externals\SM32F4-Discovery\USB\src\usbh_stdreq.o
USBH_ClrFeature                                   obj\.\externals\SM32F4-Discovery\USB\src\usbh_stdreq.o
                                                  obj\.\externals\SM32F4-Discovery\USB\src\usbh_hid_core.o
USBH_Connected                                    obj\.\externals\SM32F4-Discovery\USB\src\usbh_core.o
USBH_CtlReceiveData                               obj\.\externals\SM32F4-Discovery\USB\src\usbh_ioreq.o
                                                  obj\.\externals\SM32F4-Discovery\USB\src\usbh_core.o
USBH_CtlReq                                       obj\.\externals\SM32F4-Discovery\USB\src\usbh_ioreq.o
                                                  obj\.\externals\SM32F4-Discovery\USB\src\usbh_stdreq.o
                                                  obj\.\externals\SM32F4-Discovery\USB\src\usbh_hid_core.o
USBH_CtlSendData                                  obj\.\externals\SM32F4-Discovery\USB\src\usbh_ioreq.o
                                                  obj\.\externals\SM32F4-Discovery\USB\src\usbh_core.o
USBH_CtlSendSetup                                 obj\.\externals\SM32F4-Discovery\USB\src\usbh_ioreq.o
                                                  obj\.\externals\SM32F4-Discovery\USB\src\usbh_core.o
USBH_DeAllocate_AllChannel                        obj\.\externals\SM32F4-Discovery\USB\src\usbh_hcs.o
                                                  obj\.\externals\SM32F4-Discovery\USB\src\usbh_core.o
USBH_DeInit                                       obj\.\externals\SM32F4-Discovery\USB\src\usbh_core.o
USBH_Disconnected                                 obj\.\externals\SM32F4-Discovery\USB\src\usbh_core.o
USBH_ErrorHandle                                  obj\.\externals\SM32F4-Discovery\USB\src\usbh_core.o
USBH_Free_Channel                                 obj\.\externals\SM32F4-Discovery\USB\src\usbh_hcs.o
                                                  obj\.\externals\SM32F4-Discovery\USB\src\usbh_hid_core.o
                                                  obj\.\externals\SM32F4-Discovery\USB\src\usbh_core.o
USBH_GetDescriptor                                obj\.\externals\SM32F4-Discovery\USB\src\usbh_stdreq.o
                                                  obj\.\externals\SM32F4-Discovery\USB\src\usbh_hid_core.o
USBH_GetNextDesc                                  obj\.\externals\SM32F4-Discovery\USB\src\usbh_stdreq.o
USBH_Get_CfgDesc                                  obj\.\externals\SM32F4-Discovery\USB\src\usbh_stdreq.o
                                                  obj\.\externals\SM32F4-Discovery\USB\src\usbh_core.o
USBH_Get_DevDesc                                  obj\.\externals\SM32F4-Discovery\USB\src\usbh_stdreq.o
                                                  obj\.\externals\SM32F4-Discovery\USB\src\usbh_core.o
USBH_Get_StringDesc                               obj\.\externals\SM32F4-Discovery\USB\src\usbh_stdreq.o
                                                  obj\.\externals\SM32F4-Discovery\USB\src\usbh_core.o
USBH_HCD_INT_cb                                   obj\.\externals\SM32F4-Discovery\USB\src\usbh_core.o
USBH_HCD_INT_fops                                 obj\.\externals\SM32F4-Discovery\USB\src\usbh_core.o
                                                  obj\.\externals\SM32F4-Discovery\USB\src\usb_hcd_int.o
USBH_HandleControl                                obj\.\externals\SM32F4-Discovery\USB\src\usbh_core.o
USBH_Init                                         obj\.\externals\SM32F4-Discovery\USB\src\usbh_core.o
                                                  obj\.\src\main.o
USBH_InterruptReceiveData                         obj\.\externals\SM32F4-Discovery\USB\src\usbh_ioreq.o
                                                  obj\.\externals\SM32F4-Discovery\USB\src\usbh_hid_core.o
USBH_InterruptSendData                            obj\.\externals\SM32F4-Discovery\USB\src\usbh_ioreq.o
USBH_IsocReceiveData                              obj\.\externals\SM32F4-Discovery\USB\src\usbh_ioreq.o
USBH_IsocSendData                                 obj\.\externals\SM32F4-Discovery\USB\src\usbh_ioreq.o
USBH_Modify_Channel                               obj\.\externals\SM32F4-Discovery\USB\src\usbh_hcs.o
                                                  obj\.\externals\SM32F4-Discovery\USB\src\usbh_core.o
USBH_OTG_ISR_Handler                              obj\.\externals\SM32F4-Discovery\USB\src\usb_hcd_int.o
                                                  obj\.\src\stm32f4xx_it.o
USBH_Open_Channel                                 obj\.\externals\SM32F4-Discovery\USB\src\usbh_hcs.o
                                                  obj\.\externals\SM32F4-Discovery\USB\src\usbh_hid_core.o
                                                  obj\.\externals\SM32F4-Discovery\USB\src\usbh_core.o
USBH_Process                                      obj\.\externals\SM32F4-Discovery\USB\src\usbh_core.o
USBH_SOF                                          obj\.\externals\SM32F4-Discovery\USB\src\usbh_core.o
USBH_SetAddress                                   obj\.\externals\SM32F4-Discovery\USB\src\usbh_stdreq.o
                                                  obj\.\externals\SM32F4-Discovery\USB\src\usbh_core.o
USBH_SetCfg                                       obj\.\externals\SM32F4-Discovery\USB\src\usbh_stdreq.o
                                                  obj\.\externals\SM32F4-Discovery\USB\src\usbh_core.o
USBH_SetInterface                                 obj\.\externals\SM32F4-Discovery\USB\src\usbh_stdreq.o
USBH_Set_Report                                   obj\.\externals\SM32F4-Discovery\USB\src\usbh_hid_core.o
USBH_USR_Configuration_DescAvailable              obj\.\src\usbh_usr.o
USBH_USR_DeInit                                   obj\.\src\usbh_usr.o
USBH_USR_DeviceAddressAssigned                    obj\.\src\usbh_usr.o
USBH_USR_DeviceAttached                           obj\.\src\usbh_usr.o
USBH_USR_DeviceDisconnected                       obj\.\src\usbh_usr.o
USBH_USR_DeviceNotSupported                       obj\.\src\usbh_usr.o
USBH_USR_DeviceSpeedDetected                      obj\.\src\usbh_usr.o
USBH_USR_Device_DescAvailable                     obj\.\src\usbh_usr.o
USBH_USR_EnumerationDone                          obj\.\src\usbh_usr.o
USBH_USR_Init                                     obj\.\src\usbh_usr.o
USBH_USR_Manufacturer_String                      obj\.\src\usbh_usr.o
USBH_USR_OverCurrentDetected                      obj\.\src\usbh_usr.o
USBH_USR_Product_String                           obj\.\src\usbh_usr.o
USBH_USR_ResetDevice                              obj\.\src\usbh_usr.o
USBH_USR_SerialNum_String                         obj\.\src\usbh_usr.o
USBH_USR_UnrecoveredError                         obj\.\src\usbh_usr.o
USBH_USR_UserInput                                obj\.\src\usbh_usr.o
USB_Host                                          obj\.\src\stm32f4xx_it.o
                                                  obj\.\src\main.o
USB_OTG_BSP_ConfigVBUS                            obj\.\src\usb_bsp.o
                                                  obj\.\externals\SM32F4-Discovery\USB\src\usbh_core.o
                                                  obj\.\externals\SM32F4-Discovery\USB\src\usb_core.o
USB_OTG_BSP_DriveVBUS                             obj\.\src\usb_bsp.o
                                                  obj\.\externals\SM32F4-Discovery\USB\src\usb_core.o
USB_OTG_BSP_EnableInterrupt                       obj\.\src\usb_bsp.o
                                                  obj\.\externals\SM32F4-Discovery\USB\src\usbh_core.o
USB_OTG_BSP_Init                                  obj\.\src\usb_bsp.o
                                                  obj\.\externals\SM32F4-Discovery\USB\src\usbh_core.o
USB_OTG_BSP_TimerIRQ                              obj\.\src\usb_bsp.o
                                                  obj\.\src\stm32f4xx_it.o
USB_OTG_BSP_mDelay                                obj\.\src\usb_bsp.o
                                                  obj\.\externals\SM32F4-Discovery\USB\src\usbh_core.o
                                                  obj\.\externals\SM32F4-Discovery\USB\src\usb_core.o
USB_OTG_BSP_uDelay                                obj\.\src\usb_bsp.o
                                                  obj\.\externals\SM32F4-Discovery\USB\src\usb_core.o
USB_OTG_CoreInit                                  obj\.\externals\SM32F4-Discovery\USB\src\usb_core.o
                                                  obj\.\externals\SM32F4-Discovery\USB\src\usb_hcd.o
USB_OTG_CoreInitHost                              obj\.\externals\SM32F4-Discovery\USB\src\usb_core.o
                                                  obj\.\externals\SM32F4-Discovery\USB\src\usb_hcd.o
USB_OTG_Core_dev                                  obj\.\src\stm32f4xx_it.o
                                                  obj\.\src\main.o
USB_OTG_DisableGlobalInt                          obj\.\externals\SM32F4-Discovery\USB\src\usb_core.o
                                                  obj\.\externals\SM32F4-Discovery\USB\src\usb_hcd.o
USB_OTG_DriveVbus                                 obj\.\externals\SM32F4-Discovery\USB\src\usb_core.o
USB_OTG_EnableGlobalInt                           obj\.\externals\SM32F4-Discovery\USB\src\usb_core.o
                                                  obj\.\externals\SM32F4-Discovery\USB\src\usb_hcd.o
USB_OTG_EnableHostInt                             obj\.\externals\SM32F4-Discovery\USB\src\usb_core.o
USB_OTG_FlushRxFifo                               obj\.\externals\SM32F4-Discovery\USB\src\usb_core.o
USB_OTG_FlushTxFifo                               obj\.\externals\SM32F4-Discovery\USB\src\usb_core.o
USB_OTG_GetMode                                   obj\.\externals\SM32F4-Discovery\USB\src\usb_core.o
USB_OTG_HC_DoPing                                 obj\.\externals\SM32F4-Discovery\USB\src\usb_core.o
                                                  obj\.\externals\SM32F4-Discovery\USB\src\usb_hcd_int.o
USB_OTG_HC_Halt                                   obj\.\externals\SM32F4-Discovery\USB\src\usb_core.o
                                                  obj\.\externals\SM32F4-Discovery\USB\src\usbh_hid_core.o
                                                  obj\.\externals\SM32F4-Discovery\USB\src\usb_hcd_int.o
USB_OTG_HC_Init                                   obj\.\externals\SM32F4-Discovery\USB\src\usb_core.o
                                                  obj\.\externals\SM32F4-Discovery\USB\src\usbh_hcs.o
                                                  obj\.\externals\SM32F4-Discovery\USB\src\usb_hcd.o
USB_OTG_HC_StartXfer                              obj\.\externals\SM32F4-Discovery\USB\src\usb_core.o
                                                  obj\.\externals\SM32F4-Discovery\USB\src\usb_hcd.o
USB_OTG_InitFSLSPClkSel                           obj\.\externals\SM32F4-Discovery\USB\src\usb_core.o
                                                  obj\.\externals\SM32F4-Discovery\USB\src\usb_hcd_int.o
USB_OTG_IsDeviceMode                              obj\.\externals\SM32F4-Discovery\USB\src\usb_core.o
USB_OTG_IsEvenFrame                               obj\.\externals\SM32F4-Discovery\USB\src\usb_core.o
                                                  obj\.\externals\SM32F4-Discovery\USB\src\usbh_hid_core.o
USB_OTG_IsHostMode                                obj\.\externals\SM32F4-Discovery\USB\src\usb_core.o
                                                  obj\.\externals\SM32F4-Discovery\USB\src\usb_hcd_int.o
USB_OTG_ReadCoreItr                               obj\.\externals\SM32F4-Discovery\USB\src\usb_core.o
                                                  obj\.\externals\SM32F4-Discovery\USB\src\usb_hcd_int.o
USB_OTG_ReadHPRT0                                 obj\.\externals\SM32F4-Discovery\USB\src\usb_core.o
USB_OTG_ReadHostAllChannels_intr                  obj\.\externals\SM32F4-Discovery\USB\src\usb_core.o
                                                  obj\.\externals\SM32F4-Discovery\USB\src\usb_hcd_int.o
USB_OTG_ReadOtgItr                                obj\.\externals\SM32F4-Discovery\USB\src\usb_core.o
USB_OTG_ReadPacket                                obj\.\externals\SM32F4-Discovery\USB\src\usb_core.o
                                                  obj\.\externals\SM32F4-Discovery\USB\src\usb_hcd_int.o
USB_OTG_ResetPort                                 obj\.\externals\SM32F4-Discovery\USB\src\usb_core.o
                                                  obj\.\externals\SM32F4-Discovery\USB\src\usb_hcd_int.o
                                                  obj\.\externals\SM32F4-Discovery\USB\src\usb_hcd.o
USB_OTG_SelectCore                                obj\.\externals\SM32F4-Discovery\USB\src\usb_core.o
                                                  obj\.\externals\SM32F4-Discovery\USB\src\usb_hcd.o
USB_OTG_SetCurrentMode                            obj\.\externals\SM32F4-Discovery\USB\src\usb_core.o
                                                  obj\.\externals\SM32F4-Discovery\USB\src\usb_hcd.o
USB_OTG_StopHost                                  obj\.\externals\SM32F4-Discovery\USB\src\usb_core.o
USB_OTG_WritePacket                               obj\.\externals\SM32F4-Discovery\USB\src\usb_core.o
                                                  obj\.\externals\SM32F4-Discovery\USB\src\usb_hcd_int.o
USB_Out                                           obj\.\src\main.o
                                                  obj\.\src\PSK_Det.o
                                                  obj\.\src\DSP_Processing.o
                                                  obj\.\src\DMA_IRQ_Handler.o
USB_debugEvent                                    obj\.\src\usbh_usr.o
USR_Callbacks                                     obj\.\src\usbh_usr.o
                                                  obj\.\src\main.o
USR_KEYBRD_Init                                   obj\.\src\usbh_usr.o
                                                  obj\.\externals\SM32F4-Discovery\USB\src\usbh_hid_keybd.o
USR_KEYBRD_ProcessData                            obj\.\src\usbh_usr.o
                                                  obj\.\externals\SM32F4-Discovery\USB\src\usbh_hid_keybd.o
Unpack_Si570_registers                            obj\.\src\Si570.o
Update_PSK                                        obj\.\src\PSKMod.o
                                                  obj\.\src\DMA_IRQ_Handler.o
UsageFault_Handler                                obj\.\src\stm32f4xx_it.o
                                                  obj\.\startup\startup_stm32f4xx.o
User_Button_Config                                obj\.\src\User_Button.o
                                                  obj\.\src\main.o
VARICODE_TABLE                                    obj\.\src\PSK_Det.o
                                                  obj\.\src\PSKMod.o
ValidTouchDetected                                obj\.\externals\SM32F4-Discovery\STEmbeddedGUI\src\graphicObject.o
Vector_Table                                      obj\.\startup\startup_stm32f4xx.o
WWDG_IRQHandler                                   obj\.\startup\startup_stm32f4xx.o
Write_Int_EEProm                                  obj\.\src\eeprom.o
                                                  obj\.\src\Encoder_2.o
Write_Long_EEProm                                 obj\.\src\eeprom.o
                                                  obj\.\src\Encoder_1.o
Write_Si570_registers                             obj\.\src\Si570.o
X_Point                                           obj\.\src\touch_pad.o
                                                  obj\.\src\main.o
                                                  obj\.\src\User_Button.o
                                                  obj\.\src\TFT_Display.o
XmitBuffer                                        obj\.\src\PSKMod.o
Xmit_CW                                           obj\.\src\DMA_IRQ_Handler.o
Xmit_CW_Sequence                                  obj\.\src\ChangeOver.o
                                                  obj\.\src\touch_pad.o
Xmit_PSK                                          obj\.\src\DMA_IRQ_Handler.o
Xmit_PSK_Sequence                                 obj\.\src\ChangeOver.o
                                                  obj\.\src\touch_pad.o
Xmit_SSB                                          obj\.\src\DMA_IRQ_Handler.o
Xmit_SSB_Sequence                                 obj\.\src\ChangeOver.o
                                                  obj\.\src\touch_pad.o
Y_Point                                           obj\.\src\touch_pad.o
                                                  obj\.\src\main.o
                                                  obj\.\src\User_Button.o
                                                  obj\.\src\TFT_Display.o
_Balloc                                           d:/program files (x86)/gnu tools arm embedded/4.6 2012q4/bin/../lib/gcc/arm-none-eabi/4.6.2/../../../../arm-none-eabi/lib/armv7e-m/fpu\libc.a(lib_a-mprec.o)
                                                  d:/program files (x86)/gnu tools arm embedded/4.6 2012q4/bin/../lib/gcc/arm-none-eabi/4.6.2/../../../../arm-none-eabi/lib/armv7e-m/fpu\libc.a(lib_a-dtoa.o)
_Bfree                                            d:/program files (x86)/gnu tools arm embedded/4.6 2012q4/bin/../lib/gcc/arm-none-eabi/4.6.2/../../../../arm-none-eabi/lib/armv7e-m/fpu\libc.a(lib_a-mprec.o)
                                                  d:/program files (x86)/gnu tools arm embedded/4.6 2012q4/bin/../lib/gcc/arm-none-eabi/4.6.2/../../../../arm-none-eabi/lib/armv7e-m/fpu\libc.a(lib_a-dtoa.o)
_PathLocale                                       d:/program files (x86)/gnu tools arm embedded/4.6 2012q4/bin/../lib/gcc/arm-none-eabi/4.6.2/../../../../arm-none-eabi/lib/armv7e-m/fpu\libc.a(lib_a-locale.o)
__HEAP_START                                      obj\.\externals\SM32F4-Discovery\STEmbeddedGUI\src\uiappuser.o
__adddf3                                          d:/program files (x86)/gnu tools arm embedded/4.6 2012q4/bin/../lib/gcc/arm-none-eabi/4.6.2/armv7e-m/fpu\libgcc.a(_arm_addsubdf3.o)
__aeabi_cdcmpeq                                   d:/program files (x86)/gnu tools arm embedded/4.6 2012q4/bin/../lib/gcc/arm-none-eabi/4.6.2/armv7e-m/fpu\libgcc.a(_arm_cmpdf2.o)
__aeabi_cdcmple                                   d:/program files (x86)/gnu tools arm embedded/4.6 2012q4/bin/../lib/gcc/arm-none-eabi/4.6.2/armv7e-m/fpu\libgcc.a(_arm_cmpdf2.o)
__aeabi_cdrcmple                                  d:/program files (x86)/gnu tools arm embedded/4.6 2012q4/bin/../lib/gcc/arm-none-eabi/4.6.2/armv7e-m/fpu\libgcc.a(_arm_cmpdf2.o)
__aeabi_d2f                                       d:/program files (x86)/gnu tools arm embedded/4.6 2012q4/bin/../lib/gcc/arm-none-eabi/4.6.2/armv7e-m/fpu\libgcc.a(_arm_truncdfsf2.o)
                                                  obj\.\src\TFT_Display.o
__aeabi_d2iz                                      d:/program files (x86)/gnu tools arm embedded/4.6 2012q4/bin/../lib/gcc/arm-none-eabi/4.6.2/armv7e-m/fpu\libgcc.a(_arm_fixdfsi.o)
                                                  d:/program files (x86)/gnu tools arm embedded/4.6 2012q4/bin/../lib/gcc/arm-none-eabi/4.6.2/../../../../arm-none-eabi/lib/armv7e-m/fpu\libc.a(lib_a-dtoa.o)
                                                  obj\.\externals\SM32F4-Discovery\STEmbeddedGUI\src\touchscreen.o
                                                  obj\.\src\touch_pad.o
                                                  obj\.\src\Si570.o
                                                  obj\.\src\PSK_Det.o
                                                  obj\.\src\DMA_IRQ_Handler.o
__aeabi_d2uiz                                     d:/program files (x86)/gnu tools arm embedded/4.6 2012q4/bin/../lib/gcc/arm-none-eabi/4.6.2/armv7e-m/fpu\libgcc.a(_arm_fixunsdfsi.o)
                                                  obj\.\externals\SM32F4-Discovery\STEmbeddedGUI\src\graphicObject.o
                                                  obj\.\src\Si570.o
                                                  obj\.\src\Encoder_1.o
__aeabi_dadd                                      d:/program files (x86)/gnu tools arm embedded/4.6 2012q4/bin/../lib/gcc/arm-none-eabi/4.6.2/armv7e-m/fpu\libgcc.a(_arm_addsubdf3.o)
                                                  d:/program files (x86)/gnu tools arm embedded/4.6 2012q4/bin/../lib/gcc/arm-none-eabi/4.6.2/../../../../arm-none-eabi/lib/armv7e-m/fpu\libc.a(lib_a-dtoa.o)
                                                  d:/program files (x86)/gnu tools arm embedded/4.6 2012q4/bin/../lib/gcc/arm-none-eabi/4.6.2/../../../../arm-none-eabi/lib/armv7e-m/fpu\libm.a(lib_a-s_atan.o)
                                                  d:/program files (x86)/gnu tools arm embedded/4.6 2012q4/bin/../lib/gcc/arm-none-eabi/4.6.2/../../../../arm-none-eabi/lib/armv7e-m/fpu\libm.a(lib_a-e_sqrt.o)
                                                  d:/program files (x86)/gnu tools arm embedded/4.6 2012q4/bin/../lib/gcc/arm-none-eabi/4.6.2/../../../../arm-none-eabi/lib/armv7e-m/fpu\libm.a(lib_a-e_atan2.o)
                                                  obj\.\externals\SM32F4-Discovery\STEmbeddedGUI\src\touchscreen.o
                                                  obj\.\externals\SM32F4-Discovery\STEmbeddedGUI\src\graphicObject.o
                                                  obj\.\src\Si570.o
                                                  obj\.\src\PSK_Det.o
__aeabi_dcmpeq                                    d:/program files (x86)/gnu tools arm embedded/4.6 2012q4/bin/../lib/gcc/arm-none-eabi/4.6.2/armv7e-m/fpu\libgcc.a(_arm_cmpdf2.o)
                                                  d:/program files (x86)/gnu tools arm embedded/4.6 2012q4/bin/../lib/gcc/arm-none-eabi/4.6.2/../../../../arm-none-eabi/lib/armv7e-m/fpu\libc.a(lib_a-dtoa.o)
                                                  d:/program files (x86)/gnu tools arm embedded/4.6 2012q4/bin/../lib/gcc/arm-none-eabi/4.6.2/../../../../arm-none-eabi/lib/armv7e-m/fpu\libc.a(lib_a-svfprintf.o)
                                                  d:/program files (x86)/gnu tools arm embedded/4.6 2012q4/bin/../lib/gcc/arm-none-eabi/4.6.2/../../../../arm-none-eabi/lib/armv7e-m/fpu\libm.a(lib_a-w_fmod.o)
                                                  obj\.\src\Si570.o
                                                  obj\.\src\Encoder_1.o
__aeabi_dcmpge                                    d:/program files (x86)/gnu tools arm embedded/4.6 2012q4/bin/../lib/gcc/arm-none-eabi/4.6.2/armv7e-m/fpu\libgcc.a(_arm_cmpdf2.o)
                                                  d:/program files (x86)/gnu tools arm embedded/4.6 2012q4/bin/../lib/gcc/arm-none-eabi/4.6.2/../../../../arm-none-eabi/lib/armv7e-m/fpu\libc.a(lib_a-dtoa.o)
                                                  obj\.\src\PSK_Det.o
__aeabi_dcmpgt                                    d:/program files (x86)/gnu tools arm embedded/4.6 2012q4/bin/../lib/gcc/arm-none-eabi/4.6.2/armv7e-m/fpu\libgcc.a(_arm_cmpdf2.o)
                                                  d:/program files (x86)/gnu tools arm embedded/4.6 2012q4/bin/../lib/gcc/arm-none-eabi/4.6.2/../../../../arm-none-eabi/lib/armv7e-m/fpu\libc.a(lib_a-dtoa.o)
                                                  d:/program files (x86)/gnu tools arm embedded/4.6 2012q4/bin/../lib/gcc/arm-none-eabi/4.6.2/../../../../arm-none-eabi/lib/armv7e-m/fpu\libm.a(lib_a-s_atan.o)
                                                  obj\.\externals\SM32F4-Discovery\STEmbeddedGUI\src\graphicObject.o
                                                  obj\.\src\PSK_Det.o
__aeabi_dcmple                                    d:/program files (x86)/gnu tools arm embedded/4.6 2012q4/bin/../lib/gcc/arm-none-eabi/4.6.2/armv7e-m/fpu\libgcc.a(_arm_cmpdf2.o)
                                                  obj\.\src\Si570.o
                                                  obj\.\src\PSK_Det.o
__aeabi_dcmplt                                    d:/program files (x86)/gnu tools arm embedded/4.6 2012q4/bin/../lib/gcc/arm-none-eabi/4.6.2/armv7e-m/fpu\libgcc.a(_arm_cmpdf2.o)
                                                  d:/program files (x86)/gnu tools arm embedded/4.6 2012q4/bin/../lib/gcc/arm-none-eabi/4.6.2/../../../../arm-none-eabi/lib/armv7e-m/fpu\libc.a(lib_a-dtoa.o)
                                                  d:/program files (x86)/gnu tools arm embedded/4.6 2012q4/bin/../lib/gcc/arm-none-eabi/4.6.2/../../../../arm-none-eabi/lib/armv7e-m/fpu\libc.a(lib_a-svfprintf.o)
                                                  d:/program files (x86)/gnu tools arm embedded/4.6 2012q4/bin/../lib/gcc/arm-none-eabi/4.6.2/../../../../arm-none-eabi/lib/armv7e-m/fpu\libm.a(lib_a-w_sqrt.o)
                                                  obj\.\externals\SM32F4-Discovery\STEmbeddedGUI\src\graphicObject.o
                                                  obj\.\src\Si570.o
                                                  obj\.\src\PSK_Det.o
__aeabi_ddiv                                      d:/program files (x86)/gnu tools arm embedded/4.6 2012q4/bin/../lib/gcc/arm-none-eabi/4.6.2/armv7e-m/fpu\libgcc.a(_arm_muldivdf3.o)
                                                  d:/program files (x86)/gnu tools arm embedded/4.6 2012q4/bin/../lib/gcc/arm-none-eabi/4.6.2/../../../../arm-none-eabi/lib/armv7e-m/fpu\libc.a(lib_a-mprec.o)
                                                  d:/program files (x86)/gnu tools arm embedded/4.6 2012q4/bin/../lib/gcc/arm-none-eabi/4.6.2/../../../../arm-none-eabi/lib/armv7e-m/fpu\libc.a(lib_a-dtoa.o)
                                                  d:/program files (x86)/gnu tools arm embedded/4.6 2012q4/bin/../lib/gcc/arm-none-eabi/4.6.2/../../../../arm-none-eabi/lib/armv7e-m/fpu\libm.a(lib_a-s_atan.o)
                                                  d:/program files (x86)/gnu tools arm embedded/4.6 2012q4/bin/../lib/gcc/arm-none-eabi/4.6.2/../../../../arm-none-eabi/lib/armv7e-m/fpu\libm.a(lib_a-e_sqrt.o)
                                                  d:/program files (x86)/gnu tools arm embedded/4.6 2012q4/bin/../lib/gcc/arm-none-eabi/4.6.2/../../../../arm-none-eabi/lib/armv7e-m/fpu\libm.a(lib_a-e_fmod.o)
                                                  d:/program files (x86)/gnu tools arm embedded/4.6 2012q4/bin/../lib/gcc/arm-none-eabi/4.6.2/../../../../arm-none-eabi/lib/armv7e-m/fpu\libm.a(lib_a-e_atan2.o)
                                                  d:/program files (x86)/gnu tools arm embedded/4.6 2012q4/bin/../lib/gcc/arm-none-eabi/4.6.2/../../../../arm-none-eabi/lib/armv7e-m/fpu\libm.a(lib_a-w_sqrt.o)
                                                  d:/program files (x86)/gnu tools arm embedded/4.6 2012q4/bin/../lib/gcc/arm-none-eabi/4.6.2/../../../../arm-none-eabi/lib/armv7e-m/fpu\libm.a(lib_a-w_fmod.o)
                                                  obj\.\externals\SM32F4-Discovery\STEmbeddedGUI\src\touchscreen.o
                                                  obj\.\externals\SM32F4-Discovery\STEmbeddedGUI\src\graphicObject.o
                                                  obj\.\src\touch_pad.o
                                                  obj\.\src\Si570.o
                                                  obj\.\src\PSK_Det.o
                                                  obj\.\src\DMA_IRQ_Handler.o
__aeabi_dmul                                      d:/program files (x86)/gnu tools arm embedded/4.6 2012q4/bin/../lib/gcc/arm-none-eabi/4.6.2/armv7e-m/fpu\libgcc.a(_arm_muldivdf3.o)
                                                  d:/program files (x86)/gnu tools arm embedded/4.6 2012q4/bin/../lib/gcc/arm-none-eabi/4.6.2/../../../../arm-none-eabi/lib/armv7e-m/fpu\libc.a(lib_a-mprec.o)
                                                  d:/program files (x86)/gnu tools arm embedded/4.6 2012q4/bin/../lib/gcc/arm-none-eabi/4.6.2/../../../../arm-none-eabi/lib/armv7e-m/fpu\libc.a(lib_a-dtoa.o)
                                                  d:/program files (x86)/gnu tools arm embedded/4.6 2012q4/bin/../lib/gcc/arm-none-eabi/4.6.2/../../../../arm-none-eabi/lib/armv7e-m/fpu\libm.a(lib_a-s_atan.o)
                                                  d:/program files (x86)/gnu tools arm embedded/4.6 2012q4/bin/../lib/gcc/arm-none-eabi/4.6.2/../../../../arm-none-eabi/lib/armv7e-m/fpu\libm.a(lib_a-e_sqrt.o)
                                                  d:/program files (x86)/gnu tools arm embedded/4.6 2012q4/bin/../lib/gcc/arm-none-eabi/4.6.2/../../../../arm-none-eabi/lib/armv7e-m/fpu\libm.a(lib_a-e_fmod.o)
                                                  obj\.\externals\SM32F4-Discovery\STEmbeddedGUI\src\touchscreen.o
                                                  obj\.\externals\SM32F4-Discovery\STEmbeddedGUI\src\graphicObject.o
                                                  obj\.\src\touch_pad.o
                                                  obj\.\src\Si570.o
                                                  obj\.\src\PSK_Det.o
                                                  obj\.\src\DMA_IRQ_Handler.o
__aeabi_drsub                                     d:/program files (x86)/gnu tools arm embedded/4.6 2012q4/bin/../lib/gcc/arm-none-eabi/4.6.2/armv7e-m/fpu\libgcc.a(_arm_addsubdf3.o)
__aeabi_dsub                                      d:/program files (x86)/gnu tools arm embedded/4.6 2012q4/bin/../lib/gcc/arm-none-eabi/4.6.2/armv7e-m/fpu\libgcc.a(_arm_addsubdf3.o)
                                                  d:/program files (x86)/gnu tools arm embedded/4.6 2012q4/bin/../lib/gcc/arm-none-eabi/4.6.2/../../../../arm-none-eabi/lib/armv7e-m/fpu\libc.a(lib_a-dtoa.o)
                                                  d:/program files (x86)/gnu tools arm embedded/4.6 2012q4/bin/../lib/gcc/arm-none-eabi/4.6.2/../../../../arm-none-eabi/lib/armv7e-m/fpu\libm.a(lib_a-s_atan.o)
                                                  d:/program files (x86)/gnu tools arm embedded/4.6 2012q4/bin/../lib/gcc/arm-none-eabi/4.6.2/../../../../arm-none-eabi/lib/armv7e-m/fpu\libm.a(lib_a-e_sqrt.o)
                                                  d:/program files (x86)/gnu tools arm embedded/4.6 2012q4/bin/../lib/gcc/arm-none-eabi/4.6.2/../../../../arm-none-eabi/lib/armv7e-m/fpu\libm.a(lib_a-e_atan2.o)
                                                  obj\.\externals\SM32F4-Discovery\STEmbeddedGUI\src\touchscreen.o
                                                  obj\.\externals\SM32F4-Discovery\STEmbeddedGUI\src\graphicObject.o
                                                  obj\.\src\TFT_Display.o
                                                  obj\.\src\Si570.o
                                                  obj\.\src\PSK_Det.o
__aeabi_f2d                                       d:/program files (x86)/gnu tools arm embedded/4.6 2012q4/bin/../lib/gcc/arm-none-eabi/4.6.2/armv7e-m/fpu\libgcc.a(_arm_addsubdf3.o)
                                                  obj\.\src\touch_pad.o
                                                  obj\.\src\Si570.o
                                                  obj\.\src\PSK_Det.o
                                                  obj\.\src\DMA_IRQ_Handler.o
__aeabi_i2d                                       d:/program files (x86)/gnu tools arm embedded/4.6 2012q4/bin/../lib/gcc/arm-none-eabi/4.6.2/armv7e-m/fpu\libgcc.a(_arm_addsubdf3.o)
                                                  d:/program files (x86)/gnu tools arm embedded/4.6 2012q4/bin/../lib/gcc/arm-none-eabi/4.6.2/../../../../arm-none-eabi/lib/armv7e-m/fpu\libc.a(lib_a-dtoa.o)
                                                  obj\.\externals\SM32F4-Discovery\STEmbeddedGUI\src\touchscreen.o
                                                  obj\.\externals\SM32F4-Discovery\STEmbeddedGUI\src\graphicObject.o
                                                  obj\.\src\Si570.o
                                                  obj\.\src\PSK_Det.o
__aeabi_idiv0                                     d:/program files (x86)/gnu tools arm embedded/4.6 2012q4/bin/../lib/gcc/arm-none-eabi/4.6.2/armv7e-m/fpu\libgcc.a(_dvmd_tls.o)
__aeabi_l2d                                       d:/program files (x86)/gnu tools arm embedded/4.6 2012q4/bin/../lib/gcc/arm-none-eabi/4.6.2/armv7e-m/fpu\libgcc.a(_arm_addsubdf3.o)
__aeabi_ldiv0                                     d:/program files (x86)/gnu tools arm embedded/4.6 2012q4/bin/../lib/gcc/arm-none-eabi/4.6.2/armv7e-m/fpu\libgcc.a(_dvmd_tls.o)
                                                  d:/program files (x86)/gnu tools arm embedded/4.6 2012q4/bin/../lib/gcc/arm-none-eabi/4.6.2/armv7e-m/fpu\libgcc.a(_aeabi_uldivmod.o)
__aeabi_ui2d                                      d:/program files (x86)/gnu tools arm embedded/4.6 2012q4/bin/../lib/gcc/arm-none-eabi/4.6.2/armv7e-m/fpu\libgcc.a(_arm_addsubdf3.o)
                                                  d:/program files (x86)/gnu tools arm embedded/4.6 2012q4/bin/../lib/gcc/arm-none-eabi/4.6.2/../../../../arm-none-eabi/lib/armv7e-m/fpu\libc.a(lib_a-dtoa.o)
                                                  obj\.\externals\SM32F4-Discovery\STEmbeddedGUI\src\touchscreen.o
                                                  obj\.\externals\SM32F4-Discovery\STEmbeddedGUI\src\graphicObject.o
                                                  obj\.\src\Si570.o
                                                  obj\.\src\Encoder_1.o
__aeabi_ul2d                                      d:/program files (x86)/gnu tools arm embedded/4.6 2012q4/bin/../lib/gcc/arm-none-eabi/4.6.2/armv7e-m/fpu\libgcc.a(_arm_addsubdf3.o)
__aeabi_uldivmod                                  d:/program files (x86)/gnu tools arm embedded/4.6 2012q4/bin/../lib/gcc/arm-none-eabi/4.6.2/armv7e-m/fpu\libgcc.a(_aeabi_uldivmod.o)
                                                  d:/program files (x86)/gnu tools arm embedded/4.6 2012q4/bin/../lib/gcc/arm-none-eabi/4.6.2/../../../../arm-none-eabi/lib/armv7e-m/fpu\libc.a(lib_a-svfiprintf.o)
                                                  d:/program files (x86)/gnu tools arm embedded/4.6 2012q4/bin/../lib/gcc/arm-none-eabi/4.6.2/../../../../arm-none-eabi/lib/armv7e-m/fpu\libc.a(lib_a-svfprintf.o)
__any_on                                          d:/program files (x86)/gnu tools arm embedded/4.6 2012q4/bin/../lib/gcc/arm-none-eabi/4.6.2/../../../../arm-none-eabi/lib/armv7e-m/fpu\libc.a(lib_a-mprec.o)
__assert_func                                     obj\.\externals\SM32F4-Discovery\STEmbeddedGUI\src\LcdDriver_ILI9320.o
                                                  obj\.\externals\SM32F4-Discovery\STEmbeddedGUI\src\graphicObject.o
                                                  obj\.\externals\SM32F4-Discovery\STEmbeddedGUI\src\LcdHal.o
__b2d                                             d:/program files (x86)/gnu tools arm embedded/4.6 2012q4/bin/../lib/gcc/arm-none-eabi/4.6.2/../../../../arm-none-eabi/lib/armv7e-m/fpu\libc.a(lib_a-mprec.o)
__cmpdf2                                          d:/program files (x86)/gnu tools arm embedded/4.6 2012q4/bin/../lib/gcc/arm-none-eabi/4.6.2/armv7e-m/fpu\libgcc.a(_arm_cmpdf2.o)
__copybits                                        d:/program files (x86)/gnu tools arm embedded/4.6 2012q4/bin/../lib/gcc/arm-none-eabi/4.6.2/../../../../arm-none-eabi/lib/armv7e-m/fpu\libc.a(lib_a-mprec.o)
__d2b                                             d:/program files (x86)/gnu tools arm embedded/4.6 2012q4/bin/../lib/gcc/arm-none-eabi/4.6.2/../../../../arm-none-eabi/lib/armv7e-m/fpu\libc.a(lib_a-mprec.o)
                                                  d:/program files (x86)/gnu tools arm embedded/4.6 2012q4/bin/../lib/gcc/arm-none-eabi/4.6.2/../../../../arm-none-eabi/lib/armv7e-m/fpu\libc.a(lib_a-dtoa.o)
__divdf3                                          d:/program files (x86)/gnu tools arm embedded/4.6 2012q4/bin/../lib/gcc/arm-none-eabi/4.6.2/armv7e-m/fpu\libgcc.a(_arm_muldivdf3.o)
__divdi3                                          d:/program files (x86)/gnu tools arm embedded/4.6 2012q4/bin/../lib/gcc/arm-none-eabi/4.6.2/armv7e-m/fpu\libgcc.a(_divdi3.o)
                                                  d:/program files (x86)/gnu tools arm embedded/4.6 2012q4/bin/../lib/gcc/arm-none-eabi/4.6.2/armv7e-m/fpu\libgcc.a(bpabi.o)
__eqdf2                                           d:/program files (x86)/gnu tools arm embedded/4.6 2012q4/bin/../lib/gcc/arm-none-eabi/4.6.2/armv7e-m/fpu\libgcc.a(_arm_cmpdf2.o)
__errno                                           d:/program files (x86)/gnu tools arm embedded/4.6 2012q4/bin/../lib/gcc/arm-none-eabi/4.6.2/../../../../arm-none-eabi/lib/armv7e-m/fpu\libc.a(lib_a-errno.o)
                                                  d:/program files (x86)/gnu tools arm embedded/4.6 2012q4/bin/../lib/gcc/arm-none-eabi/4.6.2/../../../../arm-none-eabi/lib/armv7e-m/fpu\libm.a(lib_a-w_sqrt.o)
                                                  d:/program files (x86)/gnu tools arm embedded/4.6 2012q4/bin/../lib/gcc/arm-none-eabi/4.6.2/../../../../arm-none-eabi/lib/armv7e-m/fpu\libm.a(lib_a-w_fmod.o)
__extendsfdf2                                     d:/program files (x86)/gnu tools arm embedded/4.6 2012q4/bin/../lib/gcc/arm-none-eabi/4.6.2/armv7e-m/fpu\libgcc.a(_arm_addsubdf3.o)
__fdlib_version                                   d:/program files (x86)/gnu tools arm embedded/4.6 2012q4/bin/../lib/gcc/arm-none-eabi/4.6.2/../../../../arm-none-eabi/lib/armv7e-m/fpu\libm.a(lib_a-s_lib_ver.o)
                                                  d:/program files (x86)/gnu tools arm embedded/4.6 2012q4/bin/../lib/gcc/arm-none-eabi/4.6.2/../../../../arm-none-eabi/lib/armv7e-m/fpu\libm.a(lib_a-w_sqrt.o)
                                                  d:/program files (x86)/gnu tools arm embedded/4.6 2012q4/bin/../lib/gcc/arm-none-eabi/4.6.2/../../../../arm-none-eabi/lib/armv7e-m/fpu\libm.a(lib_a-w_fmod.o)
__fixdfsi                                         d:/program files (x86)/gnu tools arm embedded/4.6 2012q4/bin/../lib/gcc/arm-none-eabi/4.6.2/armv7e-m/fpu\libgcc.a(_arm_fixdfsi.o)
__fixunsdfsi                                      d:/program files (x86)/gnu tools arm embedded/4.6 2012q4/bin/../lib/gcc/arm-none-eabi/4.6.2/armv7e-m/fpu\libgcc.a(_arm_fixunsdfsi.o)
__floatdidf                                       d:/program files (x86)/gnu tools arm embedded/4.6 2012q4/bin/../lib/gcc/arm-none-eabi/4.6.2/armv7e-m/fpu\libgcc.a(_arm_addsubdf3.o)
__floatsidf                                       d:/program files (x86)/gnu tools arm embedded/4.6 2012q4/bin/../lib/gcc/arm-none-eabi/4.6.2/armv7e-m/fpu\libgcc.a(_arm_addsubdf3.o)
__floatundidf                                     d:/program files (x86)/gnu tools arm embedded/4.6 2012q4/bin/../lib/gcc/arm-none-eabi/4.6.2/armv7e-m/fpu\libgcc.a(_arm_addsubdf3.o)
__floatunsidf                                     d:/program files (x86)/gnu tools arm embedded/4.6 2012q4/bin/../lib/gcc/arm-none-eabi/4.6.2/armv7e-m/fpu\libgcc.a(_arm_addsubdf3.o)
__fpclassifyd                                     d:/program files (x86)/gnu tools arm embedded/4.6 2012q4/bin/../lib/gcc/arm-none-eabi/4.6.2/../../../../arm-none-eabi/lib/armv7e-m/fpu\libm.a(lib_a-s_fpclassify.o)
                                                  d:/program files (x86)/gnu tools arm embedded/4.6 2012q4/bin/../lib/gcc/arm-none-eabi/4.6.2/../../../../arm-none-eabi/lib/armv7e-m/fpu\libc.a(lib_a-svfprintf.o)
                                                  d:/program files (x86)/gnu tools arm embedded/4.6 2012q4/bin/../lib/gcc/arm-none-eabi/4.6.2/../../../../arm-none-eabi/lib/armv7e-m/fpu\libm.a(lib_a-w_sqrt.o)
                                                  d:/program files (x86)/gnu tools arm embedded/4.6 2012q4/bin/../lib/gcc/arm-none-eabi/4.6.2/../../../../arm-none-eabi/lib/armv7e-m/fpu\libm.a(lib_a-w_fmod.o)
__gedf2                                           d:/program files (x86)/gnu tools arm embedded/4.6 2012q4/bin/../lib/gcc/arm-none-eabi/4.6.2/armv7e-m/fpu\libgcc.a(_arm_cmpdf2.o)
__gnu_ldivmod_helper                              d:/program files (x86)/gnu tools arm embedded/4.6 2012q4/bin/../lib/gcc/arm-none-eabi/4.6.2/armv7e-m/fpu\libgcc.a(bpabi.o)
__gnu_uldivmod_helper                             d:/program files (x86)/gnu tools arm embedded/4.6 2012q4/bin/../lib/gcc/arm-none-eabi/4.6.2/armv7e-m/fpu\libgcc.a(bpabi.o)
                                                  d:/program files (x86)/gnu tools arm embedded/4.6 2012q4/bin/../lib/gcc/arm-none-eabi/4.6.2/armv7e-m/fpu\libgcc.a(_aeabi_uldivmod.o)
__gtdf2                                           d:/program files (x86)/gnu tools arm embedded/4.6 2012q4/bin/../lib/gcc/arm-none-eabi/4.6.2/armv7e-m/fpu\libgcc.a(_arm_cmpdf2.o)
__hi0bits                                         d:/program files (x86)/gnu tools arm embedded/4.6 2012q4/bin/../lib/gcc/arm-none-eabi/4.6.2/../../../../arm-none-eabi/lib/armv7e-m/fpu\libc.a(lib_a-mprec.o)
                                                  d:/program files (x86)/gnu tools arm embedded/4.6 2012q4/bin/../lib/gcc/arm-none-eabi/4.6.2/../../../../arm-none-eabi/lib/armv7e-m/fpu\libc.a(lib_a-dtoa.o)
__i2b                                             d:/program files (x86)/gnu tools arm embedded/4.6 2012q4/bin/../lib/gcc/arm-none-eabi/4.6.2/../../../../arm-none-eabi/lib/armv7e-m/fpu\libc.a(lib_a-mprec.o)
                                                  d:/program files (x86)/gnu tools arm embedded/4.6 2012q4/bin/../lib/gcc/arm-none-eabi/4.6.2/../../../../arm-none-eabi/lib/armv7e-m/fpu\libc.a(lib_a-dtoa.o)
__ieee754_atan2                                   d:/program files (x86)/gnu tools arm embedded/4.6 2012q4/bin/../lib/gcc/arm-none-eabi/4.6.2/../../../../arm-none-eabi/lib/armv7e-m/fpu\libm.a(lib_a-e_atan2.o)
                                                  d:/program files (x86)/gnu tools arm embedded/4.6 2012q4/bin/../lib/gcc/arm-none-eabi/4.6.2/../../../../arm-none-eabi/lib/armv7e-m/fpu\libm.a(lib_a-w_atan2.o)
__ieee754_fmod                                    d:/program files (x86)/gnu tools arm embedded/4.6 2012q4/bin/../lib/gcc/arm-none-eabi/4.6.2/../../../../arm-none-eabi/lib/armv7e-m/fpu\libm.a(lib_a-e_fmod.o)
                                                  d:/program files (x86)/gnu tools arm embedded/4.6 2012q4/bin/../lib/gcc/arm-none-eabi/4.6.2/../../../../arm-none-eabi/lib/armv7e-m/fpu\libm.a(lib_a-w_fmod.o)
__ieee754_sqrt                                    d:/program files (x86)/gnu tools arm embedded/4.6 2012q4/bin/../lib/gcc/arm-none-eabi/4.6.2/../../../../arm-none-eabi/lib/armv7e-m/fpu\libm.a(lib_a-e_sqrt.o)
                                                  d:/program files (x86)/gnu tools arm embedded/4.6 2012q4/bin/../lib/gcc/arm-none-eabi/4.6.2/../../../../arm-none-eabi/lib/armv7e-m/fpu\libm.a(lib_a-w_sqrt.o)
__ledf2                                           d:/program files (x86)/gnu tools arm embedded/4.6 2012q4/bin/../lib/gcc/arm-none-eabi/4.6.2/armv7e-m/fpu\libgcc.a(_arm_cmpdf2.o)
__lo0bits                                         d:/program files (x86)/gnu tools arm embedded/4.6 2012q4/bin/../lib/gcc/arm-none-eabi/4.6.2/../../../../arm-none-eabi/lib/armv7e-m/fpu\libc.a(lib_a-mprec.o)
__locale_charset                                  d:/program files (x86)/gnu tools arm embedded/4.6 2012q4/bin/../lib/gcc/arm-none-eabi/4.6.2/../../../../arm-none-eabi/lib/armv7e-m/fpu\libc.a(lib_a-locale.o)
__locale_cjk_lang                                 d:/program files (x86)/gnu tools arm embedded/4.6 2012q4/bin/../lib/gcc/arm-none-eabi/4.6.2/../../../../arm-none-eabi/lib/armv7e-m/fpu\libc.a(lib_a-locale.o)
__locale_mb_cur_max                               d:/program files (x86)/gnu tools arm embedded/4.6 2012q4/bin/../lib/gcc/arm-none-eabi/4.6.2/../../../../arm-none-eabi/lib/armv7e-m/fpu\libc.a(lib_a-locale.o)
__locale_msgcharset                               d:/program files (x86)/gnu tools arm embedded/4.6 2012q4/bin/../lib/gcc/arm-none-eabi/4.6.2/../../../../arm-none-eabi/lib/armv7e-m/fpu\libc.a(lib_a-locale.o)
__lshift                                          d:/program files (x86)/gnu tools arm embedded/4.6 2012q4/bin/../lib/gcc/arm-none-eabi/4.6.2/../../../../arm-none-eabi/lib/armv7e-m/fpu\libc.a(lib_a-mprec.o)
                                                  d:/program files (x86)/gnu tools arm embedded/4.6 2012q4/bin/../lib/gcc/arm-none-eabi/4.6.2/../../../../arm-none-eabi/lib/armv7e-m/fpu\libc.a(lib_a-dtoa.o)
__ltdf2                                           d:/program files (x86)/gnu tools arm embedded/4.6 2012q4/bin/../lib/gcc/arm-none-eabi/4.6.2/armv7e-m/fpu\libgcc.a(_arm_cmpdf2.o)
__malloc_av_                                      d:/program files (x86)/gnu tools arm embedded/4.6 2012q4/bin/../lib/gcc/arm-none-eabi/4.6.2/../../../../arm-none-eabi/lib/armv7e-m/fpu\libc.a(lib_a-mallocr.o)
                                                  d:/program files (x86)/gnu tools arm embedded/4.6 2012q4/bin/../lib/gcc/arm-none-eabi/4.6.2/../../../../arm-none-eabi/lib/armv7e-m/fpu\libc.a(lib_a-reallocr.o)
                                                  d:/program files (x86)/gnu tools arm embedded/4.6 2012q4/bin/../lib/gcc/arm-none-eabi/4.6.2/../../../../arm-none-eabi/lib/armv7e-m/fpu\libc.a(lib_a-freer.o)
__malloc_current_mallinfo                         d:/program files (x86)/gnu tools arm embedded/4.6 2012q4/bin/../lib/gcc/arm-none-eabi/4.6.2/../../../../arm-none-eabi/lib/armv7e-m/fpu\libc.a(lib_a-mallocr.o)
                                                  d:/program files (x86)/gnu tools arm embedded/4.6 2012q4/bin/../lib/gcc/arm-none-eabi/4.6.2/../../../../arm-none-eabi/lib/armv7e-m/fpu\libc.a(lib_a-freer.o)
__malloc_lock                                     d:/program files (x86)/gnu tools arm embedded/4.6 2012q4/bin/../lib/gcc/arm-none-eabi/4.6.2/../../../../arm-none-eabi/lib/armv7e-m/fpu\libc.a(lib_a-mlock.o)
                                                  d:/program files (x86)/gnu tools arm embedded/4.6 2012q4/bin/../lib/gcc/arm-none-eabi/4.6.2/../../../../arm-none-eabi/lib/armv7e-m/fpu\libc.a(lib_a-reallocr.o)
                                                  d:/program files (x86)/gnu tools arm embedded/4.6 2012q4/bin/../lib/gcc/arm-none-eabi/4.6.2/../../../../arm-none-eabi/lib/armv7e-m/fpu\libc.a(lib_a-freer.o)
                                                  d:/program files (x86)/gnu tools arm embedded/4.6 2012q4/bin/../lib/gcc/arm-none-eabi/4.6.2/../../../../arm-none-eabi/lib/armv7e-m/fpu\libc.a(lib_a-mallocr.o)
__malloc_max_sbrked_mem                           d:/program files (x86)/gnu tools arm embedded/4.6 2012q4/bin/../lib/gcc/arm-none-eabi/4.6.2/../../../../arm-none-eabi/lib/armv7e-m/fpu\libc.a(lib_a-mallocr.o)
__malloc_max_total_mem                            d:/program files (x86)/gnu tools arm embedded/4.6 2012q4/bin/../lib/gcc/arm-none-eabi/4.6.2/../../../../arm-none-eabi/lib/armv7e-m/fpu\libc.a(lib_a-mallocr.o)
__malloc_sbrk_base                                d:/program files (x86)/gnu tools arm embedded/4.6 2012q4/bin/../lib/gcc/arm-none-eabi/4.6.2/../../../../arm-none-eabi/lib/armv7e-m/fpu\libc.a(lib_a-mallocr.o)
                                                  d:/program files (x86)/gnu tools arm embedded/4.6 2012q4/bin/../lib/gcc/arm-none-eabi/4.6.2/../../../../arm-none-eabi/lib/armv7e-m/fpu\libc.a(lib_a-freer.o)
__malloc_top_pad                                  d:/program files (x86)/gnu tools arm embedded/4.6 2012q4/bin/../lib/gcc/arm-none-eabi/4.6.2/../../../../arm-none-eabi/lib/armv7e-m/fpu\libc.a(lib_a-mallocr.o)
                                                  d:/program files (x86)/gnu tools arm embedded/4.6 2012q4/bin/../lib/gcc/arm-none-eabi/4.6.2/../../../../arm-none-eabi/lib/armv7e-m/fpu\libc.a(lib_a-freer.o)
__malloc_trim_threshold                           d:/program files (x86)/gnu tools arm embedded/4.6 2012q4/bin/../lib/gcc/arm-none-eabi/4.6.2/../../../../arm-none-eabi/lib/armv7e-m/fpu\libc.a(lib_a-mallocr.o)
                                                  d:/program files (x86)/gnu tools arm embedded/4.6 2012q4/bin/../lib/gcc/arm-none-eabi/4.6.2/../../../../arm-none-eabi/lib/armv7e-m/fpu\libc.a(lib_a-freer.o)
__malloc_unlock                                   d:/program files (x86)/gnu tools arm embedded/4.6 2012q4/bin/../lib/gcc/arm-none-eabi/4.6.2/../../../../arm-none-eabi/lib/armv7e-m/fpu\libc.a(lib_a-mlock.o)
                                                  d:/program files (x86)/gnu tools arm embedded/4.6 2012q4/bin/../lib/gcc/arm-none-eabi/4.6.2/../../../../arm-none-eabi/lib/armv7e-m/fpu\libc.a(lib_a-reallocr.o)
                                                  d:/program files (x86)/gnu tools arm embedded/4.6 2012q4/bin/../lib/gcc/arm-none-eabi/4.6.2/../../../../arm-none-eabi/lib/armv7e-m/fpu\libc.a(lib_a-freer.o)
                                                  d:/program files (x86)/gnu tools arm embedded/4.6 2012q4/bin/../lib/gcc/arm-none-eabi/4.6.2/../../../../arm-none-eabi/lib/armv7e-m/fpu\libc.a(lib_a-mallocr.o)
__mb_cur_max                                      d:/program files (x86)/gnu tools arm embedded/4.6 2012q4/bin/../lib/gcc/arm-none-eabi/4.6.2/../../../../arm-none-eabi/lib/armv7e-m/fpu\libc.a(lib_a-locale.o)
__mcmp                                            d:/program files (x86)/gnu tools arm embedded/4.6 2012q4/bin/../lib/gcc/arm-none-eabi/4.6.2/../../../../arm-none-eabi/lib/armv7e-m/fpu\libc.a(lib_a-mprec.o)
                                                  d:/program files (x86)/gnu tools arm embedded/4.6 2012q4/bin/../lib/gcc/arm-none-eabi/4.6.2/../../../../arm-none-eabi/lib/armv7e-m/fpu\libc.a(lib_a-dtoa.o)
__mdiff                                           d:/program files (x86)/gnu tools arm embedded/4.6 2012q4/bin/../lib/gcc/arm-none-eabi/4.6.2/../../../../arm-none-eabi/lib/armv7e-m/fpu\libc.a(lib_a-mprec.o)
                                                  d:/program files (x86)/gnu tools arm embedded/4.6 2012q4/bin/../lib/gcc/arm-none-eabi/4.6.2/../../../../arm-none-eabi/lib/armv7e-m/fpu\libc.a(lib_a-dtoa.o)
__mlocale_changed                                 d:/program files (x86)/gnu tools arm embedded/4.6 2012q4/bin/../lib/gcc/arm-none-eabi/4.6.2/../../../../arm-none-eabi/lib/armv7e-m/fpu\libc.a(lib_a-locale.o)
__mprec_bigtens                                   d:/program files (x86)/gnu tools arm embedded/4.6 2012q4/bin/../lib/gcc/arm-none-eabi/4.6.2/../../../../arm-none-eabi/lib/armv7e-m/fpu\libc.a(lib_a-mprec.o)
                                                  d:/program files (x86)/gnu tools arm embedded/4.6 2012q4/bin/../lib/gcc/arm-none-eabi/4.6.2/../../../../arm-none-eabi/lib/armv7e-m/fpu\libc.a(lib_a-dtoa.o)
__mprec_tens                                      d:/program files (x86)/gnu tools arm embedded/4.6 2012q4/bin/../lib/gcc/arm-none-eabi/4.6.2/../../../../arm-none-eabi/lib/armv7e-m/fpu\libc.a(lib_a-mprec.o)
                                                  d:/program files (x86)/gnu tools arm embedded/4.6 2012q4/bin/../lib/gcc/arm-none-eabi/4.6.2/../../../../arm-none-eabi/lib/armv7e-m/fpu\libc.a(lib_a-dtoa.o)
__mprec_tinytens                                  d:/program files (x86)/gnu tools arm embedded/4.6 2012q4/bin/../lib/gcc/arm-none-eabi/4.6.2/../../../../arm-none-eabi/lib/armv7e-m/fpu\libc.a(lib_a-mprec.o)
__muldf3                                          d:/program files (x86)/gnu tools arm embedded/4.6 2012q4/bin/../lib/gcc/arm-none-eabi/4.6.2/armv7e-m/fpu\libgcc.a(_arm_muldivdf3.o)
__multadd                                         d:/program files (x86)/gnu tools arm embedded/4.6 2012q4/bin/../lib/gcc/arm-none-eabi/4.6.2/../../../../arm-none-eabi/lib/armv7e-m/fpu\libc.a(lib_a-mprec.o)
                                                  d:/program files (x86)/gnu tools arm embedded/4.6 2012q4/bin/../lib/gcc/arm-none-eabi/4.6.2/../../../../arm-none-eabi/lib/armv7e-m/fpu\libc.a(lib_a-dtoa.o)
__multiply                                        d:/program files (x86)/gnu tools arm embedded/4.6 2012q4/bin/../lib/gcc/arm-none-eabi/4.6.2/../../../../arm-none-eabi/lib/armv7e-m/fpu\libc.a(lib_a-mprec.o)
                                                  d:/program files (x86)/gnu tools arm embedded/4.6 2012q4/bin/../lib/gcc/arm-none-eabi/4.6.2/../../../../arm-none-eabi/lib/armv7e-m/fpu\libc.a(lib_a-dtoa.o)
__nedf2                                           d:/program files (x86)/gnu tools arm embedded/4.6 2012q4/bin/../lib/gcc/arm-none-eabi/4.6.2/armv7e-m/fpu\libgcc.a(_arm_cmpdf2.o)
__nlocale_changed                                 d:/program files (x86)/gnu tools arm embedded/4.6 2012q4/bin/../lib/gcc/arm-none-eabi/4.6.2/../../../../arm-none-eabi/lib/armv7e-m/fpu\libc.a(lib_a-locale.o)
__pow5mult                                        d:/program files (x86)/gnu tools arm embedded/4.6 2012q4/bin/../lib/gcc/arm-none-eabi/4.6.2/../../../../arm-none-eabi/lib/armv7e-m/fpu\libc.a(lib_a-mprec.o)
                                                  d:/program files (x86)/gnu tools arm embedded/4.6 2012q4/bin/../lib/gcc/arm-none-eabi/4.6.2/../../../../arm-none-eabi/lib/armv7e-m/fpu\libc.a(lib_a-dtoa.o)
__ratio                                           d:/program files (x86)/gnu tools arm embedded/4.6 2012q4/bin/../lib/gcc/arm-none-eabi/4.6.2/../../../../arm-none-eabi/lib/armv7e-m/fpu\libc.a(lib_a-mprec.o)
__s2b                                             d:/program files (x86)/gnu tools arm embedded/4.6 2012q4/bin/../lib/gcc/arm-none-eabi/4.6.2/../../../../arm-none-eabi/lib/armv7e-m/fpu\libc.a(lib_a-mprec.o)
__ssprint_r                                       d:/program files (x86)/gnu tools arm embedded/4.6 2012q4/bin/../lib/gcc/arm-none-eabi/4.6.2/../../../../arm-none-eabi/lib/armv7e-m/fpu\libc.a(lib_a-svfiprintf.o)
                                                  d:/program files (x86)/gnu tools arm embedded/4.6 2012q4/bin/../lib/gcc/arm-none-eabi/4.6.2/../../../../arm-none-eabi/lib/armv7e-m/fpu\libc.a(lib_a-svfprintf.o)
__subdf3                                          d:/program files (x86)/gnu tools arm embedded/4.6 2012q4/bin/../lib/gcc/arm-none-eabi/4.6.2/armv7e-m/fpu\libgcc.a(_arm_addsubdf3.o)
__truncdfsf2                                      d:/program files (x86)/gnu tools arm embedded/4.6 2012q4/bin/../lib/gcc/arm-none-eabi/4.6.2/armv7e-m/fpu\libgcc.a(_arm_truncdfsf2.o)
__udivdi3                                         d:/program files (x86)/gnu tools arm embedded/4.6 2012q4/bin/../lib/gcc/arm-none-eabi/4.6.2/armv7e-m/fpu\libgcc.a(_udivdi3.o)
                                                  d:/program files (x86)/gnu tools arm embedded/4.6 2012q4/bin/../lib/gcc/arm-none-eabi/4.6.2/armv7e-m/fpu\libgcc.a(bpabi.o)
__ulp                                             d:/program files (x86)/gnu tools arm embedded/4.6 2012q4/bin/../lib/gcc/arm-none-eabi/4.6.2/../../../../arm-none-eabi/lib/armv7e-m/fpu\libc.a(lib_a-mprec.o)
_calloc_r                                         d:/program files (x86)/gnu tools arm embedded/4.6 2012q4/bin/../lib/gcc/arm-none-eabi/4.6.2/../../../../arm-none-eabi/lib/armv7e-m/fpu\libc.a(lib_a-callocr.o)
                                                  d:/program files (x86)/gnu tools arm embedded/4.6 2012q4/bin/../lib/gcc/arm-none-eabi/4.6.2/../../../../arm-none-eabi/lib/armv7e-m/fpu\libc.a(lib_a-mprec.o)
_dtoa_r                                           d:/program files (x86)/gnu tools arm embedded/4.6 2012q4/bin/../lib/gcc/arm-none-eabi/4.6.2/../../../../arm-none-eabi/lib/armv7e-m/fpu\libc.a(lib_a-dtoa.o)
                                                  d:/program files (x86)/gnu tools arm embedded/4.6 2012q4/bin/../lib/gcc/arm-none-eabi/4.6.2/../../../../arm-none-eabi/lib/armv7e-m/fpu\libc.a(lib_a-svfprintf.o)
_ebss                                             obj\.\startup\startup_stm32f4xx.o
_edata                                            obj\.\startup\startup_stm32f4xx.o
_free_r                                           d:/program files (x86)/gnu tools arm embedded/4.6 2012q4/bin/../lib/gcc/arm-none-eabi/4.6.2/../../../../arm-none-eabi/lib/armv7e-m/fpu\libc.a(lib_a-freer.o)
                                                  d:/program files (x86)/gnu tools arm embedded/4.6 2012q4/bin/../lib/gcc/arm-none-eabi/4.6.2/../../../../arm-none-eabi/lib/armv7e-m/fpu\libc.a(lib_a-reallocr.o)
                                                  d:/program files (x86)/gnu tools arm embedded/4.6 2012q4/bin/../lib/gcc/arm-none-eabi/4.6.2/../../../../arm-none-eabi/lib/armv7e-m/fpu\libc.a(lib_a-svfiprintf.o)
                                                  d:/program files (x86)/gnu tools arm embedded/4.6 2012q4/bin/../lib/gcc/arm-none-eabi/4.6.2/../../../../arm-none-eabi/lib/armv7e-m/fpu\libc.a(lib_a-reent.o)
                                                  d:/program files (x86)/gnu tools arm embedded/4.6 2012q4/bin/../lib/gcc/arm-none-eabi/4.6.2/../../../../arm-none-eabi/lib/armv7e-m/fpu\libc.a(lib_a-mallocr.o)
                                                  d:/program files (x86)/gnu tools arm embedded/4.6 2012q4/bin/../lib/gcc/arm-none-eabi/4.6.2/../../../../arm-none-eabi/lib/armv7e-m/fpu\libc.a(lib_a-malloc.o)
_global_impure_ptr                                d:/program files (x86)/gnu tools arm embedded/4.6 2012q4/bin/../lib/gcc/arm-none-eabi/4.6.2/../../../../arm-none-eabi/lib/armv7e-m/fpu\libc.a(lib_a-impure.o)
_impure_ptr                                       d:/program files (x86)/gnu tools arm embedded/4.6 2012q4/bin/../lib/gcc/arm-none-eabi/4.6.2/../../../../arm-none-eabi/lib/armv7e-m/fpu\libc.a(lib_a-impure.o)
                                                  d:/program files (x86)/gnu tools arm embedded/4.6 2012q4/bin/../lib/gcc/arm-none-eabi/4.6.2/../../../../arm-none-eabi/lib/armv7e-m/fpu\libc.a(lib_a-reent.o)
                                                  d:/program files (x86)/gnu tools arm embedded/4.6 2012q4/bin/../lib/gcc/arm-none-eabi/4.6.2/../../../../arm-none-eabi/lib/armv7e-m/fpu\libc.a(lib_a-locale.o)
                                                  d:/program files (x86)/gnu tools arm embedded/4.6 2012q4/bin/../lib/gcc/arm-none-eabi/4.6.2/../../../../arm-none-eabi/lib/armv7e-m/fpu\libc.a(lib_a-sprintf.o)
                                                  d:/program files (x86)/gnu tools arm embedded/4.6 2012q4/bin/../lib/gcc/arm-none-eabi/4.6.2/../../../../arm-none-eabi/lib/armv7e-m/fpu\libc.a(lib_a-malloc.o)
                                                  d:/program files (x86)/gnu tools arm embedded/4.6 2012q4/bin/../lib/gcc/arm-none-eabi/4.6.2/../../../../arm-none-eabi/lib/armv7e-m/fpu\libc.a(lib_a-errno.o)
_localeconv_r                                     d:/program files (x86)/gnu tools arm embedded/4.6 2012q4/bin/../lib/gcc/arm-none-eabi/4.6.2/../../../../arm-none-eabi/lib/armv7e-m/fpu\libc.a(lib_a-locale.o)
                                                  d:/program files (x86)/gnu tools arm embedded/4.6 2012q4/bin/../lib/gcc/arm-none-eabi/4.6.2/../../../../arm-none-eabi/lib/armv7e-m/fpu\libc.a(lib_a-svfprintf.o)
_malloc_r                                         d:/program files (x86)/gnu tools arm embedded/4.6 2012q4/bin/../lib/gcc/arm-none-eabi/4.6.2/../../../../arm-none-eabi/lib/armv7e-m/fpu\libc.a(lib_a-mallocr.o)
                                                  d:/program files (x86)/gnu tools arm embedded/4.6 2012q4/bin/../lib/gcc/arm-none-eabi/4.6.2/../../../../arm-none-eabi/lib/armv7e-m/fpu\libc.a(lib_a-reallocr.o)
                                                  d:/program files (x86)/gnu tools arm embedded/4.6 2012q4/bin/../lib/gcc/arm-none-eabi/4.6.2/../../../../arm-none-eabi/lib/armv7e-m/fpu\libc.a(lib_a-callocr.o)
                                                  d:/program files (x86)/gnu tools arm embedded/4.6 2012q4/bin/../lib/gcc/arm-none-eabi/4.6.2/../../../../arm-none-eabi/lib/armv7e-m/fpu\libc.a(lib_a-svfiprintf.o)
                                                  d:/program files (x86)/gnu tools arm embedded/4.6 2012q4/bin/../lib/gcc/arm-none-eabi/4.6.2/../../../../arm-none-eabi/lib/armv7e-m/fpu\libc.a(lib_a-svfprintf.o)
                                                  d:/program files (x86)/gnu tools arm embedded/4.6 2012q4/bin/../lib/gcc/arm-none-eabi/4.6.2/../../../../arm-none-eabi/lib/armv7e-m/fpu\libc.a(lib_a-malloc.o)
_malloc_trim_r                                    d:/program files (x86)/gnu tools arm embedded/4.6 2012q4/bin/../lib/gcc/arm-none-eabi/4.6.2/../../../../arm-none-eabi/lib/armv7e-m/fpu\libc.a(lib_a-freer.o)
_mprec_log10                                      d:/program files (x86)/gnu tools arm embedded/4.6 2012q4/bin/../lib/gcc/arm-none-eabi/4.6.2/../../../../arm-none-eabi/lib/armv7e-m/fpu\libc.a(lib_a-mprec.o)
_realloc_r                                        d:/program files (x86)/gnu tools arm embedded/4.6 2012q4/bin/../lib/gcc/arm-none-eabi/4.6.2/../../../../arm-none-eabi/lib/armv7e-m/fpu\libc.a(lib_a-reallocr.o)
                                                  d:/program files (x86)/gnu tools arm embedded/4.6 2012q4/bin/../lib/gcc/arm-none-eabi/4.6.2/../../../../arm-none-eabi/lib/armv7e-m/fpu\libc.a(lib_a-svfiprintf.o)
_reclaim_reent                                    d:/program files (x86)/gnu tools arm embedded/4.6 2012q4/bin/../lib/gcc/arm-none-eabi/4.6.2/../../../../arm-none-eabi/lib/armv7e-m/fpu\libc.a(lib_a-reent.o)
_sbrk                                             obj\.\externals\SM32F4-Discovery\STEmbeddedGUI\src\uiappuser.o
                                                  d:/program files (x86)/gnu tools arm embedded/4.6 2012q4/bin/../lib/gcc/arm-none-eabi/4.6.2/../../../../arm-none-eabi/lib/armv7e-m/fpu\libc.a(lib_a-sbrkr.o)
_sbrk_r                                           d:/program files (x86)/gnu tools arm embedded/4.6 2012q4/bin/../lib/gcc/arm-none-eabi/4.6.2/../../../../arm-none-eabi/lib/armv7e-m/fpu\libc.a(lib_a-sbrkr.o)
                                                  d:/program files (x86)/gnu tools arm embedded/4.6 2012q4/bin/../lib/gcc/arm-none-eabi/4.6.2/../../../../arm-none-eabi/lib/armv7e-m/fpu\libc.a(lib_a-freer.o)
                                                  d:/program files (x86)/gnu tools arm embedded/4.6 2012q4/bin/../lib/gcc/arm-none-eabi/4.6.2/../../../../arm-none-eabi/lib/armv7e-m/fpu\libc.a(lib_a-mallocr.o)
_sbss                                             obj\.\startup\startup_stm32f4xx.o
_sdata                                            obj\.\startup\startup_stm32f4xx.o
_setlocale_r                                      d:/program files (x86)/gnu tools arm embedded/4.6 2012q4/bin/../lib/gcc/arm-none-eabi/4.6.2/../../../../arm-none-eabi/lib/armv7e-m/fpu\libc.a(lib_a-locale.o)
_sidata                                           obj\.\startup\startup_stm32f4xx.o
_sprintf_r                                        d:/program files (x86)/gnu tools arm embedded/4.6 2012q4/bin/../lib/gcc/arm-none-eabi/4.6.2/../../../../arm-none-eabi/lib/armv7e-m/fpu\libc.a(lib_a-sprintf.o)
_svfiprintf_r                                     d:/program files (x86)/gnu tools arm embedded/4.6 2012q4/bin/../lib/gcc/arm-none-eabi/4.6.2/../../../../arm-none-eabi/lib/armv7e-m/fpu\libc.a(lib_a-svfiprintf.o)
_svfprintf_r                                      d:/program files (x86)/gnu tools arm embedded/4.6 2012q4/bin/../lib/gcc/arm-none-eabi/4.6.2/../../../../arm-none-eabi/lib/armv7e-m/fpu\libc.a(lib_a-svfprintf.o)
                                                  d:/program files (x86)/gnu tools arm embedded/4.6 2012q4/bin/../lib/gcc/arm-none-eabi/4.6.2/../../../../arm-none-eabi/lib/armv7e-m/fpu\libc.a(lib_a-sprintf.o)
_wrapup_reent                                     d:/program files (x86)/gnu tools arm embedded/4.6 2012q4/bin/../lib/gcc/arm-none-eabi/4.6.2/../../../../arm-none-eabi/lib/armv7e-m/fpu\libc.a(lib_a-reent.o)
armBitRevTable                                    .\externals\libs\libstm32f4xx_math.a(arm_common_tables.o)
                                                  .\externals\libs\libstm32f4xx_math.a(arm_cfft_radix4_init_q15.o)
armRecipTableQ15                                  .\externals\libs\libstm32f4xx_math.a(arm_common_tables.o)
armRecipTableQ31                                  .\externals\libs\libstm32f4xx_math.a(arm_common_tables.o)
arm_bitreversal_q15                               .\externals\libs\libstm32f4xx_math.a(arm_cfft_radix4_q15.o)
arm_cfft_radix4_init_q15                          .\externals\libs\libstm32f4xx_math.a(arm_cfft_radix4_init_q15.o)
                                                  obj\.\src\DSP_Processing.o
arm_cfft_radix4_q15                               .\externals\libs\libstm32f4xx_math.a(arm_cfft_radix4_q15.o)
                                                  obj\.\src\DSP_Processing.o
arm_cmplx_mag_squared_q15                         .\externals\libs\libstm32f4xx_math.a(arm_cmplx_mag_squared_q15.o)
                                                  obj\.\src\DSP_Processing.o
arm_fir_decimate_q15                              .\externals\libs\libstm32f4xx_math.a(arm_fir_decimate_q15.o)
                                                  obj\.\src\PSK_Det.o
arm_fir_q15                                       .\externals\libs\libstm32f4xx_math.a(arm_fir_q15.o)
                                                  obj\.\src\PSK_Det.o
                                                  obj\.\src\DSP_Processing.o
arm_radix4_butterfly_inverse_q15                  .\externals\libs\libstm32f4xx_math.a(arm_cfft_radix4_q15.o)
arm_radix4_butterfly_q15                          .\externals\libs\libstm32f4xx_math.a(arm_cfft_radix4_q15.o)
arm_shift_q15                                     .\externals\libs\libstm32f4xx_math.a(arm_shift_q15.o)
                                                  obj\.\src\DSP_Processing.o
asciisize                                         obj\.\src\TFT_Display.o
atan                                              d:/program files (x86)/gnu tools arm embedded/4.6 2012q4/bin/../lib/gcc/arm-none-eabi/4.6.2/../../../../arm-none-eabi/lib/armv7e-m/fpu\libm.a(lib_a-s_atan.o)
                                                  d:/program files (x86)/gnu tools arm embedded/4.6 2012q4/bin/../lib/gcc/arm-none-eabi/4.6.2/../../../../arm-none-eabi/lib/armv7e-m/fpu\libm.a(lib_a-e_atan2.o)
atan2                                             d:/program files (x86)/gnu tools arm embedded/4.6 2012q4/bin/../lib/gcc/arm-none-eabi/4.6.2/../../../../arm-none-eabi/lib/armv7e-m/fpu\libm.a(lib_a-w_atan2.o)
                                                  obj\.\src\PSK_Det.o
calibration_done                                  obj\.\externals\SM32F4-Discovery\STEmbeddedGUI\src\graphicObject.o
                                                  obj\.\externals\SM32F4-Discovery\STEmbeddedGUI\src\touchscreen.o
char_count                                        obj\.\src\PSK_Det.o
check_SS1                                         obj\.\src\Encoder_1.o
                                                  obj\.\src\main.o
                                                  obj\.\src\Encoder_2.o
check_SS2                                         obj\.\src\Encoder_2.o
                                                  obj\.\src\main.o
cleanup_glue                                      d:/program files (x86)/gnu tools arm embedded/4.6 2012q4/bin/../lib/gcc/arm-none-eabi/4.6.2/../../../../arm-none-eabi/lib/armv7e-m/fpu\libc.a(lib_a-reent.o)
coeff_fir_I                                       obj\.\src\FIR_Coefficients.o
                                                  obj\.\src\DSP_Processing.o
coeff_fir_Q                                       obj\.\src\FIR_Coefficients.o
                                                  obj\.\src\DSP_Processing.o
count                                             obj\.\src\PSK_Det.o
displaySplashScreen                               obj\.\src\main.o
errno                                             d:/program files (x86)/gnu tools arm embedded/4.6 2012q4/bin/../lib/gcc/arm-none-eabi/4.6.2/../../../../arm-none-eabi/lib/armv7e-m/fpu\libc.a(lib_a-reent.o)
                                                  d:/program files (x86)/gnu tools arm embedded/4.6 2012q4/bin/../lib/gcc/arm-none-eabi/4.6.2/../../../../arm-none-eabi/lib/armv7e-m/fpu\libc.a(lib_a-sbrkr.o)
fabs                                              d:/program files (x86)/gnu tools arm embedded/4.6 2012q4/bin/../lib/gcc/arm-none-eabi/4.6.2/../../../../arm-none-eabi/lib/armv7e-m/fpu\libm.a(lib_a-s_fabs.o)
                                                  d:/program files (x86)/gnu tools arm embedded/4.6 2012q4/bin/../lib/gcc/arm-none-eabi/4.6.2/../../../../arm-none-eabi/lib/armv7e-m/fpu\libm.a(lib_a-s_atan.o)
                                                  d:/program files (x86)/gnu tools arm embedded/4.6 2012q4/bin/../lib/gcc/arm-none-eabi/4.6.2/../../../../arm-none-eabi/lib/armv7e-m/fpu\libm.a(lib_a-e_atan2.o)
fmod                                              d:/program files (x86)/gnu tools arm embedded/4.6 2012q4/bin/../lib/gcc/arm-none-eabi/4.6.2/../../../../arm-none-eabi/lib/armv7e-m/fpu\libm.a(lib_a-w_fmod.o)
                                                  obj\.\src\PSK_Det.o
free                                              d:/program files (x86)/gnu tools arm embedded/4.6 2012q4/bin/../lib/gcc/arm-none-eabi/4.6.2/../../../../arm-none-eabi/lib/armv7e-m/fpu\libc.a(lib_a-malloc.o)
                                                  obj\.\externals\SM32F4-Discovery\STEmbeddedGUI\src\graphicObject.o
getDisplayCoordinateX                             obj\.\externals\SM32F4-Discovery\STEmbeddedGUI\src\touchscreen.o
getDisplayCoordinateY                             obj\.\externals\SM32F4-Discovery\STEmbeddedGUI\src\touchscreen.o
gimp_image                                        obj\.\externals\SM32F4-Discovery\STEmbeddedGUI\src\smile_image.o
                                                  obj\.\externals\SM32F4-Discovery\STEmbeddedGUI\src\LcdDriver_ILI9320.o
i                                                 obj\.\src\uart.o
                                                  obj\.\src\DMA_IRQ_Handler.o
init_encoder1                                     obj\.\src\Encoder_1.o
                                                  obj\.\src\main.o
init_encoder2                                     obj\.\src\Encoder_2.o
                                                  obj\.\src\main.o
initializeHardware                                obj\.\src\main.o
joy_done                                          obj\.\externals\SM32F4-Discovery\STEmbeddedGUI\src\graphicObject.o
key                                               obj\.\src\DMA_IRQ_Handler.o
localeconv                                        d:/program files (x86)/gnu tools arm embedded/4.6 2012q4/bin/../lib/gcc/arm-none-eabi/4.6.2/../../../../arm-none-eabi/lib/armv7e-m/fpu\libc.a(lib_a-locale.o)
m_2PI                                             obj\.\src\uart.o
                                                  obj\.\src\PSK_Det.o
                                                  obj\.\src\PSKMod.o
                                                  obj\.\src\DMA_IRQ_Handler.o
                                                  obj\.\src\ChangeOver.o
m_AFCCaptureOn                                    obj\.\src\touch_pad.o
                                                  obj\.\src\main.o
                                                  obj\.\src\User_Button.o
                                                  obj\.\src\TFT_Display.o
                                                  obj\.\src\Sine_table.o
                                                  obj\.\src\PSK_Det.o
                                                  obj\.\src\PSKMod.o
                                                  obj\.\src\DSP_Processing.o
                                                  obj\.\src\DMA_IRQ_Handler.o
m_AFCTimer                                        obj\.\src\touch_pad.o
                                                  obj\.\src\main.o
                                                  obj\.\src\User_Button.o
                                                  obj\.\src\TFT_Display.o
                                                  obj\.\src\Sine_table.o
                                                  obj\.\src\PSK_Det.o
                                                  obj\.\src\PSKMod.o
                                                  obj\.\src\DSP_Processing.o
                                                  obj\.\src\DMA_IRQ_Handler.o
m_AFClimit                                        obj\.\src\touch_pad.o
                                                  obj\.\src\main.o
                                                  obj\.\src\User_Button.o
                                                  obj\.\src\TFT_Display.o
                                                  obj\.\src\Sine_table.o
                                                  obj\.\src\PSK_Det.o
                                                  obj\.\src\PSKMod.o
                                                  obj\.\src\DSP_Processing.o
                                                  obj\.\src\DMA_IRQ_Handler.o
m_AFCmax                                          obj\.\src\touch_pad.o
                                                  obj\.\src\main.o
                                                  obj\.\src\User_Button.o
                                                  obj\.\src\TFT_Display.o
                                                  obj\.\src\Sine_table.o
                                                  obj\.\src\PSK_Det.o
                                                  obj\.\src\PSKMod.o
                                                  obj\.\src\DSP_Processing.o
                                                  obj\.\src\DMA_IRQ_Handler.o
m_AFCmin                                          obj\.\src\touch_pad.o
                                                  obj\.\src\main.o
                                                  obj\.\src\User_Button.o
                                                  obj\.\src\TFT_Display.o
                                                  obj\.\src\Sine_table.o
                                                  obj\.\src\PSK_Det.o
                                                  obj\.\src\PSKMod.o
                                                  obj\.\src\DSP_Processing.o
                                                  obj\.\src\DMA_IRQ_Handler.o
m_AFCmode                                         obj\.\src\touch_pad.o
                                                  obj\.\src\main.o
                                                  obj\.\src\User_Button.o
                                                  obj\.\src\TFT_Display.o
                                                  obj\.\src\Sine_table.o
                                                  obj\.\src\PSK_Det.o
                                                  obj\.\src\PSKMod.o
                                                  obj\.\src\DSP_Processing.o
                                                  obj\.\src\DMA_IRQ_Handler.o
m_AGCave                                          obj\.\src\touch_pad.o
                                                  obj\.\src\main.o
                                                  obj\.\src\User_Button.o
                                                  obj\.\src\TFT_Display.o
                                                  obj\.\src\Sine_table.o
                                                  obj\.\src\PSK_Det.o
                                                  obj\.\src\PSKMod.o
                                                  obj\.\src\DSP_Processing.o
                                                  obj\.\src\DMA_IRQ_Handler.o
m_AddEndingZero                                   obj\.\src\uart.o
                                                  obj\.\src\PSK_Det.o
                                                  obj\.\src\PSKMod.o
                                                  obj\.\src\DMA_IRQ_Handler.o
                                                  obj\.\src\ChangeOver.o
m_BitAcc                                          obj\.\src\touch_pad.o
                                                  obj\.\src\main.o
                                                  obj\.\src\User_Button.o
                                                  obj\.\src\TFT_Display.o
                                                  obj\.\src\Sine_table.o
                                                  obj\.\src\PSK_Det.o
                                                  obj\.\src\PSKMod.o
                                                  obj\.\src\DSP_Processing.o
                                                  obj\.\src\DMA_IRQ_Handler.o
m_BitPhaseInc                                     obj\.\src\touch_pad.o
                                                  obj\.\src\main.o
                                                  obj\.\src\User_Button.o
                                                  obj\.\src\TFT_Display.o
                                                  obj\.\src\Sine_table.o
                                                  obj\.\src\PSK_Det.o
                                                  obj\.\src\PSKMod.o
                                                  obj\.\src\DSP_Processing.o
                                                  obj\.\src\DMA_IRQ_Handler.o
m_BitPhasePos                                     obj\.\src\touch_pad.o
                                                  obj\.\src\main.o
                                                  obj\.\src\User_Button.o
                                                  obj\.\src\TFT_Display.o
                                                  obj\.\src\Sine_table.o
                                                  obj\.\src\PSK_Det.o
                                                  obj\.\src\PSKMod.o
                                                  obj\.\src\DSP_Processing.o
                                                  obj\.\src\DMA_IRQ_Handler.o
m_BitPos                                          obj\.\src\touch_pad.o
                                                  obj\.\src\main.o
                                                  obj\.\src\User_Button.o
                                                  obj\.\src\TFT_Display.o
                                                  obj\.\src\Sine_table.o
                                                  obj\.\src\PSK_Det.o
                                                  obj\.\src\PSKMod.o
                                                  obj\.\src\DSP_Processing.o
                                                  obj\.\src\DMA_IRQ_Handler.o
m_BitSignal                                       obj\.\src\touch_pad.o
                                                  obj\.\src\main.o
                                                  obj\.\src\User_Button.o
                                                  obj\.\src\TFT_Display.o
                                                  obj\.\src\Sine_table.o
                                                  obj\.\src\PSK_Det.o
                                                  obj\.\src\PSKMod.o
                                                  obj\.\src\DSP_Processing.o
                                                  obj\.\src\DMA_IRQ_Handler.o
m_ClkErrCounter                                   obj\.\src\touch_pad.o
                                                  obj\.\src\main.o
                                                  obj\.\src\User_Button.o
                                                  obj\.\src\TFT_Display.o
                                                  obj\.\src\Sine_table.o
                                                  obj\.\src\PSK_Det.o
                                                  obj\.\src\PSKMod.o
                                                  obj\.\src\DSP_Processing.o
                                                  obj\.\src\DMA_IRQ_Handler.o
m_ClkErrTimer                                     obj\.\src\touch_pad.o
                                                  obj\.\src\main.o
                                                  obj\.\src\User_Button.o
                                                  obj\.\src\TFT_Display.o
                                                  obj\.\src\Sine_table.o
                                                  obj\.\src\PSK_Det.o
                                                  obj\.\src\PSKMod.o
                                                  obj\.\src\DSP_Processing.o
                                                  obj\.\src\DMA_IRQ_Handler.o
m_ClkError                                        obj\.\src\touch_pad.o
                                                  obj\.\src\main.o
                                                  obj\.\src\User_Button.o
                                                  obj\.\src\TFT_Display.o
                                                  obj\.\src\Sine_table.o
                                                  obj\.\src\PSK_Det.o
                                                  obj\.\src\PSKMod.o
                                                  obj\.\src\DSP_Processing.o
                                                  obj\.\src\DMA_IRQ_Handler.o
m_DevAve                                          obj\.\src\touch_pad.o
                                                  obj\.\src\main.o
                                                  obj\.\src\User_Button.o
                                                  obj\.\src\TFT_Display.o
                                                  obj\.\src\Sine_table.o
                                                  obj\.\src\PSK_Det.o
                                                  obj\.\src\PSKMod.o
                                                  obj\.\src\DSP_Processing.o
                                                  obj\.\src\DMA_IRQ_Handler.o
m_FastAFCMode                                     obj\.\src\touch_pad.o
                                                  obj\.\src\main.o
                                                  obj\.\src\User_Button.o
                                                  obj\.\src\TFT_Display.o
                                                  obj\.\src\Sine_table.o
                                                  obj\.\src\PSK_Det.o
                                                  obj\.\src\PSKMod.o
                                                  obj\.\src\DSP_Processing.o
                                                  obj\.\src\DMA_IRQ_Handler.o
m_FferrAve                                        obj\.\src\touch_pad.o
                                                  obj\.\src\main.o
                                                  obj\.\src\User_Button.o
                                                  obj\.\src\TFT_Display.o
                                                  obj\.\src\Sine_table.o
                                                  obj\.\src\PSK_Det.o
                                                  obj\.\src\PSKMod.o
                                                  obj\.\src\DSP_Processing.o
                                                  obj\.\src\DMA_IRQ_Handler.o
m_FperrAve                                        obj\.\src\touch_pad.o
                                                  obj\.\src\main.o
                                                  obj\.\src\User_Button.o
                                                  obj\.\src\TFT_Display.o
                                                  obj\.\src\Sine_table.o
                                                  obj\.\src\PSK_Det.o
                                                  obj\.\src\PSKMod.o
                                                  obj\.\src\DSP_Processing.o
                                                  obj\.\src\DMA_IRQ_Handler.o
m_FreqError                                       obj\.\src\touch_pad.o
                                                  obj\.\src\main.o
                                                  obj\.\src\User_Button.o
                                                  obj\.\src\TFT_Display.o
                                                  obj\.\src\Sine_table.o
                                                  obj\.\src\PSK_Det.o
                                                  obj\.\src\PSKMod.o
                                                  obj\.\src\DSP_Processing.o
                                                  obj\.\src\DMA_IRQ_Handler.o
m_FreqSignal                                      obj\.\src\touch_pad.o
                                                  obj\.\src\main.o
                                                  obj\.\src\User_Button.o
                                                  obj\.\src\TFT_Display.o
                                                  obj\.\src\Sine_table.o
                                                  obj\.\src\PSK_Det.o
                                                  obj\.\src\PSKMod.o
                                                  obj\.\src\DSP_Processing.o
                                                  obj\.\src\DMA_IRQ_Handler.o
m_I0                                              obj\.\src\touch_pad.o
                                                  obj\.\src\main.o
                                                  obj\.\src\User_Button.o
                                                  obj\.\src\TFT_Display.o
                                                  obj\.\src\Sine_table.o
                                                  obj\.\src\PSK_Det.o
                                                  obj\.\src\PSKMod.o
                                                  obj\.\src\DSP_Processing.o
                                                  obj\.\src\DMA_IRQ_Handler.o
m_I1                                              obj\.\src\touch_pad.o
                                                  obj\.\src\main.o
                                                  obj\.\src\User_Button.o
                                                  obj\.\src\TFT_Display.o
                                                  obj\.\src\Sine_table.o
                                                  obj\.\src\PSK_Det.o
                                                  obj\.\src\PSKMod.o
                                                  obj\.\src\DSP_Processing.o
                                                  obj\.\src\DMA_IRQ_Handler.o
m_IMDValid                                        obj\.\src\touch_pad.o
                                                  obj\.\src\main.o
                                                  obj\.\src\User_Button.o
                                                  obj\.\src\TFT_Display.o
                                                  obj\.\src\Sine_table.o
                                                  obj\.\src\PSK_Det.o
                                                  obj\.\src\PSKMod.o
                                                  obj\.\src\DSP_Processing.o
                                                  obj\.\src\DMA_IRQ_Handler.o
m_IQPhaseArray                                    obj\.\src\touch_pad.o
                                                  obj\.\src\main.o
                                                  obj\.\src\User_Button.o
                                                  obj\.\src\TFT_Display.o
                                                  obj\.\src\Sine_table.o
                                                  obj\.\src\PSK_Det.o
                                                  obj\.\src\PSKMod.o
                                                  obj\.\src\DSP_Processing.o
                                                  obj\.\src\DMA_IRQ_Handler.o
m_IQPhzIndex                                      obj\.\src\touch_pad.o
                                                  obj\.\src\main.o
                                                  obj\.\src\User_Button.o
                                                  obj\.\src\TFT_Display.o
                                                  obj\.\src\Sine_table.o
                                                  obj\.\src\PSK_Det.o
                                                  obj\.\src\PSKMod.o
                                                  obj\.\src\DSP_Processing.o
                                                  obj\.\src\DMA_IRQ_Handler.o
m_LastBitZero                                     obj\.\src\touch_pad.o
                                                  obj\.\src\main.o
                                                  obj\.\src\User_Button.o
                                                  obj\.\src\TFT_Display.o
                                                  obj\.\src\Sine_table.o
                                                  obj\.\src\PSK_Det.o
                                                  obj\.\src\PSKMod.o
                                                  obj\.\src\DSP_Processing.o
                                                  obj\.\src\DMA_IRQ_Handler.o
m_LastPkPos                                       obj\.\src\touch_pad.o
                                                  obj\.\src\main.o
                                                  obj\.\src\User_Button.o
                                                  obj\.\src\TFT_Display.o
                                                  obj\.\src\Sine_table.o
                                                  obj\.\src\PSK_Det.o
                                                  obj\.\src\PSKMod.o
                                                  obj\.\src\DSP_Processing.o
                                                  obj\.\src\DMA_IRQ_Handler.o
m_NCOphzinc                                       obj\.\src\touch_pad.o
                                                  obj\.\src\main.o
                                                  obj\.\src\User_Button.o
                                                  obj\.\src\TFT_Display.o
                                                  obj\.\src\Sine_table.o
                                                  obj\.\src\PSK_Det.o
                                                  obj\.\src\PSKMod.o
                                                  obj\.\src\DSP_Processing.o
                                                  obj\.\src\DMA_IRQ_Handler.o
m_NLPk                                            obj\.\src\touch_pad.o
                                                  obj\.\src\main.o
                                                  obj\.\src\User_Button.o
                                                  obj\.\src\TFT_Display.o
                                                  obj\.\src\Sine_table.o
                                                  obj\.\src\PSK_Det.o
                                                  obj\.\src\PSKMod.o
                                                  obj\.\src\DSP_Processing.o
                                                  obj\.\src\DMA_IRQ_Handler.o
m_Ncnt                                            obj\.\src\touch_pad.o
                                                  obj\.\src\main.o
                                                  obj\.\src\User_Button.o
                                                  obj\.\src\TFT_Display.o
                                                  obj\.\src\Sine_table.o
                                                  obj\.\src\PSK_Det.o
                                                  obj\.\src\PSKMod.o
                                                  obj\.\src\DSP_Processing.o
                                                  obj\.\src\DMA_IRQ_Handler.o
m_NewPkPos                                        obj\.\src\touch_pad.o
                                                  obj\.\src\main.o
                                                  obj\.\src\User_Button.o
                                                  obj\.\src\TFT_Display.o
                                                  obj\.\src\Sine_table.o
                                                  obj\.\src\PSK_Det.o
                                                  obj\.\src\PSKMod.o
                                                  obj\.\src\DSP_Processing.o
                                                  obj\.\src\DMA_IRQ_Handler.o
m_OffCount                                        obj\.\src\touch_pad.o
                                                  obj\.\src\main.o
                                                  obj\.\src\User_Button.o
                                                  obj\.\src\TFT_Display.o
                                                  obj\.\src\Sine_table.o
                                                  obj\.\src\PSK_Det.o
                                                  obj\.\src\PSKMod.o
                                                  obj\.\src\DSP_Processing.o
                                                  obj\.\src\DMA_IRQ_Handler.o
m_OnCount                                         obj\.\src\touch_pad.o
                                                  obj\.\src\main.o
                                                  obj\.\src\User_Button.o
                                                  obj\.\src\TFT_Display.o
                                                  obj\.\src\Sine_table.o
                                                  obj\.\src\PSK_Det.o
                                                  obj\.\src\PSKMod.o
                                                  obj\.\src\DSP_Processing.o
                                                  obj\.\src\DMA_IRQ_Handler.o
m_PSKPeriodUpdate                                 obj\.\src\PSK_Det.o
m_PSKmode                                         obj\.\src\touch_pad.o
                                                  obj\.\src\main.o
                                                  obj\.\src\User_Button.o
                                                  obj\.\src\TFT_Display.o
                                                  obj\.\src\Sine_table.o
                                                  obj\.\src\PSK_Det.o
                                                  obj\.\src\PSKMod.o
                                                  obj\.\src\DSP_Processing.o
                                                  obj\.\src\DMA_IRQ_Handler.o
m_Pcnt                                            obj\.\src\touch_pad.o
                                                  obj\.\src\main.o
                                                  obj\.\src\User_Button.o
                                                  obj\.\src\TFT_Display.o
                                                  obj\.\src\Sine_table.o
                                                  obj\.\src\PSK_Det.o
                                                  obj\.\src\PSKMod.o
                                                  obj\.\src\DSP_Processing.o
                                                  obj\.\src\DMA_IRQ_Handler.o
m_PkPos                                           obj\.\src\touch_pad.o
                                                  obj\.\src\main.o
                                                  obj\.\src\User_Button.o
                                                  obj\.\src\TFT_Display.o
                                                  obj\.\src\Sine_table.o
                                                  obj\.\src\PSK_Det.o
                                                  obj\.\src\PSKMod.o
                                                  obj\.\src\DSP_Processing.o
                                                  obj\.\src\DMA_IRQ_Handler.o
m_Q0                                              obj\.\src\touch_pad.o
                                                  obj\.\src\main.o
                                                  obj\.\src\User_Button.o
                                                  obj\.\src\TFT_Display.o
                                                  obj\.\src\Sine_table.o
                                                  obj\.\src\PSK_Det.o
                                                  obj\.\src\PSKMod.o
                                                  obj\.\src\DSP_Processing.o
                                                  obj\.\src\DMA_IRQ_Handler.o
m_Q1                                              obj\.\src\touch_pad.o
                                                  obj\.\src\main.o
                                                  obj\.\src\User_Button.o
                                                  obj\.\src\TFT_Display.o
                                                  obj\.\src\Sine_table.o
                                                  obj\.\src\PSK_Det.o
                                                  obj\.\src\PSKMod.o
                                                  obj\.\src\DSP_Processing.o
                                                  obj\.\src\DMA_IRQ_Handler.o
m_QFreqError                                      obj\.\src\touch_pad.o
                                                  obj\.\src\main.o
                                                  obj\.\src\User_Button.o
                                                  obj\.\src\TFT_Display.o
                                                  obj\.\src\Sine_table.o
                                                  obj\.\src\PSK_Det.o
                                                  obj\.\src\PSKMod.o
                                                  obj\.\src\DSP_Processing.o
                                                  obj\.\src\DMA_IRQ_Handler.o
m_RMSConstant                                     obj\.\src\uart.o
                                                  obj\.\src\PSK_Det.o
                                                  obj\.\src\PSKMod.o
                                                  obj\.\src\DMA_IRQ_Handler.o
                                                  obj\.\src\ChangeOver.o
m_Ramp                                            obj\.\src\PSKMod.o
m_SQLevel                                         obj\.\src\touch_pad.o
                                                  obj\.\src\main.o
                                                  obj\.\src\User_Button.o
                                                  obj\.\src\TFT_Display.o
                                                  obj\.\src\Sine_table.o
                                                  obj\.\src\PSK_Det.o
                                                  obj\.\src\PSKMod.o
                                                  obj\.\src\DSP_Processing.o
                                                  obj\.\src\DMA_IRQ_Handler.o
m_SQOpen                                          obj\.\src\touch_pad.o
                                                  obj\.\src\main.o
                                                  obj\.\src\User_Button.o
                                                  obj\.\src\TFT_Display.o
                                                  obj\.\src\Sine_table.o
                                                  obj\.\src\PSK_Det.o
                                                  obj\.\src\PSKMod.o
                                                  obj\.\src\DSP_Processing.o
                                                  obj\.\src\DMA_IRQ_Handler.o
m_SQThresh                                        obj\.\src\touch_pad.o
                                                  obj\.\src\main.o
                                                  obj\.\src\User_Button.o
                                                  obj\.\src\TFT_Display.o
                                                  obj\.\src\Sine_table.o
                                                  obj\.\src\PSK_Det.o
                                                  obj\.\src\PSKMod.o
                                                  obj\.\src\DSP_Processing.o
                                                  obj\.\src\DMA_IRQ_Handler.o
m_SampCnt                                         obj\.\src\touch_pad.o
                                                  obj\.\src\main.o
                                                  obj\.\src\User_Button.o
                                                  obj\.\src\TFT_Display.o
                                                  obj\.\src\Sine_table.o
                                                  obj\.\src\PSK_Det.o
                                                  obj\.\src\PSKMod.o
                                                  obj\.\src\DSP_Processing.o
                                                  obj\.\src\DMA_IRQ_Handler.o
m_SampleClkAdj                                    obj\.\src\touch_pad.o
                                                  obj\.\src\main.o
                                                  obj\.\src\User_Button.o
                                                  obj\.\src\TFT_Display.o
                                                  obj\.\src\Sine_table.o
                                                  obj\.\src\PSK_Det.o
                                                  obj\.\src\PSKMod.o
                                                  obj\.\src\DSP_Processing.o
                                                  obj\.\src\DMA_IRQ_Handler.o
m_SampleFreq                                      obj\.\src\touch_pad.o
                                                  obj\.\src\main.o
                                                  obj\.\src\User_Button.o
                                                  obj\.\src\TFT_Display.o
                                                  obj\.\src\Sine_table.o
                                                  obj\.\src\PSK_Det.o
                                                  obj\.\src\PSKMod.o
                                                  obj\.\src\DSP_Processing.o
                                                  obj\.\src\DMA_IRQ_Handler.o
m_SquelchSpeed                                    obj\.\src\touch_pad.o
                                                  obj\.\src\main.o
                                                  obj\.\src\User_Button.o
                                                  obj\.\src\TFT_Display.o
                                                  obj\.\src\Sine_table.o
                                                  obj\.\src\PSK_Det.o
                                                  obj\.\src\PSKMod.o
                                                  obj\.\src\DSP_Processing.o
                                                  obj\.\src\DMA_IRQ_Handler.o
m_SymbolRate                                      obj\.\src\uart.o
                                                  obj\.\src\PSK_Det.o
                                                  obj\.\src\PSKMod.o
                                                  obj\.\src\DMA_IRQ_Handler.o
                                                  obj\.\src\ChangeOver.o
m_SyncArray                                       obj\.\src\touch_pad.o
                                                  obj\.\src\main.o
                                                  obj\.\src\User_Button.o
                                                  obj\.\src\TFT_Display.o
                                                  obj\.\src\Sine_table.o
                                                  obj\.\src\PSK_Det.o
                                                  obj\.\src\PSKMod.o
                                                  obj\.\src\DSP_Processing.o
                                                  obj\.\src\DMA_IRQ_Handler.o
m_SyncAve                                         obj\.\src\touch_pad.o
                                                  obj\.\src\main.o
                                                  obj\.\src\User_Button.o
                                                  obj\.\src\TFT_Display.o
                                                  obj\.\src\Sine_table.o
                                                  obj\.\src\PSK_Det.o
                                                  obj\.\src\PSKMod.o
                                                  obj\.\src\DSP_Processing.o
                                                  obj\.\src\DMA_IRQ_Handler.o
m_TxShiftReg                                      obj\.\src\uart.o
                                                  obj\.\src\PSK_Det.o
                                                  obj\.\src\PSKMod.o
                                                  obj\.\src\DMA_IRQ_Handler.o
                                                  obj\.\src\ChangeOver.o
m_VaricodeDecTbl                                  obj\.\src\touch_pad.o
                                                  obj\.\src\main.o
                                                  obj\.\src\User_Button.o
                                                  obj\.\src\TFT_Display.o
                                                  obj\.\src\Sine_table.o
                                                  obj\.\src\PSK_Det.o
                                                  obj\.\src\PSKMod.o
                                                  obj\.\src\DSP_Processing.o
                                                  obj\.\src\DMA_IRQ_Handler.o
m_VcoPhz                                          obj\.\src\touch_pad.o
                                                  obj\.\src\main.o
                                                  obj\.\src\User_Button.o
                                                  obj\.\src\TFT_Display.o
                                                  obj\.\src\Sine_table.o
                                                  obj\.\src\PSK_Det.o
                                                  obj\.\src\PSKMod.o
                                                  obj\.\src\DSP_Processing.o
                                                  obj\.\src\DMA_IRQ_Handler.o
m_pHead                                           obj\.\src\PSKMod.o
m_pTail                                           obj\.\src\PSKMod.o
m_z1                                              obj\.\src\touch_pad.o
                                                  obj\.\src\main.o
                                                  obj\.\src\User_Button.o
                                                  obj\.\src\TFT_Display.o
                                                  obj\.\src\Sine_table.o
                                                  obj\.\src\PSK_Det.o
                                                  obj\.\src\PSKMod.o
                                                  obj\.\src\DSP_Processing.o
                                                  obj\.\src\DMA_IRQ_Handler.o
m_z2                                              obj\.\src\touch_pad.o
                                                  obj\.\src\main.o
                                                  obj\.\src\User_Button.o
                                                  obj\.\src\TFT_Display.o
                                                  obj\.\src\Sine_table.o
                                                  obj\.\src\PSK_Det.o
                                                  obj\.\src\PSKMod.o
                                                  obj\.\src\DSP_Processing.o
                                                  obj\.\src\DMA_IRQ_Handler.o
main                                              obj\.\src\main.o
                                                  obj\.\startup\startup_stm32f4xx.o
main_GUI                                          obj\.\externals\SM32F4-Discovery\STEmbeddedGUI\src\main_GUI.o
main_delay                                        obj\.\src\main.o
malloc                                            d:/program files (x86)/gnu tools arm embedded/4.6 2012q4/bin/../lib/gcc/arm-none-eabi/4.6.2/../../../../arm-none-eabi/lib/armv7e-m/fpu\libc.a(lib_a-malloc.o)
                                                  obj\.\externals\SM32F4-Discovery\STEmbeddedGUI\src\graphicObject.o
matherr                                           d:/program files (x86)/gnu tools arm embedded/4.6 2012q4/bin/../lib/gcc/arm-none-eabi/4.6.2/../../../../arm-none-eabi/lib/armv7e-m/fpu\libm.a(lib_a-s_matherr.o)
                                                  d:/program files (x86)/gnu tools arm embedded/4.6 2012q4/bin/../lib/gcc/arm-none-eabi/4.6.2/../../../../arm-none-eabi/lib/armv7e-m/fpu\libm.a(lib_a-w_sqrt.o)
                                                  d:/program files (x86)/gnu tools arm embedded/4.6 2012q4/bin/../lib/gcc/arm-none-eabi/4.6.2/../../../../arm-none-eabi/lib/armv7e-m/fpu\libm.a(lib_a-w_fmod.o)
memchr                                            d:/program files (x86)/gnu tools arm embedded/4.6 2012q4/bin/../lib/gcc/arm-none-eabi/4.6.2/../../../../arm-none-eabi/lib/armv7e-m/fpu\libc.a(lib_a-memchr.o)
                                                  d:/program files (x86)/gnu tools arm embedded/4.6 2012q4/bin/../lib/gcc/arm-none-eabi/4.6.2/../../../../arm-none-eabi/lib/armv7e-m/fpu\libc.a(lib_a-svfiprintf.o)
                                                  d:/program files (x86)/gnu tools arm embedded/4.6 2012q4/bin/../lib/gcc/arm-none-eabi/4.6.2/../../../../arm-none-eabi/lib/armv7e-m/fpu\libc.a(lib_a-svfprintf.o)
memcpy                                            d:/program files (x86)/gnu tools arm embedded/4.6 2012q4/bin/../lib/gcc/arm-none-eabi/4.6.2/../../../../arm-none-eabi/lib/armv7e-m/fpu\libc.a(lib_a-memcpy.o)
                                                  d:/program files (x86)/gnu tools arm embedded/4.6 2012q4/bin/../lib/gcc/arm-none-eabi/4.6.2/../../../../arm-none-eabi/lib/armv7e-m/fpu\libc.a(lib_a-svfiprintf.o)
                                                  d:/program files (x86)/gnu tools arm embedded/4.6 2012q4/bin/../lib/gcc/arm-none-eabi/4.6.2/../../../../arm-none-eabi/lib/armv7e-m/fpu\libc.a(lib_a-mprec.o)
                                                  d:/program files (x86)/gnu tools arm embedded/4.6 2012q4/bin/../lib/gcc/arm-none-eabi/4.6.2/../../../../arm-none-eabi/lib/armv7e-m/fpu\libc.a(lib_a-dtoa.o)
                                                  obj\.\externals\SM32F4-Discovery\STEmbeddedGUI\src\graphicObject.o
                                                  obj\.\externals\SM32F4-Discovery\STEmbeddedGUI\src\LcdDriver_ILI9320.o
memmove                                           d:/program files (x86)/gnu tools arm embedded/4.6 2012q4/bin/../lib/gcc/arm-none-eabi/4.6.2/../../../../arm-none-eabi/lib/armv7e-m/fpu\libc.a(lib_a-memmove.o)
                                                  d:/program files (x86)/gnu tools arm embedded/4.6 2012q4/bin/../lib/gcc/arm-none-eabi/4.6.2/../../../../arm-none-eabi/lib/armv7e-m/fpu\libc.a(lib_a-reallocr.o)
                                                  d:/program files (x86)/gnu tools arm embedded/4.6 2012q4/bin/../lib/gcc/arm-none-eabi/4.6.2/../../../../arm-none-eabi/lib/armv7e-m/fpu\libc.a(lib_a-svfiprintf.o)
memset                                            d:/program files (x86)/gnu tools arm embedded/4.6 2012q4/bin/../lib/gcc/arm-none-eabi/4.6.2/../../../../arm-none-eabi/lib/armv7e-m/fpu\libc.a(lib_a-memset.o)
                                                  d:/program files (x86)/gnu tools arm embedded/4.6 2012q4/bin/../lib/gcc/arm-none-eabi/4.6.2/../../../../arm-none-eabi/lib/armv7e-m/fpu\libc.a(lib_a-callocr.o)
                                                  obj\.\externals\SM32F4-Discovery\STEmbeddedGUI\src\graphicObject.o
                                                  obj\.\src\touch_pad.o
newsamp                                           obj\.\src\touch_pad.o
                                                  obj\.\src\main.o
                                                  obj\.\src\User_Button.o
                                                  obj\.\src\TFT_Display.o
                                                  obj\.\src\Sine_table.o
                                                  obj\.\src\PSK_Det.o
                                                  obj\.\src\PSKMod.o
                                                  obj\.\src\DSP_Processing.o
                                                  obj\.\src\DMA_IRQ_Handler.o
numCharChangingByDial                             obj\.\src\TFT_Display.o
old_SS1_position                                  obj\.\src\main.o
old_SS2_position                                  obj\.\src\main.o
pLcdHwParam                                       obj\.\externals\SM32F4-Discovery\STEmbeddedGUI\src\LcdHal.o
pTscHwParam                                       obj\.\externals\SM32F4-Discovery\STEmbeddedGUI\src\TscHal.o
phase_adjust                                      obj\.\src\touch_pad.o
                                                  obj\.\src\main.o
                                                  obj\.\src\Encoder_2.o
                                                  obj\.\src\DMA_IRQ_Handler.o
                                                  obj\.\src\ChangeOver.o
process_SS1                                       obj\.\src\Encoder_1.o
                                                  obj\.\src\Encoder_2.o
process_SS2                                       obj\.\src\Encoder_2.o
process_encoder1                                  obj\.\src\Encoder_1.o
process_encoder2                                  obj\.\src\Encoder_2.o
put_dump                                          obj\.\src\xprintf.o
read_SS1                                          obj\.\src\touch_pad.o
                                                  obj\.\src\main.o
                                                  obj\.\src\eeprom.o
                                                  obj\.\src\Encoder_2.o
                                                  obj\.\src\Encoder_1.o
read_SS2                                          obj\.\src\touch_pad.o
                                                  obj\.\src\main.o
                                                  obj\.\src\eeprom.o
                                                  obj\.\src\Encoder_2.o
                                                  obj\.\src\ChangeOver.o
received_string                                   obj\.\src\uart.o
redrawFrequencyOnScreen                           obj\.\src\Encoder_1.o
                                                  obj\.\src\touch_pad.o
rgain                                             obj\.\src\touch_pad.o
                                                  obj\.\src\main.o
                                                  obj\.\src\Encoder_2.o
                                                  obj\.\src\DMA_IRQ_Handler.o
                                                  obj\.\src\ChangeOver.o
sample                                            obj\.\src\touch_pad.o
                                                  obj\.\src\main.o
                                                  obj\.\src\User_Button.o
                                                  obj\.\src\TFT_Display.o
                                                  obj\.\src\Sine_table.o
                                                  obj\.\src\PSK_Det.o
                                                  obj\.\src\PSKMod.o
                                                  obj\.\src\DSP_Processing.o
                                                  obj\.\src\DMA_IRQ_Handler.o
screen                                            obj\.\src\touch_pad.o
setlocale                                         d:/program files (x86)/gnu tools arm embedded/4.6 2012q4/bin/../lib/gcc/arm-none-eabi/4.6.2/../../../../arm-none-eabi/lib/armv7e-m/fpu\libc.a(lib_a-locale.o)
si570_read                                        obj\.\src\main.o
                                                  obj\.\src\Si570.o
                                                  obj\.\src\Encoder_2.o
                                                  obj\.\src\Encoder_1.o
sprintf                                           d:/program files (x86)/gnu tools arm embedded/4.6 2012q4/bin/../lib/gcc/arm-none-eabi/4.6.2/../../../../arm-none-eabi/lib/armv7e-m/fpu\libc.a(lib_a-sprintf.o)
                                                  obj\.\externals\SM32F4-Discovery\STEmbeddedGUI\src\graphicObject.o
sqrt                                              d:/program files (x86)/gnu tools arm embedded/4.6 2012q4/bin/../lib/gcc/arm-none-eabi/4.6.2/../../../../arm-none-eabi/lib/armv7e-m/fpu\libm.a(lib_a-w_sqrt.o)
                                                  obj\.\src\PSK_Det.o
start_toggle                                      obj\.\externals\SM32F4-Discovery\USB\src\usbh_hid_core.o
strcmp                                            d:/program files (x86)/gnu tools arm embedded/4.6 2012q4/bin/../lib/gcc/arm-none-eabi/4.6.2/../../../../arm-none-eabi/lib/armv7e-m/fpu\libc.a(lib_a-strcmp.o)
                                                  d:/program files (x86)/gnu tools arm embedded/4.6 2012q4/bin/../lib/gcc/arm-none-eabi/4.6.2/../../../../arm-none-eabi/lib/armv7e-m/fpu\libc.a(lib_a-locale.o)
strlen                                            d:/program files (x86)/gnu tools arm embedded/4.6 2012q4/bin/../lib/gcc/arm-none-eabi/4.6.2/../../../../arm-none-eabi/lib/armv7e-m/fpu\libc.a(lib_a-strlen.o)
                                                  d:/program files (x86)/gnu tools arm embedded/4.6 2012q4/bin/../lib/gcc/arm-none-eabi/4.6.2/../../../../arm-none-eabi/lib/armv7e-m/fpu\libc.a(lib_a-svfiprintf.o)
                                                  d:/program files (x86)/gnu tools arm embedded/4.6 2012q4/bin/../lib/gcc/arm-none-eabi/4.6.2/../../../../arm-none-eabi/lib/armv7e-m/fpu\libc.a(lib_a-svfprintf.o)
                                                  obj\.\externals\SM32F4-Discovery\STEmbeddedGUI\src\graphicObject.o
strncpy                                           d:/program files (x86)/gnu tools arm embedded/4.6 2012q4/bin/../lib/gcc/arm-none-eabi/4.6.2/../../../../arm-none-eabi/lib/armv7e-m/fpu\libc.a(lib_a-strncpy.o)
                                                  obj\.\externals\SM32F4-Discovery\STEmbeddedGUI\src\graphicObject.o
top_of_stack                                      obj\.\startup\startup_stm32f4xx.o
touch_done                                        obj\.\externals\SM32F4-Discovery\STEmbeddedGUI\src\graphicObject.o
                                                  obj\.\externals\SM32F4-Discovery\STEmbeddedGUI\src\touchscreen.o
touch_init                                        obj\.\src\touch_pad.o
                                                  obj\.\src\main.o
touch_interrupt_init                              obj\.\src\touch_pad.o
                                                  obj\.\src\main.o
u32_TSXCoordinate                                 obj\.\externals\SM32F4-Discovery\STEmbeddedGUI\src\graphicObject.o
                                                  obj\.\externals\SM32F4-Discovery\STEmbeddedGUI\src\cursor.o
u32_TSYCoordinate                                 obj\.\externals\SM32F4-Discovery\STEmbeddedGUI\src\graphicObject.o
                                                  obj\.\externals\SM32F4-Discovery\STEmbeddedGUI\src\cursor.o
uart_addRxCharacter                               obj\.\src\uart.o
                                                  obj\.\src\usbh_usr.o
uart_deinit                                       obj\.\src\uart.o
uart_init                                         obj\.\src\uart.o
                                                  obj\.\src\main.o
uart_putc                                         obj\.\src\uart.o
                                                  obj\.\src\PSK_Det.o
vu32_gTimeOutCount                                obj\.\externals\SM32F4-Discovery\STEmbeddedGUI\src\graphicObject.o
vu8_gPowerSaveOption                              obj\.\externals\SM32F4-Discovery\STEmbeddedGUI\src\graphicObject.o
vu8_gSleepState                                   obj\.\externals\SM32F4-Discovery\STEmbeddedGUI\src\graphicObject.o
vu8_gTouchEnable                                  obj\.\externals\SM32F4-Discovery\STEmbeddedGUI\src\graphicObject.o
writeNumberToBuffer                               obj\.\src\TFT_Display.o
x_NCOphzinc                                       obj\.\src\touch_pad.o
                                                  obj\.\src\main.o
                                                  obj\.\src\Encoder_2.o
                                                  obj\.\src\DMA_IRQ_Handler.o
                                                  obj\.\src\ChangeOver.o
xfprintf                                          obj\.\src\xprintf.o
xfputs                                            obj\.\src\xprintf.o
xfunc_out                                         obj\.\src\xprintf.o
                                                  obj\.\src\uart.o
xprintf                                           obj\.\src\xprintf.o
xputc                                             obj\.\src\xprintf.o
xputs                                             obj\.\src\xprintf.o
xsprintf                                          obj\.\src\xprintf.o
